xc:_glClearStencil
neg:_UInt16_System_IConvertible_ToChar_m2096055221_AdjustorThunk
sJf:_Array_TrueForAll_TisRuntimeObject_m1084992726_gshared
pij:__ZN6il2cpp2vm5Array13GetByteLengthEP11Il2CppArray
Qxi:_KeyBuilder_get_Rng_m3373220441
sSa:__Z30GetIntermediateRendererManagerv
Xxa:__Z21SourceMipLevelForBlitiiii
UWa:__ZN31CanvasBatchIntermediateRenderer15AddAsRenderNodeER15RenderNodeQueueRK20DeprecatedSourceData
Ebg:_TimeSpan_get_Hours_m550761902
vOd:_UnmanagedMemoryStream_Write_m930787521
yr:__ZN11UnityEngine9Animation28GenericAnimationBindingCacheD2Ev
xoi:_X509Store_LoadCrl_m1881903843
s0h:_Array_Sort_TisUICharInfo_t75501106_TisUICharInfo_t75501106_m722747892_gshared
S6a:__ZNSt3__26vectorI13dynamic_arrayI8Vector2fLj4EENS_9allocatorIS3_EEEC2INS_11__wrap_iterIPS3_EEEET_SB_RKS5_PNS_9enable_ifIXaasr21__is_forward_iteratorISB_EE5valuesr16is_constructibleIS3_NS_15iterator_traitsISB_E9referenceEEE5valueEvE4typeE
ZXb:__Z18RestoreRenderStateR20CameraRenderOldStateR17ShaderPassContext
tyb:__Z18Transfer_BlittableI18StreamedBinaryReadILb1EELb1E5RectTIfEEvRK29SerializationCommandArgumentsR31RuntimeSerializationCommandInfo
lub:__Z18Transfer_BlittableI24GenerateTypeTreeTransferLb0E11ColorRGBA32EvRK29SerializationCommandArgumentsR31RuntimeSerializationCommandInfo
eDb:__Z25scripting_class_from_name17ScriptingImagePtrPKcS1_
nMf:_Array_InternalArray__IndexOf_TisKeyValuePair_2_t3699644050_m1021241249_gshared
V2i:__ZN14dense_hash_mapI10KeyWrapperINSt3__24pairIPK12PropertyInfoP11Il2CppClassEEEj17ReflectionMapHashIS8_ENS9_14EqualsComparerINS1_8equal_toIS8_EEEENS1_9allocatorINS2_IKS9_jEEEEE15set_deleted_keyERSH_
FEb:__Z29scripting_class_enum_basetype17ScriptingClassPtr
qte:_InternalEnumerator_1_get_Current_m1477715453_gshared
Ilb:__ZNK20LocalFileSystemPosix6ParentERK13FileEntryDataRN4core12basic_stringIcNS3_20StringStorageDefaultIcEEEE
yvg:_RectTransform_GetWorldCorners_m3553547973
Veh:_Collection_1_System_Collections_IList_Remove_m1476284619_gshared
vQd:_MonoType_IsPrimitiveImpl_m2401722705
Gjf:_SHA1CryptoServiceProvider__ctor_m4195188793
glg:_CSSMeasureFunc_BeginInvoke_m3802154595
F8c:_Dropdown_Hide_m504034854
HLa:__ZN17PersistentManager22CheckInstanceIDsLoadedEPii
P3a:__ZN9Texture2D25CreateScaledAndPaddedDataEPP17SharedTextureDataS2_
szg:_Vector2_get_up_m2647420593
Bva:__ZN7ApiGLES17CopyBufferSubDataEjjlll
oPf:_Array_InternalArray__ICollection_CopyTo_TisUInt64_t4134040092_m691431926_gshared
taf:_IPAddress_ToString_m1181734207
k7f:_StringBuilder_Append_m1965104174
Voc:__ZN5Unity9rapidjson15GenericDocumentINS0_4UTF8IcEE13JSONAllocatorS4_E11ParseStreamILj1ES3_NS0_25GenericInsituStringStreamIS3_EEEERS5_RT1_
RVf:_EqualityComparer_1__cctor_m3766928733_gshared
eQb:__ZN25CameraStackRenderingState20GetOrCreateBuiltinRTE24BuiltinRenderTextureTypeii17DepthBufferFormat19RenderTextureFormatj22RenderTextureReadWrite14VRTextureUsagei
Mgi:_UnityAction_1_Invoke_m610765085_gshared
tO:__ZN11AudioModule26SetDefaultMicrophoneDriverEPv
d6d:_Kernel_modInverse_m652700340
k8a:__ZNK14Texture2DArray26CanReuploadDataToGfxDeviceEv
tUb:__ZN17PrePassRenderLoop14RenderBasePassEP13RenderTextureRK14LightingLayersR13dynamic_arrayI16RenderObjectDataLj4EERbR10MinMaxAABB
Kmc:__ZN5IMGUI18RepaintModalWindowER8GUIState
k4:__ZNK15dense_hashtableINSt3__24pairIKN9ShaderLab7Program23ShaderKeywordSetAndHashEPKNS2_10SubProgramEEES4_NS3_24ShaderKeywordHashFunctorEN14dense_hash_mapIS4_S8_SA_NS0_8equal_toIS4_EE13stl_allocatorIS9_L18MemLabelIdentifier67ELi16EEE9SelectKeyESD_SG_E23find_position_with_hashERS5_j
VDf:_CompareInfo_Finalize_m404687489
V6a:__Z23SetSpriteMeshIndexCountP14SharedMeshDataj
g9f:_UTF8Decoder_GetChars_m1236346907
Kxg:_TouchScreenKeyboard_Open_m231964201
X_a:__ZN7Texture13SetFilterModeEi
Rjj:__ZN6il2cpp8metadata13GenericMethod9GetMethodEPK19Il2CppGenericMethod
mq:__ZNSt3__26vectorIN4core12basic_stringIcNS1_20StringStorageDefaultIcEEEENS_9allocatorIS5_EEE7reserveEj
aUd:_Default_SelectProperty_m1220817815
fEe:_RemotingConfiguration_IsRemotelyActivatedClientType_m4117048589
Avg:_Transform_TransformPoint_m226827784
upa:__ZN13GfxDeviceGLES11SetViewportERK5RectTIiE
Ajc:__Z24Time_Get_Custom_PropTimev
Od:_emscripten_glDepthRange
Oge:_SslStreamBase_BeginNegotiateHandshake_m4180435790
m_b:__ZNSt3__26vectorINS_4pairIN4core12basic_stringIcNS2_20StringStorageDefaultIcEEEES6_EE13stl_allocatorIS7_L18MemLabelIdentifier38ELi16EEE12__move_rangeEPS7_SC_SC_
Eia:__Z14resize_trimmedINSt3__26vectorIN9ShaderLab20SerializedSubProgram12UAVParameterENS0_9allocatorIS4_EEEEEvRT_j
npc:__ZN5Unity9rapidjson13GenericReaderINS0_4UTF8IcEES3_13JSONAllocatorE11ParseObjectILj1ENS0_25GenericInsituStringStreamIS3_EENS0_15GenericDocumentIS3_S4_S4_EEEEvRT0_RT1_
Z2c:_StandaloneInputModule_GetRawMoveVector_m2737091079
uXh:__ZL62Selectable_t3250028441_CustomAttributesCacheGenerator_m_ColorsP21CustomAttributesCache
fhe:_SslStreamBase_EndWrite_m4073224031
J1:__ZNSt3__218__insertion_sort_3IRNS_6__lessI14ObjectLoadDataS2_EEPS2_EEvT0_S6_T_
rxa:__ZN4crndL20crnd_default_reallocEPvjPjbS0_
Jxj:__ZNSt3__212basic_stringIcNS_11char_traitsIcEENS_9allocatorIcEEEC2ERKS5_
L7a:__ZN18SpriteAtlasManager19AddRequestingSpriteE4PPtrI6SpriteE
ljc:__Z33Texture_CUSTOM_Internal_GetHeightP12Il2CppObject
xBe:_ValueCollection_System_Collections_ICollection_get_SyncRoot_m3381653267_gshared
cXb:__ZN23ScriptableRenderContextC2Ev
tbd:_GridLayoutGroup_get_spacing_m2409263614
qAe:_Enumerator_MoveNext_m3051926902_gshared
X2f:_List_1_CheckIndex_m581273900_gshared
EGc:_UNITY_FT_Stream_GetChar
Uyb:__Z18Transfer_BlittableI18StreamedBinaryReadILb1EELb1EdEvRK29SerializationCommandArgumentsR31RuntimeSerializationCommandInfo
NEb:__Z26BuildSerializationCacheFor17ScriptingClassPtrRb
BDa:__ZN7ApiGLES15BlitFramebufferEN2gl6HandleILNS0_10ObjectTypeE9EEENS0_15FramebufferReadES3_S3_iiiiiiiiNS0_15FramebufferTypeE
fNg:__Z112RuntimeInvoker_RuntimeObject_RuntimeObject_RuntimeObject_RuntimeObject_RuntimeObject_RuntimeObject_RuntimeObjectPFvvEPK10MethodInfoPvPS4_
Fse:_InternalEnumerator_1_System_Collections_IEnumerator_get_Current_m3553395619_AdjustorThunk
ynd:_Array_SetValue_m3998268557
Fvc:__ZN8JSONRead8TransferI8Vector4fEEvRT_PKc17TransferMetaFlagsb
P5c:_ColorBlock_set_highlightedColor_m2089444414_AdjustorThunk
jvg:_RectTransform_INTERNAL_set_anchoredPosition_m939517950
zde:_Context_EndSwitchingSecurityParameters_m4148956166
IBc:_otv_PairPos_validate
aw:__ZN7mecanim9animation14CopyHumanPosesEPKNS0_18AnimationNodeStateEPS1_RKNS_6bitsetILj83EEE
PUi:__ZN6il2cpp6icalls8mscorlib6SystemL8IsStaticEPK12PropertyInfo
cGb:__Z9InitInputv
DDc:_UNITY_tt_face_build_cmaps
q_i:__ZN6il2cpp2gc19AppendOnlyGCHashMapINSt3__24pairIPK10MethodInfoP11Il2CppClassEEP22Il2CppReflectionMethod17ReflectionMapHashIS9_ENS2_8equal_toIS9_EEE3AddERKS9_SB_
Nmb:__ZN16MemoryFileSystem6DeleteER13FileEntryDatab
RHg:__Z81RuntimeInvoker_Void_t1185182177_RuntimeObject_Int64_t3736567304_Int32_t2950945753PFvvEPK10MethodInfoPvPS4_
g4f:_List_1_set_Item_m1979164443_gshared
nya:__ZL21BlitScaleStbImageImplRK14ImageReferenceRS_NS_10ColorSpaceE
bqd:_Boolean_System_IConvertible_ToUInt16_m3465173538_AdjustorThunk
QPe:_InputField_get_keyboardType_m1248105267
cqb:__Z29Transfer_Blittable_ArrayFieldI14SafeBinaryReadyEvRT_R9ArrayInfoRK23StaticTransferFieldInfo
iM:__ZN20SoundChannelInstance15setChannelGroupEPN4FMOD12ChannelGroupE
Voi:_Match__ctor_m2425511580
lc:invoke_vifffii
I9i:__ZN6il2cpp2vm9Exception27RaiseNullReferenceExceptionEv
wOa:__ZNK25MultiBlocksMemoryFileData5CloneEv
xpj:_GC_add_ext_descriptor
HYi:__ZNK15dense_hashtableINSt3__24pairIK10KeyWrapperINS1_IPK14Il2CppAssemblyP11Il2CppClassEEEjEES9_17ReflectionMapHashIS8_EN14dense_hash_mapIS9_jSD_NS9_14EqualsComparerINS0_8equal_toIS8_EEEENS0_9allocatorISB_EEE9SelectKeyESI_SK_E23find_position_with_hashERSA_j
m2h:_LayoutGroup_SetProperty_TisSingle_t1397266774_m793506911_gshared
Ffd:_CryptoConfig_CreateFromName_m1538277313
Kzj:dynCall_iiiiiiiiiiii
$Pe:_InputField_set_caretPositionInternal_m3823580651
CZe:_Selectable_set_interactable_m3105888815
eXa:__ZL26KeywordSetToStringDontSortRKNSt3__26vectorIN4core12basic_stringIcNS1_20StringStorageDefaultIcEEEENS_9allocatorIS5_EEEERS5_
fAa:__ZN6prcoreL17RemapGenericFloatI16TexFormatRGFloat17TexFormatRGBAHalfEEvPKNS_9InnerInfoE
rG:__ZN12AudioManager22CreateFMODSoundFromWWWEP10IWWWStream15FMOD_SOUND_TYPE17FMOD_SOUND_FORMATjjbbP10SampleClip
R5b:__ZNK32RendererMaterialAnimationBinding15GenerateBindingERKN4core12basic_stringIcNS0_20StringStorageDefaultIcEEEEbRN11UnityEngine9Animation14GenericBindingE
b3d:_TargetException__ctor_m4172127019
i3g:_List_1_CheckCollection_m274117203_gshared
XRh:__ZL70EventSystem_t1003666588_CustomAttributesCacheGenerator_m_FirstSelectedP21CustomAttributesCache
d_:__ZN8Remapper23GetOrGenerateInstanceIDERK26SerializedObjectIdentifier
B6c:_ColorTween_get_startColor_m3792586410_AdjustorThunk
Ya:invoke_iiiiiifffiiifii
OEg:__Z85RuntimeInvoker_Void_t1185182177_Int32_t2950945753_Int32_t2950945753_Int32_t2950945753PFvvEPK10MethodInfoPvPS4_
RRd:_CustomInfo__ctor_m426096741
s$c:_EventSystem_ToString_m3779610692
e7a:__ZN6Sprite8TransferI24GenerateTypeTreeTransferEEvRT_
pkc:__Z48Register_UnityEngine_Transform_SetAsFirstSiblingv
q1a:__ZNK18DelayedCallManager22GetTypeVirtualInternalEv
h7a:__ZN7SubMesh8TransferI24GenerateTypeTreeTransferEEvRT_
QVi:_NativeTypeAttribute__ctor_m133676646
Jhh:_Collection_1_System_Collections_IList_Contains_m296643274_gshared
xId:_DirectoryInfo__ctor_m126519516
C$d:_MethodBase_GetMethodFromIntPtr_m3014201362
rcc:__ZN9Transform23SetSiblingIndexInternalEib
Qyd:_Enumerator_MoveNext_m635366482
okd:_X509Extension_Equals_m1222951829
uu:__ZN7mecanim5human12HumanPoseSubERNS0_9HumanPoseERKS1_S4_
Odj:__ZN6il2cpp8metadata15GenericMetadata15GetGenericClassEiPK17Il2CppGenericInst
Dob:__Z18Transfer_BlittableI14SafeBinaryReadLb0E10Matrix4x4fEvRK29SerializationCommandArgumentsR31RuntimeSerializationCommandInfo
cEb:__Z24GetFixedBehaviourManagerv
LTi:__ZN6il2cpp2vm10ThreadPool4WaitEP17Il2CppAsyncResultPPv
J$e:_Text_UpdateGeometry_m3634850647
hoi:_X509Crl_VerifySignature_m1377612461
Yuj:_vfprintf
hnc:__ZN10GUIManager12AddGUIScriptER8ListNodeI13MonoBehaviourE
dzd:_Stack_Clear_m2010200235
myc:_cf2_getVStore
i1c:_PointerEventData_set_pointerPressRaycast_m1363193059
aOb:__ZN20DynamicPropertySheetD0Ev
r5d:_SafeHandle_Dispose_m4229010569
q_b:__ZN14SafeBinaryRead17RegisterConverterEPKcS1_PFbPvRS_E
CKh:__ZL77RuntimePlatform_t4159857903_CustomAttributesCacheGenerator_OSXDashboardPlayerP21CustomAttributesCache
o8:__ZN35RegisterRuntimeInitializeAndCleanup8RegisterEPFvPvES2_iS0_
Nli:_SubjectAltNameExtension_get_IPAddresses_m1641002124
IXd:_FieldBuilder_SetValue_m828035213
oQf:_Array_InternalArray__Insert_TisSingle_t1397266774_m3161726127_gshared
tkc:__Z21Object_CUSTOM_DestroyP12Il2CppObjectf
hoa:__ZN8Material26ResetAllCachedMaterialDataEP6Shader
JLg:__Z63RuntimeInvoker_Void_t1185182177_RuntimeObject_Int16_t2552820387PFvvEPK10MethodInfoPvPS4_
QGc:_UNITY_TT_Get_MM_Var
oOe:_ObjectManager_AddFixup_m2154325362
Hue:_Comparer_1__cctor_m3761458313_gshared
swf:_DateTimeOffset_CompareTo_m1350732322_AdjustorThunk
aa:invoke_diddi
POc:__ZNK2UI6Canvas13GetRenderModeEv
Wmg:_PersistentCall__ctor_m1217622171
sLf:_Array_compare_TisCustomAttributeTypedArgument_t2723150157_m1384644047_gshared
f7e:_StrongName_get_TokenAlgorithm_m1794722022
Onb:__Z18Transfer_BlittableI14SafeBinaryReadLb0EiEvRK29SerializationCommandArgumentsR31RuntimeSerializationCommandInfo
xSi:__ZN6il2cpp2vm13MetadataCache30GetPropertyDefinitionFromIndexEi
Yxi:_SymmetricTransform_Transform_m1683494363
LVc:__ZN22BaseUnityConnectClient17InitializeSessionERKN4core12basic_stringIcNS0_20StringStorageDefaultIcEEEES6_N19CloudServiceHandler13InitModeFlagsE
BRg:__Z74RuntimeInvoker_RuntimeObject_Int32_t2950945753_RuntimeObject_RuntimeObjectPFvvEPK10MethodInfoPvPS4_
c9g:_List_1_get_Item_m200663048_gshared
GFj:_emscripten_glDeleteBuffers__wrapper
Udc:__ZN13MonoBehaviour34StopCoroutineFromEnumeratorManagedE18ScriptingObjectPtr
kig:_Application_set_targetFrameRate_m3682352535
xzg:_Vector3__ctor_m1719387948_AdjustorThunk
dgb:__ZN30RuntimeInitializeOnLoadManager8TransferI18StreamedBinaryReadILb0EEEEvRT_
Evf:_DateTimeOffset__ctor_m2084804982
dDc:_UNITY_tt_face_load_pclt
odc:__ZL34GetComponentsImplementationRecurseILb1ELi0ELi2EEbR10GameObjectbRK17CompareParametersRK39GetComponentsImplementation_ReturnValue
mpg:_Material_GetTexture_m3545614349
ACg:__Z64RuntimeInvoker_RuntimeObject_Int32_t2950945753_Int16_t2552820387PFvvEPK10MethodInfoPvPS4_
NWf:_EqualityComparer_1__cctor_m4244842342_gshared
xNb:__ZNK6Camera18WorldToScreenPointERK8Vector3fPb
vwg:_SendMouseEvents_DoSendMouseEvents_m2140870850
Vpi:_PatternCompiler_EmitJump_m3915926156
KCa:__Z18IsCompressedFormat14GraphicsFormat
Pu:__ZN7mecanim9animation19AdjustPoseForMotionERKNS0_14AvatarConstantERKNS0_14SkeletonTQSMapERKN4math4trsXERNS_10ValueArrayERNS_8skeleton13SkeletonPoseTIS8_EESG_
Tbg:__Z33il2cpp_codegen_check_add_overflowxx
fZ:__ZNSt3__227__insertion_sort_incompleteIRPFbRKN18AwakeFromLoadQueue4ItemES4_EPS2_EEbT0_S9_T_
KKh:__ZL73RuntimePlatform_t4159857903_CustomAttributesCacheGenerator_MetroPlayerARMP21CustomAttributesCache
QHd:_InvalidOperationException__ctor_m1685032583
xQi:__ZN14dense_hash_mapI10KeyWrapperIN6il2cpp5utils13dynamic_arrayIPK10Il2CppTypeLj4EEEEPFvvENS1_8metadata19Il2CppSignatureHashENS8_14EqualsComparerINSB_22Il2CppSignatureCompareEEENSt3__29allocatorINSG_4pairIKS8_SA_EEEEE15set_deleted_keyERSJ_
zcg:_TimeSpan_op_Subtraction_m3592306516
LYf:_EqualityComparer_1_System_Collections_IEqualityComparer_GetHashCode_m1517903420_gshared
G4a:__ZN26EnlightenSystemInformation8TransferI14SafeBinaryReadEEvRT_
ifb:__ZN24GenerateTypeTreeTransfer8TransferINSt3__26vectorIN15ResourceManager10DependencyE13stl_allocatorIS4_L18MemLabelIdentifier52ELi16EEEEEEvRT_PKc17TransferMetaFlags
OIi:_CanvasRenderer_SplitUIVertexStreams_m2753637362
ZSg:__Z119RuntimeInvoker_Void_t1185182177_RuntimeObject_Single_t1397266774_Single_t1397266774_SByte_t1669577662_Int32_t2950945753PFvvEPK10MethodInfoPvPS4_
_Wc:__ZN11UnityEngine15PlatformWrapper20SetPlayerPrefsUInt64ERKN4core12basic_stringIcNS1_20StringStorageDefaultIcEEEEy
vbb:__ZN12MeshRendererD0Ev
GP:__ZN12AudioManager35GetCurrentSpatializerDefinitionNameEv
zh:_utime
nsi:_BalancingGroup_Compile_m2575117193
GB:__Z28SetExposedSkeletonTransformsRKN7mecanim9animation14AvatarConstantERKN11UnityEngine9Animation30AnimatorGenericBindingConstantERKNS_8skeleton13SkeletonPoseTIN4math4trsXEEERKNSA_INSB_7affineXEEERNS5_21AvatarBindingConstantEy
OXi:__ZNSt3__26vectorIN6il2cpp2vm17TypeNameParseInfoENS_9allocatorIS3_EEE8allocateEj
Qoi:_Mark_get_Index_m3048692661_AdjustorThunk
qn:FUNCTION_TABLE_viiiiif
lue:_DefaultComparer_Compare_m3931992727_gshared
vn:FUNCTION_TABLE_viiiiii
hte:_InternalEnumerator_1_System_Collections_IEnumerator_get_Current_m1847780851_AdjustorThunk
Owi:_GUILayoutUtility_get_spaceStyle_m3392862907
EFd:_Int32_System_IConvertible_ToType_m3009233912_AdjustorThunk
Fvf:_DateTimeOffset__ctor_m74032857
gD:__ZN7mecanim9animation22DestroyAvatarWorkspaceEPNS0_15AvatarWorkspaceERNS_6memory9AllocatorE
sdg:_Type_type_is_assignable_from_m76737532
xUb:__ZN15LightmapSTCacheC2ER13BatchRendererR15RenderLoopStats
j1a:__ZN14PlayableOutput17SetSourcePlayableEP8Playable
wC:__ZN7mecanim9animation29MotionOutputGetDeltaTransformEPKNS0_12MotionOutputE
Cbi:_ReadOnlyCollection_1_System_Collections_Generic_ICollectionU3CTU3E_Add_m2369252587_gshared
Ojc:__Z43Transform_CUSTOM_INTERNAL_get_localRotationP12Il2CppObjectP11Quaternionf
AEf:_CultureInfo_get_Parent_m672689885
Rpj:__ZN6il2cpp6icalls8mscorlib6System10Reflection4Emit13ModuleBuilder13RegisterTokenEP29Il2CppReflectionModuleBuilderP12Il2CppObjecti
MDj:_glGetShaderInfoLog__wrapper
ZNe:_ObjectReader_ReadObjectGraph_m340866276
ci:_emscripten_glGetTexParameteriv
_Sc:__ZN11UnityEngine7Connect15DeviceInfoEvent7GFXInfoD2Ev
hFj:_glGenTextures__wrapper
$ia:__ZN9ShaderLab20SerializedSubProgram14ConstantBufferaSERKS1_
z2b:__Z13RegisterClassI4MeshEvv
RNh:__ZL74SharedBetweenAnimatorsAttribute_t2857104338_CustomAttributesCacheGeneratorP21CustomAttributesCache
I_a:__ZN8PlayableD0Ev
wg:emscriptenWebGLGetBufferBinding
WH:__ZN12AudioManager8TransferI19StreamedBinaryWriteILb0EEEEvRT_
d_e:_Slider_UpdateCachedReferences_m3259451627
Vge:_SslStreamBase_get_KeyExchangeStrength_m217695965
dKg:__Z50RuntimeInvoker_Double_t594665363_Double_t594665363PFvvEPK10MethodInfoPvPS4_
Kzb:__ZN18StreamedBinaryReadILb1EE21TransferSTLStyleArrayI13dynamic_arrayI11ColorRGBA32Lj4EEEEvRT_17TransferMetaFlags
A6i:__ZN15dense_hashtableINSt3__24pairIK10KeyWrapperINS1_IP11Il2CppClassjEEES4_EES6_N6il2cpp8metadata14ArrayClassHashEN14dense_hash_mapIS6_S4_SB_NS6_14EqualsComparerINSA_17ArrayClassCompareEEENS0_9allocatorIS8_EEE9SelectKeyESF_SH_E6insertERKS8_
a9c:_U3CShowU3Ec__AnonStorey1_U3CU3Em__0_m2340880019
ali:_TlsStream_Flush_m3793197834
qlb:__ZN22LocalFileSystemHandler9MakeLocalER13FileEntryDatab
nlj:__ZN6il2cpp2vm8Profiler10AllocationEP12Il2CppObjectP11Il2CppClass
nVh:__ZL61Graphic_t1660335611_CustomAttributesCacheGenerator_m_MaterialP21CustomAttributesCache
lLc:__ZNSt3__23mapIN20TextRenderingPrivate7FontRefENS1_6OSFontENS_4lessIS2_EENS_9allocatorINS_4pairIKS2_S3_EEEEEixERS8_
oga:__Z13FormatOrderedPKcz
kVi:__ZN6il2cpp2vm8basepathEPKc
Sdf:_X509Chain_GetAuthorityKeyIdentifier_m614536199
LIc:__ZN14SafeBinaryRead21TransferSTLStyleArrayI10vector_mapINSt3__24pairIttEEfN20TextRenderingPrivate8FontImpl14KerningCompareENS2_9allocatorINS3_IS4_fEEEEEEEvRT_17TransferMetaFlags
mce:_TlsServerFinished__ctor_m1445633918
$Dd:_NumberFormatter_FastIntegerToString_m390846811
LKh:__ZL68RuntimePlatform_t4159857903_CustomAttributesCacheGenerator_WP8PlayerP21CustomAttributesCache
iUb:__ZN25DeferredRenderLoopScratchD0Ev
Sw:__ZN27AnimationLayerMixerPlayable14SetInputWeightEif
N0c:_PhysicsRaycaster_Raycast_m776323695
Syg:_UnityException__ctor_m1456865679
qu:__ZN7mecanim9animation17EvaluateHumanPoseERKNS0_18ClipMuscleConstantERKNS0_15ClipMuscleInputEPKfRKNS0_12MotionOutputERNS_5human9HumanPoseE
jia:__ZN15dense_hashtableINSt3__24pairIKiN4core17string_with_labelILi1EEEEEi18SInt32HashFunctionN14dense_hash_mapIiS5_S7_NS0_8equal_toIiEE13stl_allocatorIS6_L18MemLabelIdentifier1ELi16EEE9SelectKeyESA_SD_E9copy_fromERKSG_j
AUd:_CustomAttributeNamedArgument_GetHashCode_m2317130892
Feb:__ZN15ResourceManagerD0Ev
BMe:_WellKnownClientTypeEntry_ToString_m1119458503
x4:__ZN22CreateGpuProgramOutputD2Ev
f8g:_List_1_get_Item_m1378751541_gshared
Ijf:_SHA1CryptoServiceProvider_Finalize_m1793183797
q_f:_HashSet_1_System_Collections_Generic_ICollectionU3CTU3E_CopyTo_m408073502_gshared
V8d:_EncryptedPrivateKeyInfo_get_EncryptedData_m491452551
Bkb:__ZN12HandlerChain4OpenER13FileEntryData14FilePermission16FileAutoBehavior
SYg:__Z72RuntimeInvoker_Void_t1185182177_Int32_t2950945753_RaycastHit_t1056001966PFvvEPK10MethodInfoPvPS4_
u_i:__ZN15dense_hashtableINSt3__24pairIK10KeyWrapperINS1_IPK10MethodInfoP11Il2CppClassEEEjEES9_17ReflectionMapHashIS8_EN14dense_hash_mapIS9_jSD_NS9_14EqualsComparerINS0_8equal_toIS8_EEEENS0_9allocatorISB_EEE9SelectKeyESI_SK_E6insertERKSB_
V8f:_UTF8Encoding_GetCharCount_m2272165989
wnd:_Array_SetValue_m394135409
b1:__ZN14FileCacherReadD2Ev
Dhb:__ZN13RendererScene23UpdatePreviousFrameDataEii
Xqf:_String_Remove_m562998446
Mfc:__Z50Register_UnityEngine_CullingGroup_FinalizerFailurev
vmf:_SecurityPermission_IsSubsetOf_m545000671
lib:__ZN27UnloadUnusedAssetsOperationD0Ev
EPb:__ZN28LightProbeProxyVolumeContextC2E10MemLabelId
Ixj:__ZNKSt3__221__basic_string_commonILb1EE20__throw_out_of_rangeEv
xlg:_Cursor_get_lockState_m2828192107
xWi:_UpdatedEventHandler_Invoke_m1320302085
JF:__ZN9AudioClip23VirtualRedirectTransferER18StreamedBinaryReadILb0EE
D8g:_List_1_AddEnumerable_m2724989594_gshared
$Rg:__Z82RuntimeInvoker_Vector2_t2156229523_Vector2_t2156229523_RuntimeObject_RuntimeObjectPFvvEPK10MethodInfoPvPS4_
rHa:__ZN18GlslGpuProgramGLESC2ERK13dynamic_arrayIhLj1EER22CreateGpuProgramOutput
ulc:__Z70Register_UnityEngine_Playables_PlayableHandle_GetPlayableType_Injectedv
O7d:_ARC4Managed_TransformBlock_m1687647868
Ej:_glCopyTexSubImage2D
Xyg:_UnitySynchronizationContext_ExecuteTasks_m1310741010
oif:_RIPEMD160Managed_CompressFinal_m497690796
GZb:__ZN18ScreenManagerWebGL13SetShowCursorEb
DJb:__ZN13DrawImmediateC2ER9GfxDevice
hvj:_frexp
zob:__Z18Transfer_BlittableI14SafeBinaryReadLb0E5RectTIfEEvRK29SerializationCommandArgumentsR31RuntimeSerializationCommandInfo
$Gd:_NumberFormatter_NumberToString_m2562899600
QBc:_otv_u_C_x_Ox
Xwa:__ZN18AsyncUploadManager19AsyncResourceUploadER9GfxDeviceii9TextureID
hua:__ZN14GfxContextGLES14GetFramebufferEv
XFj:_emscripten_glGenVertexArrays__wrapper
Dhg:_Version_Clone_m1749041863
Sya:__ZN6prcoreL21CreateRemapAnyBlitterE13TextureFormatS0_
r9d:_RSAManaged_ExportParameters_m1754454264
wbc:__ZN17AnimationCurveTplIfE16StripInvalidKeysEv
oqd:_Boolean_Equals_m535526264_AdjustorThunk
WOc:__ZNK2UI6Canvas17GetSortingLayerIDEv
L4i:_il2cpp_method_has_attribute
r2b:__Z13RegisterClassI17GlobalGameManagerEvv
p6:__ZN8Renderer24SetupNewRendererForSceneEv
ndg:_Type_internal_from_name_m1721940673
ACf:_Environment_get_TickCount_m2088073110
wJe:_RemotingServices_GetMethodBaseFromName_m3194612939
Ptc:__Z35Transfer_Blittable_FixedBufferFieldI8JSONReadtEvRK29SerializationCommandArgumentsR31RuntimeSerializationCommandInfo
G8b:__ZN14PlayableOutput6HandleEv
D6a:__ZNK6Sprite22GetTypeVirtualInternalEv
sZc:__ZN13RuntimeStaticINSt3__26vectorI23UnityVRDeviceDefinition13stl_allocatorIS2_L18MemLabelIdentifier90ELi16EEEELb0EE13StaticDestroyEPv
pn:FUNCTION_TABLE_iiiiiiiiiiiiii
HCc:_UNITY_tt_get_cmap_info
lvb:__Z29Transfer_Blittable_ArrayFieldI24GenerateTypeTreeTransfer5RectTIiEEvRT_R9ArrayInfoRK23StaticTransferFieldInfo
LXa:__ZN16ReflectionProbes8ScheduleEN18ReflectionProbeJob7JobTypeEP15ReflectionProbei
qce:_ClientSessionInfo_KeepAlive_m1020179566
ePc:__ZN13dynamic_arrayIN2UI13UIInstructionELj4EE12emplace_backEv
lMa:__Z18IsDirectoryCreatedRKN4core12basic_stringIcNS_20StringStorageDefaultIcEEEE
imf:_String_FormatHelper_m3913915042
VNc:__ZN2UI13CanvasManagerD2Ev
fUd:_ConstructorInfo__cctor_m1016079270
INi:__ZN15dense_hashtableINSt3__24pairIK10KeyWrapperIPKcEP11Il2CppClassEES5_N6il2cpp5utils11StringUtils12StringHasherIS4_EEN14dense_hash_mapIS5_S8_SE_NS5_14EqualsComparerINSB_13VmStringUtils21CaseSensitiveComparerEEENS0_9allocatorIS9_EEE9SelectKeyESJ_SL_E15set_deleted_keyERKS9_
uld:_AttrListImpl_get_Names_m977594476
OKc:_UNITY_FT_GlyphLoader_Done
V2d:_Pointer_Box_m389276611
oAf:_StackTrace_get_FrameCount_m344690939
iOd:_UnexceptionalStreamWriter_Write_m363195622
jLc:__ZN20TextRenderingPrivate25ReadFontFileAndAddToCacheERKN4core12basic_stringIcNS0_20StringStorageDefaultIcEEEE
IDc:_tt_cmap14_char_var_index
OQe:_Selectable_OnPointerDown_m1086067264
THc:_psh_globals_new
u8c:_Dropdown_SetupTemplate_m628218778
m9f:_Thread_GetCompressedStack_m2923422412
evd:_SynchronizedArrayListWrapper_CopyTo_m4207791406
fcf:_X509BasicConstraintsExtension_ToString_m1809935297
Goa:__ZN9GfxDevice20SetMaxBufferedFramesEi
Uii:_TweenRunner_1_StartTween_m1055628540_gshared
R6h:_ReadOnlyCollection_1_System_Collections_IList_Remove_m4129318771_gshared
_1h:_GameObject_GetComponents_TisRuntimeObject_m1246177135_gshared
_zj:dynCall_vdd
TOd:_MethodAccessException__ctor_m3542088436
L$b:__Z23ConvertIntegerToTypePtrIsEbPvR14SafeBinaryRead
aWf:_EqualityComparer_1_System_Collections_IEqualityComparer_GetHashCode_m2230215241_gshared
BYh:__ZL60ContentSizeFitter_t3850442145_CustomAttributesCacheGeneratorP21CustomAttributesCache
mxd:_Hashtable_Contains_m2145146412
pFh:__ZL64UnmarshalledAttribute_t1517743549_CustomAttributesCacheGeneratorP21CustomAttributesCache
Cac:__ZN4Mesh24UpdateSubMeshVertexRangeEi
QDd:_Int32_FindCurrency_m3541026887
Whf:_Interval_CompareTo_m3282557545
VGj:_pthread_cond_wait__wrapper
vTb:__ZNK14RenderSettings19GetFlatAmbientColorEv
sya:__ZN6prcoreL10inner_flipILj4EEEvPhS1_j
ndb:__ZN18StreamedBinaryReadILb0EE21TransferSTLStyleArrayI10vector_mapIPKN5Unity4TypeE7Hash128NSt3__24lessIS6_EENS8_9allocatorINS8_4pairIS6_S7_EEEEEEEvRT_17TransferMetaFlags
Py:__ZNK27StateMachineBehaviourPlayer15IsSenderEnabledEv
Uid:_RijndaelManagedTransform_TransformBlock_m1610137419
kkc:__Z40Register_UnityEngine_Transform_SetParentv
s8a:__ZN14Texture2DArray17UploadToGfxDeviceEv
DJ:__Z14FMODMemoryFreePvjPKc
Pmg:_NetFxCoreExtensions_GetMethodInfo_m444570327
ARb:__Z14SetSHConstantsR13BatchRendererR17ShaderPassContextRK20SphericalHarmonicsL2b
Prd:_Char_System_IConvertible_ToDecimal_m3534906463
Tyc:_cf2_glyphpath_moveTo
cxg:_StackTraceUtility_SetProjectFolder_m830524047
qv:__ZN7mecanim23TransformValueArrayLoopEiiiRKN4math4trsXES3_RNS_10ValueArrayEf
Fce:_ClientSessionInfo_Finalize_m2165787049
cnc:__ZN5IMGUI14GUIWindowStateD2Ev
Cbe:_ClientContext_Clear_m1774063253
Oac:__ZN4Mesh17SetIndicesComplexEPKvjj16GfxPrimitiveTypeij
Wuf:_DateTime_AddSeconds_m332574389_AdjustorThunk
Lyg:_RequestAtlasCallback_Invoke_m378128467
Xqd:_Byte_System_IConvertible_ToSByte_m1869482168
eIg:__Z99RuntimeInvoker_RuntimeObject_RuntimeObject_RuntimeObject_StreamingContext_t3711869237_RuntimeObjectPFvvEPK10MethodInfoPvPS4_
IB:__ZN7mecanim5human10RetargetToEPKNS0_5HumanEPKNS0_9HumanPoseES6_RKN4math4trsXEPS4_PNS_8skeleton13SkeletonPoseTIS8_EESF_
iv:__ZN7mecanim9animation8SeekClipERKNS0_12StreamedClipERNS0_18StreamedClipMemoryEf
Zng:_GameObject_Internal_AddComponentWithType_m3797731663
km:_emscripten_glIsTexture
Rk:_emscripten_glHint
qyi:_Check_SourceAndPredicate_m2332465641
tRg:__Z67RuntimeInvoker_Boolean_t97287965_TextGenerationSettings_t1351628751PFvvEPK10MethodInfoPvPS4_
CGc:_ft_var_readpackeddeltas
znf:_String_op_Inequality_m215368492
pyb:__Z35Transfer_Blittable_FixedBufferFieldI18StreamedBinaryReadILb1EEtEvRK29SerializationCommandArgumentsR31RuntimeSerializationCommandInfo
vfg:_UInt32_System_IConvertible_ToInt64_m2261037378
nm:_SDL_UpperBlit
HXa:__Z35GetTextureDecodeValuesWithIntensity16TextureUsageMode17TextureColorSpace10ColorSpacef
rIf:_Array_InternalArray__ICollection_Remove_TisChar_t3634460470_m4143749387_gshared
RJb:__ZN15dense_hashtableINSt3__24pairIK9TextureIDiEES2_14GfxGenericHashIS2_EN14GfxDoubleCacheIS2_iS6_NS0_8equal_toIS2_EEN31GfxDoubleCacheConcurrencyPolicy11LocklessGetE42GfxDoubleCacheDefaultEmptyDeletedGeneratorIS2_EE9SelectKeyES9_13stl_allocatorIS4_L18MemLabelIdentifier24ELi16EEE14squash_deletedEv
O2i:__ZN15dense_hashtableINSt3__24pairIK10KeyWrapperINS1_IPK9EventInfoP11Il2CppClassEEEjEES9_17ReflectionMapHashIS8_EN14dense_hash_mapIS9_jSD_NS9_14EqualsComparerINS0_8equal_toIS8_EEEENS0_9allocatorISB_EEE9SelectKeyESI_SK_E15set_deleted_keyERKSB_
R5f:_Encoding_GetBytes_m3823106599
ouf:_GregorianCalendar__ctor_m979779718
Ufe:_SslClientStream__ctor_m2402546929
kEb:__ZN14SafeBinaryRead20OverrideRootTypeNameEPKc
t8e:_DictionaryNodeEnumerator_get_Entry_m2309234501
f1:__ZN14FileCacherRead16UnlockCacheBlockEj
t9:__ZN10InstancingL21OnGraphicsCapsChangedEv
mbg:_WaitHandle_get_Handle_m3260446580
D1f:_Enumerator_VerifyState_m1745883925_AdjustorThunk
Jc:_emscripten_glUniform1f
jyd:_SortedList__ctor_m1261191695
rLc:__Z20ParseImageParametersR11UTF16StringRiRN20TextRenderingPrivate16TextFormatChangeE
qYh:__ZL55CanvasScaler_t2767979955_CustomAttributesCacheGeneratorP21CustomAttributesCache
Oc:_emscripten_glUniform1i
Jtb:__Z18Transfer_BlittableI24GenerateTypeTreeTransferLb1EN4math12int3_storageEEvRK29SerializationCommandArgumentsR31RuntimeSerializationCommandInfo
GWe:__Z14bankers_roundff
dka:__ZN9ShaderLab16SerializedTagMapaSERKS0_
fS:__ZN11UnityEngine15CloudWebService16SessionContainer20RestoreSessionHeaderERKN4core12basic_stringIcNS2_20StringStorageDefaultIcEEEES8_RNS0_13SessionHeaderE
Hrj:__ZN6il2cpp2os12Cryptography23GetCryptographyProviderEv
WC:__ZN11UnityEngine9Animation27CreateAvatarBindingConstantER9TransformPKN7mecanim9animation14AvatarConstantERNS3_6memory9AllocatorE
vPc:__ZN2UI14CanvasRenderer13SyncTransformENS0_8SyncFlagEb
uHg:__Z151RuntimeInvoker_RuntimeObject_Int32_t2950945753_RuntimeObject_ObjectU5BU5DU26_t712384779_RuntimeObject_RuntimeObject_RuntimeObject_ObjectU26_t2146539884PFvvEPK10MethodInfoPvPS4_
gec:__ZN9BlobWriteC2ER13dynamic_arrayIhLj16EE24TransferInstructionFlags19BuildTargetPlatform
e5c:_CanvasUpdateRegistry__ctor_m2005397069
t$:__ZN14MessageHandler3GetEv
r0d:_MonoMethodInfo_GetCallingConvention_m3156036493
hTe:_LayoutGroup_SetLayoutInputForAxis_m2458344630
ad:_emscripten_glAttachShader
Foa:__ZN9GfxDevice13SetActiveTierE12GraphicsTier
Wcd:_Image__cctor_m1927508576
vka:__ZNSt3__26vectorIN4core12basic_stringIcNS1_20StringStorageDefaultIcEEEENS_9allocatorIS5_EEE6assignIPS5_EENS_9enable_ifIXaasr21__is_forward_iteratorIT_EE5valuesr16is_constructibleIS5_NS_15iterator_traitsISC_E9referenceEEE5valueEvE4typeESC_SC_
Erj:__ZN6il2cpp6icalls8mscorlib6System21CurrentSystemTimeZone15GetTimeZoneDataEiPP11Il2CppArrayS6_
gob:__Z18Transfer_BlittableI14SafeBinaryReadLb0E11QuaternionfEvRK29SerializationCommandArgumentsR31RuntimeSerializationCommandInfo
vBb:__Z18Transfer_BlittableI18StreamedBinaryReadILb0EELb1E12PropertyNameEvRK29SerializationCommandArgumentsR31RuntimeSerializationCommandInfo
KW:_tlsf_walk_heap
jHg:__Z49RuntimeInvoker_Void_t1185182177_OpCode_t123070264PFvvEPK10MethodInfoPvPS4_
pCd:_Convert_ToUInt32_m3592050311
jb:invoke_vif
P1h:_Component_GetComponents_TisRuntimeObject_m2416546752_gshared
kb:invoke_vid
_xj:__ZNSt3__212basic_stringIcNS_11char_traitsIcEENS_9allocatorIcEEE6insertEjPKc
lb:invoke_vii
YMb:__ZNK12ImageFilters8DoRenderER17ShaderPassContextP13RenderTextureS3_RKNSt3__26vectorI11ImageFilterNS4_9allocatorIS6_EEEE
_Ka:__ZN12TLSAllocatorI14StackAllocatorE16ThreadInitializeEP13BaseAllocator
JIg:__Z82RuntimeInvoker_Boolean_t97287965_SByte_t1669577662_RuntimeObject_SByte_t1669577662PFvvEPK10MethodInfoPvPS4_
epa:__ZN9GfxDevice32UpdateStereoViewProjectionMatrixE21MonoOrStereoscopicEye
WQc:__Z41CanvasRenderer_CUSTOM_DisableRectClippingP12Il2CppObject
cQd:_MonoType_GetConstructorImpl_m441167626
C7c:_DefaultControls_CreateRawImage_m4219873755
odh:_Collection_1_IsFixedSize_m3709118201_gshared
hPa:__ZN25SingleBlockMemoryFileDataD0Ev
fLa:__ZNSt3__26vectorI14ConstantStringNS_9allocatorIS1_EEE6assignINS_11__wrap_iterIPS1_EEEENS_9enable_ifIXaasr21__is_forward_iteratorIT_EE5valuesr16is_constructibleIS1_NS_15iterator_traitsISA_E9referenceEEE5valueEvE4typeESA_SA_
aS:__ZN11UnityEngine15CloudWebService16SessionContainer21ConvertFromFolderTimeERKN4core12basic_stringIcNS2_20StringStorageDefaultIcEEEEPjPt
lfd:_CodeAccessPermission_Equals_m1555575992
Tpb:__ZNSt3__26vectorI8GUIStyle13stl_allocatorIS1_L18MemLabelIdentifier1ELi16EEE7reserveEj
F8i:__ZN6il2cpp6icalls8mscorlib6System9Threading6Thread27GetSerializedCurrentCultureEP12Il2CppThread
ade:_Context_set_ReadSequenceNumber_m2154909392
Pid:_RijndaelTransform_SubByte_m3037693507
b1b:__Z31CalculateHierarchyTransformType23TransformAccessReadOnly
N2b:__Z13RegisterClassI11TimeManagerEvv
uJ:__ZN4FMOD8ChannelI11setPositionEjj
Dog:_Input_INTERNAL_CALL_GetTouch_m3481893561
Anj:_GC_set_fl_marks
Kfb:__ZNSt3__26vectorIN30RuntimeInitializeOnLoadManager15ClassMethodInfoE13stl_allocatorIS2_L18MemLabelIdentifier13ELi16EEE7reserveEj
hpa:__ZN9GfxDevice17SetStereoViewportE15StereoscopicEyeRK5RectTIiE
Lfa:__ZN17BaseObjectManager13StaticDestroyEPv
ZKa:__ZNK12TLSAllocatorI14StackAllocatorE24GetBookKeepingMemorySizeEv
zIi:_CanvasRenderer_INTERNAL_CALL_GetColor_m597074473
Tue:_Comparer_1__cctor_m3891417387_gshared
G8f:_UTF7Decoder_GetChars_m3413809261
ZWd:_EnumBuilder_GetEvent_m4074915332
yh:_sysconf
jyg:_Vector3_get_forward_m3100859705
eBf:_Double_Equals_m2309369974_AdjustorThunk
mI:__ZN4FMOD6Reverb13setPropertiesEPK22FMOD_REVERB_PROPERTIES
JOb:__ZN9DepthPass13PrepareSubsetEjRK10RenderNodeifRK17ShaderReplaceData
hqf:_String_IndexOf_m3406607758
ija:__ZN9ShaderLab20SerializedSubProgram16TextureParameter8TransferI14SafeBinaryReadEEvRT_
Vac:__Z35SetMeshComponentFromArrayFromScriptR4Mesh30InternalScriptingShaderChannel34InternalScriptingVertexChannelTypei17ScriptingArrayPtri
TNf:_Array_InternalArray__ICollection_Add_TisCustomAttributeNamedArgument_t287865710_m4157175270_gshared
fq:__ZN4core20StringStorageDefaultIcE6assignEPKcj
Agg:_UInt64_System_IConvertible_ToUInt64_m2135047981_AdjustorThunk
w6d:_BigInteger_ModPow_m3776562770
_ej:__ZN15dense_hashtableINSt3__24pairIK10KeyWrapperIP12Il2CppObjectEN6il2cpp2gc9CachedCCWEEES5_NS7_5utils11PointerHashIS3_EEN14dense_hash_mapIS5_S9_SD_NS5_14EqualsComparerINS0_8equal_toIS4_EEEENS0_9allocatorISA_EEE9SelectKeyESI_SK_E3endEv
$ee:_RecordProtocol_ProcessChangeCipherSpec_m15839975
rtd:_ArrayList_IndexOf_m305368842
KXb:__ZN6Camera6SetFarEf
TMe:_FormatterConverter_ToBoolean_m1680758923
Iza:__ZN6prcoreL12RemapGenericI17TexFormatABGR888817TexFormatARGB8888EEvPKNS_9InnerInfoE
bQa:__ZN11GameManager17MainThreadCleanupEv
T4h:_ReadOnlyCollection_1__ctor_m1345363288_gshared
BSc:__Z50Register_UnityEngine_UISystemProfilerApi_EndSamplev
Hb:invoke_vffff
SNe:_SerializationCallbacks_GetSerializationCallbacks_m2939476649
Uwd:_Hashtable__cctor_m4112166779
lFc:_UNITY_tt_slot_init
SKb:__ZZ23InitPlayerLoopCallbacksvEN41PostLateUpdateUpdateResolutionRegistrator7ForwardEv
gDb:__Z25scripting_array_class_get17ScriptingClassPtrj
Rrc:__ZL22Transfer_ManagedObjectI9JSONWriteLb1EEvRK29SerializationCommandArgumentsR31RuntimeSerializationCommandInfo
rF:__ZNK10SampleClip22GetTypeVirtualInternalEv
qqa:__ZN9GfxDevice20DestroyRenderSurfaceER12ObjectHandleI17RenderSurface_TagP17RenderSurfaceBaseE
Zyd:_Stack__ctor_m2602729586
wJa:__ZN9GfxDevice22UpdateComputeResourcesEjPK9TextureIDPK16TextureDimensionPKijPKjjPK15ComputeBufferIDS7_PK20ComputeBufferCounterjSC_S2_S5_S9_SF_
W1:__ZN12_GLOBAL__N_15qAsinEff
tle:_InternalEnumerator_1_System_Collections_IEnumerator_get_Current_m2629988057_AdjustorThunk
$Ka:__ZN12TLSAllocatorI14StackAllocatorE13ThreadCleanupEv
hlj:__ZThn4_N6il2cpp2vm13ComObjectBase16MarshalInterfaceEP13Il2CppIStreamRK10Il2CppGuidPvjS7_j
LAd:_Convert_ToDouble_m996590115
UFb:__Z27FindActiveTransformWithPathPKc
b9h:_ReadOnlyCollection_1_System_Collections_IList_Remove_m4169110229_gshared
$eg:_UInt16_ToString_m3020002356
FTe:_LayoutRebuilder_LayoutComplete_m68578143
Awi:_GUIStyle_get_fixedWidth_m2576616348
zyd:_SortedList_Find_m3363512987
pY:__ZNK6Camera7GetNearEv
PXd:_GenericTypeParameterBuilder_GetConstructorImpl_m863833310
DCa:__ZN7ApiGLES11UnmapBufferEjN2gl12BufferTargetE
vlj:__ZN6il2cpp5utilsL24Utf32CharToSurrogatePairEjRA2_Ds
l3a:__Z25GetNextAllowedTextureSizeib13TextureFormat
MFb:__ZN20LocalFileSystemWebGL4CopyER13FileEntryDataS1_
JU:__ZN19CloudServiceHandler6RetainEv
J5h:_ReadOnlyCollection_1_System_Collections_IList_IndexOf_m198887188_gshared
Nnc:__Z36Event_CUSTOM_Internal_SetNativeEventPv
Y7f:_UTF32Encoding_GetBytes_m3180303867
E3:__ZN12BaseRenderer20FlattenToRenderQueueER15RenderNodeQueueRK20DeprecatedSourceData
p7h:_ReadOnlyCollection_1_System_Collections_IList_Clear_m2007013334_gshared
Aib:__Z34scripting_liveness_calculation_endPv
Ugj:__ZN6il2cpp2os6ThreadC2Ev
Hwf:_DateTimeOffset_get_UtcDateTime_m1021718282_AdjustorThunk
Fu:__ZN21AnimationClipPlayable22ProcessAnimationNoClipEPK35AnimationPlayableEvaluationConstantPK32AnimationPlayableEvaluationInputP33AnimationPlayableEvaluationOutput
R7e:_HybridDictionary_get_Count_m1166314536
Xki:_TlsStream_Write_m1412844442
rtc:__Z18Transfer_BlittableI8JSONReadLb0E8Vector3fEvRK29SerializationCommandArgumentsR31RuntimeSerializationCommandInfo
X6i:__ZN6il2cpp2vm6Thread6DetachEP12Il2CppThread
yli:_GeneralNames_get_DNSNames_m3788548987
vwc:__GLOBAL__sub_I_runtime_dynamics_2_cpp
oHi:_Hacker_OnUserInput_m1095014035
aD:__ZN7mecanim8skeleton30SkeletonBuildReverseIndexArrayEPiPKiPKNS0_8SkeletonES6_
Slc:__Z19GetGUIBlendMaterialv
JOd:_Math_Round_m3018379666
Jhj:__ZN6il2cpp2os10ThreadImpl5SleepEjb
L5h:_ReadOnlyCollection_1_System_Collections_IList_Remove_m1965826685_gshared
Jzf:_Delegate_CreateDelegate_m1051651521
yJf:_PlayableHandle_IsPlayableOfType_TisRuntimeObject_m503495943_AdjustorThunk
xFj:_glBindSampler__wrapper
VPa:__ZNSt3__26vectorIN20ArchiveStorageHeader12StorageBlockE13stl_allocatorIS2_L18MemLabelIdentifier55ELi16EEE8__appendEj
Hf:_emscripten_set_mouseup_callback
Npg:_Mathf_Clamp_m3350697880
WIg:__Z165RuntimeInvoker_Void_t1185182177_UInt32U26_t3735378166_Int32_t2950945753_UInt32U26_t3735378166_Int32_t2950945753_Int32_t2950945753_Int32_t2950945753_Int32_t2950945753PFvvEPK10MethodInfoPvPS4_
v3f:_List_1_System_Collections_IList_Remove_m3140917266_gshared
Fqi:_CompositeExpression__ctor_m2434860303
hff:_X509ChainElementCollection_System_Collections_IEnumerable_GetEnumerator_m3829089536
KZb:__ZNK18ScreenManagerWebGL8GetWidthEv
oF:__ZN10SampleClipD2Ev
Jei:_Predicate_1_Invoke_m2389850270_gshared
Vhb:__Z13GetGISettingsv
tU:__ZN11UnityEngine15CloudWebService20WebRequestRestClientC2Ev
EAc:_cff_cmap_unicode_init
EHf:_Array_InternalArray__ICollection_Contains_TisRuntimeObject_m4067783231_gshared
Rbh:_Collection_1_IsValidItem_m3080586124_gshared
G5c:_ClipperRegistry_Register_m2407166513
Awj:_readlink
p0i:__ZN15dense_hashtableINSt3__24pairIK10KeyWrapperINS1_IPK9EventInfoP11Il2CppClassEEEjEES9_17ReflectionMapHashIS8_EN14dense_hash_mapIS9_jSD_NS9_14EqualsComparerINS0_8equal_toIS8_EEEENS0_9allocatorISB_EEE9SelectKeyESI_SK_E12resize_deltaEjj
m0d:_MonoCMethod_Invoke_m2700167622
Qxd:_KeyMarker__cctor_m2590194914
Kwe:_Enumerator_Reset_m627751027_AdjustorThunk
Wbb:__ZNK6Sprite9GetBoundsE8Vector2fbb
rTa:__ZNK19RenderEventsContext21CleanupCommandBuffersEv
OGi:_TextGenerator_PopulateWithErrors_m1222498386
kua:__ZN11ContextGLES6CreateEi
v2g:_List_1_set_Capacity_m3382070520_gshared
dSe:_U3CMouseDragOutsideRectU3Ec__Iterator1_Dispose_m267465418
Hyf:_Decimal_CompareTo_m3502307243_AdjustorThunk
jCb:__Z19TransferField_ArrayI18StreamedBinaryReadILb0EE27Converter_SimpleNativeClassI17AnimationCurveTplIfEEEvRK23StaticTransferFieldInfoR31RuntimeSerializationCommandInfoRT0_
CKa:__ZN14StackAllocator16FrameMaintenanceEb
NMa:__Z18ReadStringFromFilePN4core17string_with_labelILi1EEERKNS_12basic_stringIcNS_20StringStorageDefaultIcEEEE
FWe:_Scrollbar_get_value_m760470106
uY:__ZNK10GameObject20QueryComponentByTypeEPKN5Unity4TypeE
Wxf:_Decimal_System_IConvertible_ToInt32_m1488426794_AdjustorThunk
jPd:_MonoCustomAttrs_IsUserCattrProvider_m2878058089
VVh:__ZL71InputField_t3762917431_CustomAttributesCacheGenerator_m_HideMobileInputP21CustomAttributesCache
x2a:__ZN11TextureData5ResetEv
tgc:__Z53Register_UnityEngine_GameObject_get_activeInHierarchyv
ulf:_ToBase64Transform_InternalTransformFinalBlock_m360524956
Bld:_ActivationContext_Dispose_m2038725770
L_:__ZL30InitializeCoreScriptingClassesv
Eg:_glBlitFramebuffer
A1f:_Enumerator_System_Collections_IEnumerator_get_Current_m3594024719_gshared
Grb:__Z35Transfer_Blittable_SingleValueFieldI14SafeBinaryReadhEvRT_R17GeneralMonoObjectRK23StaticTransferFieldInfo
G9b:__ZN12CachedWriter15CompleteWritingEv
C1a:__ZNK12CubemapArray22GetTypeVirtualInternalEv
Mn:FUNCTION_TABLE_vif
Nn:FUNCTION_TABLE_vid
On:FUNCTION_TABLE_vii
Lib:__Z40scripting_liveness_calculation_from_root18ScriptingObjectPtrPv
z_a:__ZN7Texture23VirtualRedirectTransferER24GenerateTypeTreeTransfer
hKc:_UNITY_FT_Set_Transform
bej:__ZN6il2cpp8metadata15GenericMetadata20RegisterGenericClassEP18Il2CppGenericClass
aFj:_glDeleteFramebuffers__wrapper
rFg:__Z220RuntimeInvoker_Boolean_t97287965_RuntimeObject_Int32U26_t1369213839_Int32_t2950945753_Int32_t2950945753_Int32_t2950945753_RuntimeObject_SByte_t1669577662_Int32_t2950945753_ContractionU26_t961830454_ContextU26_t3937453398PFvvEPK10MethodInfoPvPS4_
Myc:_cff_blend_build_vector
jbf:_WebHeaderCollection_ToString_m1263025316
n6b:__ZZN12MeshRenderer15InitializeClassEvEN29FunctorImpl_134kDidDeleteMesh4CallEPviR11MessageData
u2d:_GetterAdapter_Invoke_m3767885970
x3g:_List_1__ctor_m747758800_gshared
Grf:_String_CreateString_m2818852475
I4a:__ZN28EnlightenRendererInformation8TransferI14SafeBinaryReadEEvRT_
XIi:_CanvasRenderer_get_hasMoved_m2236392341
urg:_MessageEvent__ctor_m1231650089
xha:__ZNK15Lz4Decompressor16DecompressMemoryEPKvPjPvS2_
VSa:__Z11IsCoroutine18ScriptingMethodPtrRK22CommonScriptingClasses
P1b:__ZN4core8hash_mapINS_12basic_stringIcNS_20StringStorageDefaultIcEEEE10vector_setI4PPtrI11SpriteAtlasENSt3__24lessIS8_EE13stl_allocatorIS8_L18MemLabelIdentifier81ELi16EEENS_4hashIS4_EENS9_8equal_toIS4_EEEixERKS4_
uh:_glGetAttribLocation
z0a:__Z35UnityPropertySheet_MakeSortedColorsRKNSt3__23mapIN9ShaderLab16FastPropertyNameE10ColorRGBAfNS_4lessIS2_EENS_9allocatorINS_4pairIKS2_S3_EEEEEER10vector_mapIS2_S3_S5_NS6_INS7_IS2_S3_EEEEE
ZCc:_UNITY_tt_face_load_os2
_qb:__Z29Transfer_Blittable_ArrayFieldI14SafeBinaryRead8Vector4fEvRT_R9ArrayInfoRK23StaticTransferFieldInfo
UTd:_Default_check_arguments_m3882727959
_8f:_UTF8Encoding_GetMaxCharCount_m3762459613
dVd:_ModuleBuilder_RegisterToken_m4166846047
JKb:__ZZ23InitPlayerLoopCallbacksvEN51PostLateUpdateUpdateCustomRenderTexturesRegistrator7ForwardEv
OVe:_RawImage_OnPopulateMesh_m1115858855
GSi:__ZN6il2cpp2vm13MetadataCache25GetStringLiteralFromIndexEi
bmd:_Hashtable_ToPrime_m33531354
bv:__ZN7mecanim9animation12EvaluateClipEPKNS0_4ClipEPKNS0_9ClipInputEPNS0_10ClipMemoryEPNS0_10ClipOutputE
mih:_Collection_1_IsSynchronized_m1117613618_gshared
eeg:_TypeInitializationException__ctor_m3546444694
xcc:__ZNK9Transform16GetLocalRotationEv
TT:__ZN11UnityEngine15CloudWebService23WebRequestUploadHandler17ConsumeUploadDataEj
sTg:__Z68RuntimeInvoker_Void_t1185182177_Single_t1397266774_SByte_t1669577662PFvvEPK10MethodInfoPvPS4_
hLd:_MemoryStream_set_Position_m3169779190
CWb:__ZN13RenderManager29SetCurrentCameraAndStackStateEP6CameraP25CameraStackRenderingState
r0c:_ExecuteEvents_get_scrollHandler_m2659345019
QRa:__ZNSt3__26__treeINS_12__value_typeIjN4core12basic_stringIcNS2_20StringStorageDefaultIcEEEEEENS_19__map_value_compareIjS7_NS_4lessIjEELb1EEE13stl_allocatorIS7_L18MemLabelIdentifier7ELi16EEE7destroyEPNS_11__tree_nodeIS7_PvEE
I6i:__ZN15dense_hashtableINSt3__24pairIK10KeyWrapperINS1_IP11Il2CppClassjEEES4_EES6_N6il2cpp8metadata14ArrayClassHashEN14dense_hash_mapIS6_S4_SB_NS6_14EqualsComparerINSA_17ArrayClassCompareEEENS0_9allocatorIS8_EEE9SelectKeyESF_SH_E12resize_deltaEjj
Th:_JS_WebRequest_Release
AS:__ZN11UnityEngine15CloudWebService14DataErrorEventD0Ev
xaj:__ZN6il2cpp6icalls8mscorlib6System4Type20internal_from_handleEi
zGe:_Context__ctor_m254302079
Zdj:__ZN6il2cpp8metadata15GenericMetadata7InflateEPK19Il2CppGenericMethodPK20Il2CppGenericContext
Z3a:__ZN19ShaderPropertySheet16SetArrayPropertyEN9ShaderLab16FastPropertyNameENS_12PropertyTypeEPKvj
nXe:_Selectable_FindSelectable_m2348614027
c9c:_DropdownItem_OnPointerEnter_m1492957598
JNc:__ZN2UI11CanvasGroup23VirtualRedirectTransferER19StreamedBinaryWriteILb0EE
knc:__ZN8GUIState8EndOnGUIEv
sFc:_UNITY_TT_Get_VMetrics
Hud:_SimpleEnumerator__cctor_m2844299657
xOd:_LocalDataStoreSlot__ctor_m4104083971
u9h:_ReadOnlyCollection_1_System_Collections_Generic_IListU3CTU3E_RemoveAt_m3849058645_gshared
qAi:_AudioSource_ReadExtensionName_m725112169
yni:_X509CertificateEnumerator_System_Collections_IEnumerator_Reset_m2039524926
dMg:__Z128RuntimeInvoker_Void_t1185182177_RuntimeObject_BooleanU26_t4125257963_SByte_t1669577662_Int32U26_t1369213839_Int32U26_t1369213839PFvvEPK10MethodInfoPvPS4_
bxa:__ZN7Texture21GetMasterTextureLimitEv
rYb:__Z12CanAddScriptR10GameObject17ScriptingClassPtrPS1_S2_
p3i:__ZN6il2cpp2vm10Reflection12HasAttributeEP12Il2CppObjectP11Il2CppClass
nci:_Comparison_1_BeginInvoke_m3263247262_gshared
P9:__ZN9ShaderLabL25StaticInitializeShaderLabEPv
U:Math_max
LYh:__ZL64HorizontalLayoutGroup_t2586782146_CustomAttributesCacheGeneratorP21CustomAttributesCache
R3i:_il2cpp_class_get_methods
Ewg:_HitInfo_SendMessage_m1343099429_AdjustorThunk
Mtb:__Z18Transfer_BlittableI24GenerateTypeTreeTransferLb0EN4math12int2_storageEEvRK29SerializationCommandArgumentsR31RuntimeSerializationCommandInfo
nAf:_StackTrace_get_trace_m1194606084
gpf:_Single_CompareTo_m2785801815_AdjustorThunk
ahj:__ZN6il2cpp2os6Thread16GetCurrentThreadEv
FQf:_Array_InternalArray__Insert_TisUILineInfo_t4195266810_m3191124053_gshared
M7b:__ZN10GameObject13ComponentPair15SetComponentPtrEPN5Unity9ComponentE
vDj:_glBlitFramebuffer__wrapper
A2b:__Z13RegisterClassI10MeshFilterEvv
WRa:__ZN10TagManager8TransferI19StreamedBinaryWriteILb0EEEEvRT_
eib:__ZN11PreloadData23VirtualRedirectTransferER18StreamedBinaryReadILb0EE
Msg:_PropertyNameUtils_PropertyNameFromString_Injected_m1259736140
Nrd:_Char_System_IConvertible_ToDateTime_m3564102661
B6a:__ZN6Sprite17MainThreadCleanupEv
DDj:_glBlendFuncSeparate__wrapper
$K:__ZN10AudioMixer14UpdateMuteSoloEv
hRa:__ZN9Transform35SetLocalPositionWithoutNotificationERKN4math7_float3Ey
MLg:__Z69RuntimeInvoker_UInt64_t4134040092_Int32_t2950945753_SByte_t1669577662PFvvEPK10MethodInfoPvPS4_
Ui:_JS_Eval_ClearTimeout
oWe:_Raycast2DCallback_Invoke_m1500574149
NBa:__ZN7ApiGLES16SetPatchVerticesEi
Jsi:_CharacterClass_Compile_m3296067317
Tij:__ZN6il2cpp2gc16GarbageCollector16InvokeFinalizersEv
Wqd:_Byte_System_IConvertible_ToInt64_m285584218_AdjustorThunk
fug:_Rect_get_size_m477575021_AdjustorThunk
hLi:__ZN6il2cpp2vm5Class20FromGenericParameterEPK22Il2CppGenericParameter
gV:__ZN19CloudServiceHandler11FlushEventsEv
bfa:__ZN15GlobalCallbacksC2Ev
VNf:_Array_InternalArray__ICollection_Add_TisLabelData_t360167391_m1648183135_gshared
Ove:_Comparer_1_System_Collections_IComparer_Compare_m2016223770_gshared
bLg:__Z74RuntimeInvoker_DateTime_t3738529785_DateTime_t3738529785_Int32_t2950945753PFvvEPK10MethodInfoPvPS4_
wLc:_UNITY_FT_New_Memory_Face
Teh:_Collection_1_System_Collections_IList_IndexOf_m3271188411_gshared
AJc:__ZN20TextRenderingPrivate21TextMeshGeneratorImpl5FlushEv
VKd:_MonoIO_GetFileStat_m678141354
oBc:_UNITY_FT_Load_Sfnt_Table
I7c:__Z15CastclassSealedP12Il2CppObjectP11Il2CppClass
wyf:_Decimal_IsZero_m4250358244_AdjustorThunk
jOd:_UnmanagedMemoryStream_get_CanRead_m3770815400
jXb:__ZN16ReflectionProbes40UpdateRealtimeReflectionProbesTimeslicedEv
myf:_Decimal_u64_m3374804932
xeg:_UInt16_System_IConvertible_ToInt32_m1950778303_AdjustorThunk
tfb:__ZNK30RuntimeInitializeOnLoadManager22GetTypeVirtualInternalEv
RPi:__ZN15dense_hashtableINSt3__24pairIK10KeyWrapperIN6il2cpp5utils13dynamic_arrayIPK10Il2CppTypeLj4EEEEPFvvEEESA_NS3_8metadata19Il2CppSignatureHashEN14dense_hash_mapISA_SD_SG_NSA_14EqualsComparerINSF_22Il2CppSignatureCompareEEENS0_9allocatorISE_EEE9SelectKeyESK_SM_E12resize_deltaEjj
v5b:__ZN16ReflectionProbes15InitializeClassEv
t1h:_Dictionary_2_Do_ICollectionCopyTo_TisKeyValuePair_2_t3699644050_m4159638770_gshared
Ybj:__ZN6il2cpp2vm5Image9GetCorlibEv
Pzg:_Vector3_get_left_m2428419009
eA:__ZN8Animator13BatchedFKPassERK13dynamic_arrayIP14PlayableOutputLj4EE
poj:_GC_reclaim_uninit
e0c:_ExecuteEvents_Execute_m113814934
yba:__ZN13RuntimeStaticINSt3__23mapIN4core12basic_stringIcNS2_20StringStorageDefaultIcEEEES6_NS0_4lessIS6_EE13stl_allocatorINS0_4pairIKS6_S6_EEL18MemLabelIdentifier13ELi16EEEELb0EE13StaticDestroyEPv
a$h:_Array_qsort_TisColor32_t2600501292_m1362211604_gshared
Uve:_Enumerator_System_Collections_IEnumerator_get_Current_m2979767597_AdjustorThunk
kid:_MD5CryptoServiceProvider_ProcessFinalBlock_m2241588515
xYe:_ScrollRect_GetBounds_m449872505
Tj:_glIsVertexArray
Mkd:_SmallXmlParser_Read_m3485223434
FDd:_Int16_Parse_m2276856944
ea:invoke_fff
pwj:_mbsinit
jCj:b14
UMc:__ZN2UI6Canvas17MainThreadCleanupEv
qza:__ZN6prcoreL12RemapGenericI17TexFormatARGB155517TexFormatRGBA8888EEvPKNS_9InnerInfoE
bNi:__ZN13Il2CppHashMapIPK19Il2CppGenericMethodPK26Il2CppGenericMethodIndicesN6il2cpp8metadata23Il2CppGenericMethodHashENS7_26Il2CppGenericMethodCompareENSt3__29allocatorINSA_4pairIK10KeyWrapperIS2_ES5_EEEEEC2EjRKS8_RKS9_
J_d:_TypeBuilder_HasElementTypeImpl_m1871001960
lof:_SecurityFrame__ctor_m2140076703_AdjustorThunk
yVf:_DefaultComparer_Equals_m2458578172_gshared
pDa:__ZN7ApiGLES13CreateProgramEv
Swe:_Enumerator_VerifyState_m4003066746_gshared
qxa:__ZN4crnd12crn_unpackerD2Ev
ek:_emscripten_glTexImage2D
Iue:_Comparer_1_System_Collections_IComparer_Compare_m2537217645_gshared
z_:__ZN18ScriptingArguments9AddStringEPKc
Joj:_setup_header
Msd:_Char_ToString_m3588025615
C4e:_CryptoConvert_ToCapiKeyBlob_m3371450375
yya:__ZL23stbir__resize_arbitraryPvPKviiiS_iiiffffPfiij14stbir_datatype12stbir_filterS4_10stbir_edgeS5_16stbir_colorspace
eub:__Z18Transfer_BlittableI24GenerateTypeTreeTransferLb1E8Vector4fEvRK29SerializationCommandArgumentsR31RuntimeSerializationCommandInfo
nCj:b18
pk:_pthread_detach
XSi:__ZN6il2cpp2vm19SocketPollingThread7RunLoopEv
K9c:_FontUpdateTracker_UntrackText_m1981515690
o8b:__ZN15DirectorManager20ScheduleGraphDestroyERK14HPlayableGraph
YCb:__ZNSt3__213__stable_sortIRN10vector_mapI17ScriptingClassPtrPKN5Unity4TypeENS_4lessIS2_EENS_9allocatorINS_4pairIS2_S6_EEEEE13value_compareENS_11__wrap_iterIPSB_EEEEvT0_SJ_T_NS_15iterator_traitsISJ_E15difference_typeEPNSM_10value_typeEi
l1e:_SimpleCollator_FillSurrogateSortKeyRaw_m725998232
M5g:_List_1_AddEnumerable_m1284696147_gshared
waf:_IPAddress_Equals_m1823478787
qHe:_Context_CreateNewContext_m3053563976
Yka:__ZN9ShaderLab25SerializedTextureProperty8TransferI24GenerateTypeTreeTransferEEvRT_
h1i:__ZN6il2cpp2gc19AppendOnlyGCHashMapINSt3__24pairIPK14Il2CppAssemblyP11Il2CppClassEEP24Il2CppReflectionAssembly17ReflectionMapHashIS9_ENS2_8equal_toIS9_EEEC2Ev
Rwb:__Z18Transfer_BlittableI19StreamedBinaryWriteILb0EELb0EdEvRK29SerializationCommandArgumentsR31RuntimeSerializationCommandInfo
$ka:__ZN11NamedObject8TransferI18StreamedBinaryReadILb0EEEEvRT_
Lmg:_InvokableCall_remove_Delegate_m1376110510
lxd:_Hashtable_Clear_m3112193608
I8f:_UTF8Encoding_InternalGetByteCount_m771565606
J4e:_DSAManaged_GenerateKeyPair_m2236915969
P0g:_List_1_System_Collections_IList_Remove_m3654336679_gshared
EHh:__ZL51GUILayer_t2783472903_CustomAttributesCacheGeneratorP21CustomAttributesCache
Mk:_emscripten_glMatrixMode
$Ue:_MaskableGraphic_UnityEngine_UI_IClippable_get_gameObject_m1739855597
Ps:__ZN8Animator23VirtualRedirectTransferER18StreamedBinaryReadILb0EE
wGf:_Guid__ctor_m3562600567_AdjustorThunk
Ktf:_DateTime_System_IConvertible_ToInt16_m3239820399
WR:__ZN11UnityEngine15CloudWebService14DataDispatcher16PrepareDataBlockERNS0_16SessionContainerE
YHa:__ZN18GfxFramebufferGLES5ClearE13GfxClearFlagsRK10ColorRGBAffib
uNf:_MonoProperty_StaticGetterAdapterFrame_TisRuntimeObject_m4131530968_gshared
ABb:__ZL26Transfer_SimpleNativeClassI18StreamedBinaryReadILb0EE10RectOffsetLb0EEvRK29SerializationCommandArgumentsR31RuntimeSerializationCommandInfo
goe:_InternalEnumerator_1_get_Current_m2316281569_gshared
sOb:__ZL12DepthPassJobPN21GfxDeviceAsyncCommand10ArgScratchEPKNS_3ArgE
kja:__ZNSt3__26vectorIN9ShaderLab20SerializedSubProgram16TextureParameterENS_9allocatorIS3_EEE6assignINS_11__wrap_iterIPS3_EEEENS_9enable_ifIXaasr21__is_forward_iteratorIT_EE5valuesr16is_constructibleIS3_NS_15iterator_traitsISC_E9referenceEEE5valueEvE4typeESC_SC_
Kpc:__ZN5Unity9rapidjson6WriterI16TempBufferWriterNS0_4UTF8IcEES4_13JSONAllocatorE11WriteDoubleEd
oag:_Thread_SetCachedCurrentUICulture_m1729523031
SQc:__Z55Register_UnityEngine_CanvasGroup_get_ignoreParentGroupsv
_2b:__Z13RegisterClassI19LowerResBlitTextureEvv
Bbe:_ClientContext_set_ClientHelloProtocol_m4189379912
Nm:FUNCTION_TABLE_iiiiiiiiiiii
o5g:_List_1_get_Item_m1686506901_gshared
gUa:__ZN16GraphicsSettingsD0Ev
n:cttz_i8
Ayc:_UNITY_FT_GlyphLoader_Add
MAi:_AudioListener_INTERNAL_CALL_ReadExtensionPropertyName_m330480156
$Bd:_Convert_ToUInt16_m867476252
Jl:_emscripten_glViewport
Wkj:__ZN6il2cpp6icalls8mscorlib6System15MonoCustomAttrs17IsDefinedInternalEP12Il2CppObjectP20Il2CppReflectionType
dKi:_SkeletonBone_t4134054672_marshal_pinvoke_back
Yzc:_cff_parse_font_bbox
u0e:_MSCompatUnicodeTable_Category_m1834196420
Kdb:__ZN14PlayerSettings23VirtualRedirectTransferER18StreamedBinaryReadILb0EE
cBf:_Double_CompareTo_m3151899116
Qtj:__ZN6il2cpp2os5Event5ResetEv
FTb:__Z26CombineDepthNormalsTextureRK17RenderLoopContextR13dynamic_arrayI16RenderObjectDataLj4EE
qDc:_tt_name_ascii_from_other
nzi:_ToggleGroup__ctor_m3308114662
Kdj:__ZN6il2cpp8metadata15GenericMetadata17InflateParametersEPK13ParameterInfohPK20Il2CppGenericContextb
hSa:__ZN6Camera13AwakeFromLoadE17AwakeFromLoadMode
w0h:_Array_Sort_TisUILineInfo_t4195266810_m3737783007_gshared
fsg:_PlayableAsset_Internal_CreatePlayable_m2550417712
Xv:__ZNK17AnimationPlayable27GetNextCompatibleDescendantEi
eli:_TlsStream_Write_m188217214
zGb:__Z25SetNeedToPerformRenderingb
ngg:_UInt64_System_IConvertible_ToInt32_m949522652_AdjustorThunk
uQa:__ZN10GameObjectD2Ev
HOb:__ZN14qsort_internal30FindAndMovePivotToLastPositionIP15RODataDepthPassi17ROSorterDepthPassEEvT_S4_T0_T1_
sWb:__ZN12CullingGroup10SendEventsEPK17CullingGroupEventj
G1c:_PointerInputModule__ctor_m3728889932
GX:__ZThn32_NK8Renderer8GetLayerEv
$0f:_Enumerator_System_Collections_IEnumerator_Reset_m2915500989_gshared
bAc:_cff_parse_vsindex
RDd:_Int32_ValidDigit_m1059003769
NHj:_emscripten_glTexParameterfv__wrapper
PSe:_LayoutGroup_get_rectTransform_m442863741
nob:__Z18Transfer_BlittableI14SafeBinaryReadLb1E9BoundsIntEvRK29SerializationCommandArgumentsR31RuntimeSerializationCommandInfo
I4i:_il2cpp_method_get_param_count
bcc:__ZN10systeminfo19ISOToSystemLanguageERN4core12basic_stringIcNS0_20StringStorageDefaultIcEEEE
$$i:__ZNK15dense_hashtableINSt3__24pairIK10KeyWrapperINS1_IPK12PropertyInfoP11Il2CppClassEEEjEES9_17ReflectionMapHashIS8_EN14dense_hash_mapIS9_jSD_NS9_14EqualsComparerINS0_8equal_toIS8_EEEENS0_9allocatorISB_EEE9SelectKeyESI_SK_E3endEv
ahg:_UnauthorizedAccessException__ctor_m40101894
tHc:_ps_dimension_done
IMc:__Z46Register_UnityEngine_TextGenerator_Dispose_cppv
hBf:_Double_Parse_m4153729520
kii:_IndexedSet_1_AddUnique_m861843892_gshared
n4a:__ZN16LightmapSettings8TransferI14SafeBinaryReadEEvRT_
xoa:__ZN17BufferManagerGLES13ReleaseBufferEP14DataBufferGLES
Aae:_CipherSuite_Write_m1172814058
uNd:_SynchronizedWriter_Write_m301917713
H8:__ZN9profiling6MarkerC2EPKc13ProfilerGroupNS0_5FlagsE
muc:__Z18Transfer_BlittableI8JSONReadLb1EjEvRK29SerializationCommandArgumentsR31RuntimeSerializationCommandInfo
hVd:_ConstructorBuilder_get_IsCompilerContext_m3364441562
Mlg:_Debug_LogWarning_m3752629331
Gbi:_ReadOnlyCollection_1_System_Collections_Generic_IListU3CTU3E_RemoveAt_m4037795630_gshared
mJg:__Z117RuntimeInvoker_Void_t1185182177_RuntimeObject_Int32_t2950945753_Int32_t2950945753_Int32_t2950945753_Int32_t2950945753PFvvEPK10MethodInfoPvPS4_
A4c:_U3COnFinishSubmitU3Ec__Iterator0_Reset_m3632769946
$o:stackSave
qU:__ZN5Unity9rapidjson15GenericDocumentINS0_4UTF8IcEE13JSONAllocatorNS0_12CrtAllocatorEE6StringEPKcjb
D6c:_ColorTween_get_targetColor_m1724075482_AdjustorThunk
OHc:_ps_dimension_end
glc:__Z41Register_UnityEngine_Mesh_Internal_Createv
Idj:__ZNK15dense_hashtableI10KeyWrapperIP18Il2CppGenericClassES3_N6il2cpp8metadata22Il2CppGenericClassHashEN14dense_hash_setIS3_S6_NS3_14EqualsComparerINS5_25Il2CppGenericClassCompareEEENSt3__29allocatorIS3_EEE8IdentityESA_SD_E12test_deletedERK30dense_hashtable_const_iteratorIS3_S3_S6_SF_SA_SD_E
uzd:_Console_Open_m3077673205
Fni:_X509StoreManager_get_CurrentUser_m4040993045
RXb:__ZN6Camera9SetAspectEf
uMf:_Array_InternalArray__IndexOf_TisDateTime_t3738529785_m2463359116_gshared
va:invoke_viiffiii
UGi:_Display_Start_m3623905221
cJj:_emscripten_glBindVertexArray__wrapper
Agj:__ZN6il2cpp6icalls8mscorlib6System4Enum19get_underlying_typeEP20Il2CppReflectionType
rti:_Parser_IsECMAScript_m674158805
pRa:__ZN9Transform37InitializeTransformHierarchyRecursiveER18TransformHierarchyRii
MHa:__ZN26SinglePassStereoSupportExt23SetupStereoMatrixParamsE21MonoOrStereoscopicEye24BuiltinShaderMatrixParamRK10Matrix4x4f
kwj:_fscanf
tYc:__ZNK25UnityWebRequestJavaScript16GetUploadedBytesEv
VP:__Z46AudioListener_CUSTOM_GetNumExtensionPropertiesP12Il2CppObject
gUi:__ZN6il2cpp6icalls8mscorlib6SystemL16CheckMemberMatchI9FieldInfoNS_5utils10functional6FilterINSt3__212basic_stringIcNS8_11char_traitsIcEENS8_9allocatorIcEEEENS5_13VmStringUtils23CaseInsensitiveComparerEEEEEbPKT_PK11Il2CppClassSN_iRKT0_
HMf:_Array_InternalArray__IndexOf_TisMonoResource_t4103430009_m1351751258_gshared
Xej:__ZN6il2cpp2gc16GarbageCollector12RunFinalizerEPvS2_
bDf:_FieldAccessException__ctor_m3583219052
ckc:__Z57Register_UnityEngine_Transform_INTERNAL_set_localPositionv
Bsa:__ZN13GfxDeviceGLES26SetRandomWriteTargetBufferEi15ComputeBufferID
Ioj:_GC_split_block
F$h:_Array_Resize_TisUICharInfo_t75501106_m3903846016_gshared
xKb:__ZZ23InitPlayerLoopCallbacksvEN49EarlyUpdateResetFrameStatsAfterPresentRegistrator7ForwardEv
Mwj:_poll
t8h:_ReadOnlyCollection_1_System_Collections_IEnumerable_GetEnumerator_m1671097018_gshared
Ngg:_UInt64_ToString_m1529093114_AdjustorThunk
IXh:__ZL85Selectable_t3250028441_CustomAttributesCacheGenerator_Selectable_IsPressed_m907486548P21CustomAttributesCache
u5d:_TypeLibImportClassAttribute__ctor_m2302178978
V1e:_Escape_t3294788190_marshal_pinvoke
jRe:_InputField_OnUpdateSelected_m1118869681
acj:__ZN6il2cpp2vmL36AddNestedTypesToNametoClassHashTableEP40Il2CppNameToTypeDefinitionIndexHashTablePKcRKNSt3__212basic_stringIcNS5_11char_traitsIcEENS5_9allocatorIcEEEEP11Il2CppClass
Axa:__ZN4crnd12crn_unpacker11unpack_dxt1EPPhjjj
Mbc:__ZNK11ICallString6ToUTF8Ev
nLi:__ZN15dense_hashtableINSt3__24pairIK10KeyWrapperIPK22Il2CppGenericParameterEP11Il2CppClassEES6_N6il2cpp5utils11PointerHashIS4_EEN14dense_hash_mapIS6_S9_SE_NS6_14EqualsComparerINS0_8equal_toIS5_EEEENS0_9allocatorISA_EEE9SelectKeyESJ_SL_E15insert_noresizeERKSA_
yze:_Transform_1_Invoke_m2468053724_gshared
IOb:__ZNSt3__211__sift_downIR17ROSorterDepthPassP15RODataDepthPassEEvT0_S5_T_NS_15iterator_traitsIS5_E15difference_typeES5_
Y$a:__ZN18UnityPropertySheet11UnityTexEnvC2Ev
vmd:_ArgumentException__ctor_m3200406061
yA:__ZN8Animator17ApplyOnAnimatorIKEiRNS_11AnimatorJobE
q1:__ZN12FileAccessor4ReadEyyPvPy
Osf:_EncoderExceptionFallback__ctor_m3745979420
g7g:_List_1_set_Capacity_m2777925136_gshared
sXb:__ZN13RenderTexture9SetHeightEi
mu:__ZN7mecanim9animation17ClearMotionOutputEPNS0_18AnimationNodeStateE
mbe:_CipherSuiteCollection_get_IsFixedSize_m3127823890
pte:_InternalEnumerator_1_System_Collections_IEnumerator_get_Current_m3537550566_gshared
EWe:_Scrollbar_UpdateVisuals_m2492252165
vmi:_PKCS12_get_Keys_m2165478388
S8i:__ZN6il2cpp6icalls8mscorlib6System2IO6MonoIO17GetFileAttributesEP12Il2CppStringPi
Bhd:_HMACMD5__ctor_m3008609295
yvf:_DateTime__ParseAmPm_m3478436123
cwf:_DateTime_ToString_m2992030064_AdjustorThunk
jEc:_tt_cmap8_char_index
__:__Z24scripting_class_get_name17ScriptingClassPtr
dMd:_Stream_WriteByte_m1519852120
Mzi:_VerticalLayoutGroup_CalculateLayoutInputHorizontal_m1404590745
gca:__ZN13RuntimeStaticI15GUIEventManagerLb0EE13StaticDestroyEPv
XPd:_ShortComparer_Compare_m1881262465
eqb:__Z29Transfer_Blittable_ArrayFieldI14SafeBinaryReadjEvRT_R9ArrayInfoRK23StaticTransferFieldInfo
ee:_emscripten_set_keydown_callback
p5f:_EncoderReplacementFallback__ctor_m1483565116
ihf:_Interpreter_IsWordChar_m2858055765
ixd:_Hashtable_CopyTo_m2905447224
y1:__ZN12FileAccessorC2Ev
YBc:_otv_u_O_O_u_O_O
qy:__ZThn152_NK26AnimatorControllerPlayable25GetStateMachineBehavioursEv
fii:_EventFunction_1_Invoke_m2429482587_gshared
Qbf:_AsnEncodedData_SubjectAltName_m4049949414
vVi:__ZN6il2cpp2vm7Runtime12GetConfigDirEv
z0f:_Enumerator_MoveNext_m1177880931_AdjustorThunk
e_e:_Slider_UpdateVisuals_m3662961057
MGi:_TextGenerator_Populate_m194003733
kWd:_DerivedType_get_FullName_m1025358827
Hfd:_CryptoConfig_MapNameToOID_m2044758263
ZVh:__ZL70InputField_t3762917431_CustomAttributesCacheGenerator_m_OnValueChangedP21CustomAttributesCache
rHb:__ZN13RenderManager22OnWindowSizeHasChangedEv
PEb:__Z39WriteQueueForTransferSignatureIntoCacheRK31TransferFunctionScriptingTraitsRK24TransferRequestSignature17ScriptingClassPtrR23CachedSerializationDataRb
_gb:__ZN13RenderManager18UpdateAllRenderersEv
B6f:_Encoding_get_UTF8UnmarkedUnsafe_m320312322
xag:_Thread_Thread_free_internal_m333849022
arc:__Z35Transfer_Blittable_FixedBufferFieldI9JSONWritexEvRK29SerializationCommandArgumentsR31RuntimeSerializationCommandInfo
Doi:_CostDelegate_BeginInvoke_m2828452701
OSc:__ZN22BaseUnityConnectClient30OnEnteringStatePausedOrStoppedEv
Qgh:_Collection_1_ConvertItem_m1556170494_gshared
Au:__ZN7mecanim5human12HumanPoseAddERNS0_9HumanPoseERKS1_S4_
Ytf:_DateTime_ToUniversalTime_m1945318289
Gtd:_ArrayList_ToArray_m3827492363
w_e:_Slider_get_stepSize_m1423227661
Igg:_UInt64_Parse_m819899889
_kf:_SymmetricAlgorithm_set_IV_m3196220308
CYd:_GenericTypeParameterBuilder_GetHashCode_m852224381
lCd:_Convert_ToUInt32_m1453583008
YDf:_CompareInfo_Compare_m894311506
ZQa:__Z24MergeTransformComponentsR9TransformS0_b
iPi:__ZNK15dense_hashtableI10KeyWrapperIPK19Il2CppGenericMethodES4_N6il2cpp8metadata23Il2CppGenericMethodHashEN14dense_hash_setIS4_S7_NS4_14EqualsComparerINS6_26Il2CppGenericMethodCompareEEENSt3__29allocatorIS4_EEE8IdentityESB_SE_E10test_emptyEj
p_c:_EventSystem_UpdateModules_m3643806022
KJi:_AnimationOffsetPlayable__cctor_m1029460816
Ykj:__ZN6il2cpp2vm13ComObjectBase19GetRuntimeClassNameEPP15Il2CppHString__
Rj:_emscripten_glVertexAttribPointer
PVa:__ZNK20IntermediateRenderer12GetSceneMaskEv
CHb:__ZN14PreloadManager26UpdatePreloadingSingleStepENS_21UpdatePreloadingFlagsEi
kZe:_ScrollRect_SetLayoutHorizontal_m3078869633
K0e:_SimpleCollator__ctor_m1587210019
oic:__Z57Register_UnityEngine_RectTransform_INTERNAL_set_anchorMinv
hCd:_Convert_ToUInt16_m1480956416
Zya:__ZN6prcoreL25inner_stretch_i8_bilinearEPKNS_9InnerInfoE
sib:__ZL30RegisterFilteredObjectCallbackPP12Il2CppObjectiPv
cbi:_ReadOnlyCollection_1_System_Collections_Generic_IListU3CTU3E_RemoveAt_m3317217538_gshared
qOh:__ZL54AudioSource_t3935305588_CustomAttributesCacheGeneratorP21CustomAttributesCache
UHb:__Z19InitializeGfxDevicev
qS:__ZN11UnityEngine15CloudWebService16SessionContainer24GetSessionHeaderJsonDataERKN4core12basic_stringIcNS2_20StringStorageDefaultIcEEEERNS2_13StringBuilderE
PVd:_DerivedType_GetEvent_m4157575360
Uba:__ZN13RuntimeStaticI21AssetReferenceStorageLb0EE13StaticDestroyEPv
Ked:_SByte_System_IConvertible_ToType_m4075253447_AdjustorThunk
WQf:_Array_InternalArray__set_Item_TisKeyValuePair_2_t2530217319_m258011711_gshared
ATg:__Z72RuntimeInvoker_Bounds_t2266837910_RuntimeObject_Matrix4x4U26_t3606180965PFvvEPK10MethodInfoPvPS4_
Lgj:__ZN6il2cpp6icalls8mscorlib6System9AppDomain22InternalGetProcessGuidEP12Il2CppString
hyc:_cf2_builder_moveTo
aDg:__Z48RuntimeInvoker_RuntimeObject_Decimal_t2948259380PFvvEPK10MethodInfoPvPS4_
vNa:__ZNK17FileSystemHandler10IsReadOnlyERK13FileEntryData
Bub:__Z18Transfer_BlittableI24GenerateTypeTreeTransferLb1EjEvRK29SerializationCommandArgumentsR31RuntimeSerializationCommandInfo
lLi:__ZN6il2cpp2os12FastAutoLockD2Ev
$6:__ZN11ColorRGBA328TransferI14SafeBinaryReadEEvRT_
qAc:_cff_vstore_done
oOg:__Z68RuntimeInvoker_Void_t1185182177_UInt16_t2177724958_SByte_t1669577662PFvvEPK10MethodInfoPvPS4_
jfb:__ZN15ResourceManager10Dependency8TransferI24GenerateTypeTreeTransferEEvRT_
_hd:_MACTripleDES_HashFinal_m3613553534
cgg:_UInt64_System_IConvertible_ToChar_m2074245892
M8f:_UTF8Encoding_InternalGetBytes_m1965760031
Jf:_emscripten_glClearDepth
T6b:__ZNK8GUILayer22GetTypeVirtualInternalEv
t5a:__ZN14SafeBinaryRead21TransferSTLStyleArrayINSt3__26vectorIN15QualitySettings14QualitySettingENS1_9allocatorIS4_EEEEEEvRT_17TransferMetaFlags
idb:__ZNSt3__26vectorINS_4pairIPKN5Unity4TypeE7Hash128EENS_9allocatorIS7_EEE8__appendEj
tAc:_cff_font_load
phj:__GLOBAL__sub_I_LibraryLoader_cpp
Ecc:__Z13IsPathCreatedRKN4core12basic_stringIcNS_20StringStorageDefaultIcEEEE
Eya:__ZL22stbir__encode_scanlineP11stbir__infoiPvPfiii
G4d:_ExternalException__ctor_m2877839282
lxc:__ZN20QuadTreeNodeRenderer13StaticDestroyEPv
mT:__ZN11UnityEngine15CloudWebService20WebRequestRestClient5AbortEv
Dri:_Regex_Matches_m2080913806
Y3b:__ZN9Transform12CleanupClassEv
Mwg:_Sprite_get_rect_m2575211689
xpg:_Mathf_Sin_m3411839043
zLc:_UNITY_FT_Set_Pixel_Sizes
mSd:_OperatingSystem_Clone_m1122165140
G3h:_GameObject_AddComponent_TisRuntimeObject_m3469369570_gshared
fka:__ZNSt3__26vectorIN9ShaderLab19SerializedSubShaderENS_9allocatorIS2_EEE26__swap_out_circular_bufferERNS_14__split_bufferIS2_RS4_EE
dA:__ZN11UnityEngine9Animation33SetGenericTransformPropertyValuesERKNS0_30AnimatorGenericBindingConstantERKN7mecanim10ValueArrayEP9Transformy
W6i:__ZN6il2cpp2vmL24thread_cleanup_on_cancelEPv
k3g:_List_1_RemoveAll_m3165362277_gshared
fdg:_Type_type_is_subtype_of_m1406623598
l9f:_Thread_get_CurrentThread_m4142136012
fWa:__Z30ProcessDynamicBatchGeometryJobP25DynamicVBOGeometryJobDataj
cPb:__ZNSt3__27__sort4IRNS_6__lessI11CulledLightS2_EEPS2_EEjT0_S6_S6_S6_T_
eXi:__ZN6il2cpp2vm14TypeNameParser26ParseArrayModifierOptionalEv
VZ:__Z26scripting_object_get_class18ScriptingObjectPtr
V7i:__ZN6il2cpp6icalls8mscorlib6System10Reflection8Assembly13get_code_baseEP24Il2CppReflectionAssemblyb
Vfb:__ZNSt3__26vectorIN4core12basic_stringIcNS1_20StringStorageDefaultIcEEEE13stl_allocatorIS5_L18MemLabelIdentifier13ELi16EEE7reserveEj
Pgd:_DSASignatureDeformatter__ctor_m2889130126
B3b:__ZNK28MonoBehaviourPropertyBinding15GenerateBindingERKN4core12basic_stringIcNS0_20StringStorageDefaultIcEEEEbRN11UnityEngine9Animation14GenericBindingE
rvg:_RectTransform_INTERNAL_set_pivot_m1160676233
g8g:_List_1_set_Item_m35836043_gshared
Pef:_X509ChainElementCollection__ctor_m3424079155
Loi:_LinkStack_Push_m3081279930
bye:_Enumerator_MoveNext_m1107569389_gshared
Zij:__ZN6il2cpp6icalls8mscorlib6System11Environment15internalGetHomeEv
Ypg:_Matrix4x4_GetHashCode_m4034747639_AdjustorThunk
J3d:_ResourceCacheItem_t51292791_marshal_pinvoke_cleanup
kX:__ZNK5Unity9Component7GetNameEv
sTe:_U3CDelayedSetDirtyU3Ec__Iterator0_Reset_m160466733
klg:_Native__cctor_m1435623442
x6g:_List_1_System_Collections_IList_Remove_m1070694895_gshared
_vi:_LayoutCache__ctor_m3885940174
qB:__ZN7mecanim8skeleton26SkeletonPoseComputeGlobalQEPKNS0_8SkeletonEPKNS0_13SkeletonPoseTIN4math4trsXEEEPS7_ii
bgg:_UInt64_System_IConvertible_ToByte_m1501504925_AdjustorThunk
FGi:_TextGenerator_Invalidate_m1072346986
_de:_TlsClientHello_ProcessAsTls1_m2549285167
E$g:__Z74RuntimeInvoker_Boolean_t97287965_UIVertex_t4057497605_UIVertex_t4057497605PFvvEPK10MethodInfoPvPS4_
Z8h:_ReadOnlyCollection_1_System_Collections_IList_Clear_m3591436538_gshared
TXe:_ScrollRect_set_decelerationRate_m723367336
SA:__ZN9BlobWrite8TransferI22OffsetPtrArrayTransferIiEEEvRT_PKc17TransferMetaFlags
Qsf:_EncoderExceptionFallback_Equals_m2760188920
kif:_RIPEMD160Managed_HashCore_m2350629432
TJ:__ZN4FMOD6System7releaseEv
iqd:_Boolean_CompareTo_m3665076258
eqf:_String_Split_m3580120853
Y5e:_PrivateKeyInfo__ctor_m2811023496
V0:__Z18PathToAbsolutePathRKN4core12basic_stringIcNS_20StringStorageDefaultIcEEEE
Vwi:_GUILayoutUtility_LayoutFromEditorWindow_m2914699782
gya:__ZL13BlitImageImplR14ImageReferenceiiRKS_NS_10ColorSpaceENS_8BlitModeEb
u8b:__ZN15DirectorManager17AcquireOutputNodeEv
pAa:__ZN6prcoreL17RemapGenericFloatI18TexFormatRGBAFloat17TexFormatRGBFloatEEvPKNS_9InnerInfoE
J3h:_GameObject_GetComponentInChildren_TisRuntimeObject_m1310240902_gshared
NLh:__ZL69PersistentCall_t3407714124_CustomAttributesCacheGenerator_m_ArgumentsP21CustomAttributesCache
bHa:__ZN16GeometryJobTasks20ScheduleGeometryJobsER9GfxDevicePFvP15GeometryJobDataEPK22GeometryJobInstructionjb
YH:__ZN12AudioManager29ShutdownReinitializeAndReloadEv
iYa:__ZN16ReflectionProbes28GetMinBakedCubemapResolutionEv
N9a:__ZN14BlendShapeData8TransferI14SafeBinaryReadEEvRT_
gkj:__GLOBAL__sub_I_String_cpp
kLi:__ZN15dense_hashtableINSt3__24pairIK10KeyWrapperIPK22Il2CppGenericParameterEP11Il2CppClassEES6_N6il2cpp5utils11PointerHashIS4_EEN14dense_hash_mapIS6_S9_SE_NS6_14EqualsComparerINS0_8equal_toIS5_EEEENS0_9allocatorISA_EEE9SelectKeyESJ_SL_E6insertERKSA_
sRe:_InputField_GenerateCaret_m1459647218
nmi:_X509CertificateEnumerator__ctor_m85694331
bua:__ZN14DataBufferGLES16RecreateWithDataEjPKv
P2:__Z29GetGlobalAllowNameConversionsv
GPf:_Array_InternalArray__Insert_TisTableRange_t3332867892_m558285859_gshared
YYb:__ZN8Material8SetColorEN9ShaderLab16FastPropertyNameERK10ColorRGBAf
f2f:_Enumerator_System_Collections_IEnumerator_Reset_m3754523291_gshared
zHj:_glUniform3uiv__wrapper
RL:__ZN11AudioSource23VirtualRedirectTransferER18StreamedBinaryReadILb0EE
qtg:_RangeInt_get_end_m4128831787
Xba:__ZN21AssetReferenceStorageC2Ev
Szj:dynCall_iiifiii
c$:__ZL41AssemblyNameMatchesWithOrWithoutExtensionPKcS0_
p5g:_List_1_set_Item_m2082115010_gshared
T5f:_Encoding_GetBytes_m3735967069
DDa:__ZN14GfxContextGLES43AddRenderSurfaceToDeferredFBOInvalidateListEPK17RenderSurfaceGLES
v8i:__ZN6il2cpp6icalls8mscorlib6System9Threading6Thread15Thread_internalEP12Il2CppThreadP14Il2CppDelegate
toa:__ZN11NamedObject23VirtualRedirectTransferER14SafeBinaryRead
q$e:_Text_get_resizeTextMinSize_m1002355407
oLc:__ZNSt3__26vectorIN20TextRenderingPrivate8FontImpl13CharacterInfoE13stl_allocatorIS3_L18MemLabelIdentifier1ELi16EEE6insertENS_11__wrap_iterIPKS3_EERS9_
nLa:__ZN23PreloadManagerOperation6IsDoneEv
ykj:__ZN6il2cpp5utils11StringUtils11Utf16ToUtf8ERKNSt3__212basic_stringIDsNS2_11char_traitsIDsEENS2_9allocatorIDsEEEE
o8d:_MD4Managed_Decode_m4273685594
Chb:__ZN21LightProbeProxyVolume18HasHardwareSupportEv
bSb:__ZN26LightProbeProxyVolumeCacheC2ER13BatchRendererR15RenderLoopStats
Uya:__ZN6prcoreL31inner_stretch_argb8888_bilinearEPKNS_9InnerInfoE
Byb:__Z18Transfer_BlittableI18StreamedBinaryReadILb1EELb1E8BitFieldEvRK29SerializationCommandArgumentsR31RuntimeSerializationCommandInfo
SEc:_UNITY_FT_Outline_Decompose
mGd:_Int64_System_IConvertible_ToChar_m1509243576_AdjustorThunk
zli:_GeneralNames_get_IPAddresses_m4242915644
qzf:_Decimal_op_Implicit_m3873897383
_oj:_GC_init_size_map
kTa:__Z20scripting_object_new17ScriptingClassPtr
j6e:_KeyGeneratedEventHandler_Invoke_m2527485594
yxf:_Decimal__ctor_m1925875020_AdjustorThunk
WNe:_SerializationCallbacks__ctor_m3863304525
P:Math_exp
Cjg:_Vector3_Min_m1803158933
Do:FUNCTION_TABLE_iiifi
ugj:__ZN6il2cpp2os5posix13PosixAutoLockD2Ev
$xi:_SymmetricTransform_OFB_m3690147804
Qxc:_cff_get_advances
jEb:__ZN13MonoBehaviour9SetScriptERK4PPtrI10MonoScriptE18ScriptingObjectPtr
FMa:__ZNK10FileSystem16LastErrorMessageEv
JQf:_Array_InternalArray__Insert_TisVector3_t3722313464_m3862657277_gshared
pnf:_SecurityException__ctor_m1631242336
lNi:__ZN15dense_hashtableINSt3__24pairIK10KeyWrapperIPK11Il2CppClassEPKcEES6_N6il2cpp5utils11PointerHashIS3_EEN14dense_hash_mapIS6_S9_SE_NS6_14EqualsComparerINS0_8equal_toIS5_EEEENS0_9allocatorISA_EEE9SelectKeyESJ_SL_E14squash_deletedEv
q$c:_EventSystem_Update_m1662072334
YYc:__ZN22UnityWebRequestManager10InitializeEv
ADb:__ZN13MonoBehaviour13AwakeFromLoadE17AwakeFromLoadMode
Isb:__ZL26Transfer_SimpleNativeClassI17RemapPPtrTransfer8GradientLb1EEvRK29SerializationCommandArgumentsR31RuntimeSerializationCommandInfo
U_c:_RaycasterManager_RemoveRaycasters_m3057093063
F9b:__ZN12CachedWriter9InitWriteER15CacheWriterBase
j8b:__Z21UnsignedInt64ToStringy
dWe:_GetRaycastNonAllocCallback_BeginInvoke_m3984885848
Npi:_PatternCompiler_BeginLink_m1295557963
KRa:__ZN14SafeBinaryRead21TransferSTLStyleArrayI13dynamic_arrayI17SortingLayerEntryLj4EEEEvRT_17TransferMetaFlags
LCd:_GuidParser_ThrowFormatException_m3223388534
ati:_Group_GetAnchorInfo_m3730312864
mVh:__ZL50Graphic_t1660335611_CustomAttributesCacheGeneratorP21CustomAttributesCache
ycg:_TimeSpan_op_LessThanOrEqual_m300470010
Vhf:_Interval_Merge_m3454211016_AdjustorThunk
Sda:__ZZN15DirectorManager15InitializeClassEvEN41FixedUpdateDirectorFixedUpdateRegistrator7ForwardEv
gLd:_MemoryStream_get_Position_m3733941202
s0b:__ZL10KeyHandleriPK23EmscriptenKeyboardEventPv
NIj:_glLinkProgram__wrapper
ykb:__ZN18ScriptingArguments8AddInt64Ex
Cza:__ZN6prcoreL12RemapGenericI17TexFormatARGB888815TexFormatBGR888EEvPKNS_9InnerInfoE
dlb:__ZN12HandlerChain4LockER13FileEntryData12FileLockMode
fGf:_TextInfo_get_ListSeparator_m1628160079
LZe:_Selectable_OnCanvasGroupChanged_m472903475
u9f:_EventWaitHandle_Reset_m3348053200
KWc:__ZN28UnityConnectScriptingClasses23CallSessionStateChangedEixxbP21ScriptingExceptionPtr
Paj:__ZN6il2cpp6icalls8mscorlib6System13Globalization11CultureInfo35construct_internal_locale_from_nameEP17Il2CppCultureInfoP12Il2CppString
Qub:__ZL22Transfer_ManagedObjectI24GenerateTypeTreeTransferLb1EEvRK29SerializationCommandArgumentsR31RuntimeSerializationCommandInfo
IMb:__ZN15RenderNodeQueueC2E10MemLabelId
F3d:_ResourceEnumerator_FillCache_m1661715061
Lxh:__ZL72SecuritySafeCriticalAttribute_t3505979402_CustomAttributesCacheGeneratorP21CustomAttributesCache
Zj:_emscripten_set_main_loop_timing
qjg:_Bounds_get_min_m3755135869
aCd:_Convert_ToUInt16_m3523269149
xva:__ZN14DataBufferGLES12RecordRenderEv
p0c:_ExecuteEvents_get_endDragHandler_m2879610446
FYb:__ZN14ImageReference10FlipImageYEv
onc:__Z14GetDefaultSkini
iF:__ZN4FMOD3DSP9setBypassEb
l0b:__Z19NormalizeWheelInputf
xad:_Graphic_DoMeshGeneration_m3548487693
$qi:_Repetition__ctor_m1672362629
nwc:__Z29Transfer_Blittable_ArrayFieldI8JSONReadhEvRT_R9ArrayInfoRK23StaticTransferFieldInfo
sof:_SecurityFrame_ToString_m339310712_AdjustorThunk
D_d:_TypeBuilder_create_runtime_class_m2581270900
ile:_InternalEnumerator_1_get_Current_m3008260692_gshared
ytj:__ZN6il2cpp2os20ThreadLocalValueImpl8SetValueEPv
OTa:__ZN22RenderingCommandBuffer20CleanupCommandBufferEv
szf:_Decimal_op_Implicit_m2299919277
crc:__Z18Transfer_BlittableI9JSONWriteLb1EtEvRK29SerializationCommandArgumentsR31RuntimeSerializationCommandInfo
cOd:_UnexceptionalStreamReader_ReadToEnd_m920589220
Utf:_DateTime_System_IConvertible_ToType_m1242864300
Dqf:_String_IndexOf_m1298810678
rk:___syscall85
_Ei:__ZL25UnresolvedVirtualCall_198P12Il2CppObjectfPK10MethodInfo
NMb:__ZNSt3__26__sortIRPFbP10GUIElementS2_EPS2_EEvT0_S7_T_
Z6b:__ZN16GraphicsSettings12CleanupClassEv
zVd:_ConstructorBuilder_GetILGenerator_m1750792206
r5f:_EncoderFallback_get_ReplacementFallback_m818398284
lhj:__ZN6il2cpp2os6Thread19DetachCurrentThreadEv
L$c:_EventTrigger_OnBeginDrag_m4203438710
GLi:__ZN6il2cpp2vmL21SetupInterfacesLockedEP11Il2CppClassRKNS_2os12FastAutoLockE
N5e:_PKCS1_Sign_v15_m2719206817
rz:__ZN23AnimationPlayableOutput17SetSourcePlayableEP8Playable
qlg:_CullingGroup_Dispose_m782801025
mS:__ZN11UnityEngine15CloudWebService14DataDispatcher15SetupWebRequestEv
XTc:__ZN11UnityEngine15PlatformWrapper13GetShaderCapsEv
nUb:__ZNSt3__211__sift_downIR26RenderDeferredObjectSorterP16RenderObjectDataEEvT0_S5_T_NS_15iterator_traitsIS5_E15difference_typeES5_
g5e:_KeyPairPersistence_get_MachinePath_m3812267291
izd:_Stack_Peek_m2216191248
Htf:_DateTime_System_IConvertible_ToDecimal_m1044850612_AdjustorThunk
H7b:__ZN21FixedBehaviourManager6UpdateEv
scc:__ZN9Transform9SetParentEPS_NS_15SetParentOptionE
N4:__ZN19ShaderPropertySheet8SetFloatEN9ShaderLab16FastPropertyNameEfNS_8SetFlagsE
tgb:__ZN19RuntimeSceneManager24BeginIntegrateMainThreadEP10UnityScene
Xhj:__ZNSt3__2plIcNS_11char_traitsIcEENS_9allocatorIcEEEENS_12basic_stringIT_T0_T1_EERKS9_S6_
dNd:_StringReader_CheckObjectDisposedException_m3796163530
Ija:__ZN9ShaderLab20SerializedSubProgramaSERKS0_
szj:_roundf
ard:_Byte_System_IConvertible_ToSingle_m324484566_AdjustorThunk
dzf:_Decimal_op_Explicit_m2848387298
Q_f:_KeyValuePair_2_ToString_m1238786018_gshared
Xs:__ZN8Animator15SetPrepareStageEv
JE:__ZN8AnimatorC2E10MemLabelId18ObjectCreationMode
HLi:__ZN6il2cpp2vmL24SetupTypeHierarchyLockedEP11Il2CppClassRKNS_2os12FastAutoLockE
t0b:__ZL11TextHandleriPK23EmscriptenKeyboardEventPv
LKc:_destroy_face
_Ej:_glBlendEquationSeparate__wrapper
uqj:__ZN6il2cpp6icalls8mscorlib6System8Security12Cryptography24RNGCryptoServiceProvider13RngInitializeEP11Il2CppArray
_L:__ZN20SoundChannelInstance7setMuteEb
ORd:_NumberFormatter_NumberToString_m3906556024
Azb:__Z19TransferField_ArrayI18StreamedBinaryReadILb1EE27Converter_SimpleNativeClassI17AnimationCurveTplIfEEEvRK23StaticTransferFieldInfoR31RuntimeSerializationCommandInfoRT0_
awa:__ZN18GfxFramebufferGLES22MakeCurrentFramebufferENS_7BuiltinE
l7:__ZN12CachedReader4ReadEPvj
_2c:_StandaloneInputModule_ProcessMouseEvent_m2923582521
Q1e:_SimpleCollator_MatchesForwardCore_m850743967
bRb:__Z24CalculateLightShadowFadeRK6CamerafffR8Vector4f
Aaa:__ZN19RuntimeSceneManagerD2Ev
xDf:_CCGregorianCalendar_GetMonth_m1547203696
CT:__ZN11UnityEngine15CloudWebService25WebRequestDownloadHandler17OnCompleteContentEv
Tya:__ZN6prcore17GetIntegerBlitterE13TextureFormatS0_N14ImageReference8BlitModeE
zoj:_GC_print_block_descr
X_i:__ZN6il2cpp2gc19AppendOnlyGCHashMapINSt3__24pairIPK11Il2CppImageP11Il2CppClassEEP22Il2CppReflectionModule17ReflectionMapHashIS9_ENS2_8equal_toIS9_EEE11TryGetValueERKS9_PSB_
oec:__ZN9BlobWrite14ReduceCopyImplERK14ReduceCopyDataj
a9:__ZNSt3__26__treeI19RepeatingLogMessageNS_4lessIS1_EE13stl_allocatorIS1_L18MemLabelIdentifier73ELi16EEE12__find_equalIS1_EERPNS_16__tree_node_baseIPvEESD_RKT_
KP:__ZN11AudioSource18IsPlayingScriptingEv
_4e:_KeyBuilder_IV_m2230195376
QDj:_glShaderSource__wrapper
xOa:__ZN25MultiBlocksMemoryFileData17AdjustBlocksCountEj
f8i:__ZNSt3__214__split_bufferIN6il2cpp2vm22EmbeddedResourceRecordERNS_9allocatorIS3_EEED2Ev
eJc:__ZN13TextRendering4Font8TransferI24GenerateTypeTreeTransferEEvRT_
Jfc:__Z27CullingGroup_CUSTOM_DisposeP12Il2CppObject
P7i:__ZN6il2cpp6icalls8mscorlib6SystemL23CheckWideningConversionEjjj
iXc:__ZNSt3__26vectorIP19BaseConnectSettings13stl_allocatorIS2_L18MemLabelIdentifier6ELi16EEE21__push_back_slow_pathIKS2_EEvRT_
sMb:__ZN13ComputeShader15SetTextureParamEjRKN9ShaderLab16FastPropertyNameE9TextureID16TextureDimension
zm:_glStencilMask
Lhj:__ZN6il2cpp2os10ThreadImpl16GetCurrentThreadEv
n1d:_MonoMethod_GetBaseDefinition_m2844667474
n0b:__ZN15GUIEventManager10QueueEventERK10InputEvent
o4d:_DecimalConstantAttribute__ctor_m3583301917
$nj:_GC_push_conditional_with_exclusions
ywe:_Enumerator_System_Collections_IDictionaryEnumerator_get_Entry_m2772123357_AdjustorThunk
OJe:_MethodCallDictionary__ctor_m2167303393
RB:__ZN12_GLOBAL__N_121ProcessAnimationBeginER35AnimationPlayableEvaluationConstantR32AnimationPlayableEvaluationInputR33AnimationPlayableEvaluationOutput
Fnj:_GC_make_disappearing_links_disappear
xwj:_strrchr
Ukg:_Component_GetComponentInParent_m779177818
A3c:_UIBehaviour_IsDestroyed_m3033055982
_Mg:__Z109RuntimeInvoker_Void_t1185182177_RuntimeObject_RuntimeObject_SByte_t1669577662_Int32_t2950945753_RuntimeObjectPFvvEPK10MethodInfoPvPS4_
TPe:_InputField_get_readOnly_m3111985574
tYa:__ZN14RenderSettings27UpdateIndirectSpecularColorEv
jeb:__ZN14PlayerSettings8TransferI18StreamedBinaryReadILb0EEEEvRT_
yUi:__ZN6il2cpp6icalls8mscorlib6System8MonoType16GetMethodsByNameEP20Il2CppReflectionTypeP12Il2CppStringibS5_
N9f:_Monitor_Monitor_wait_m3706677354
Wid:_RijndaelTransform__cctor_m2439033240
KIb:__ZNSt3__27__sort3IRNS_4lessIN22BuiltinResourceManager8ResourceEEEPS3_EEjT0_S7_S7_T_
BHc:_ps_hints_t2mask
r2h:_LayoutGroup_SetProperty_TisVector2_t2156229523_m2721164497_gshared
PIf:_Array_InternalArray__ICollection_Remove_TisMonoResource_t4103430009_m238733686_gshared
AHd:_IntPtr_ToString_m1831665121
G_e:_Slider_Set_m1476104429
jcd:_Image_set_fillClockwise_m2210525152
Vab:__ZN10BlendShape8TransferI19StreamedBinaryWriteILb0EEEEvRT_
rHd:__Z21il2cpp_codegen_sizeofP11Il2CppClass
MCa:__Z19GetTimeSinceStartupv
Jcd:_Image_AddQuad_m2161647989
V1f:_Enumerator_System_Collections_IEnumerator_Reset_m2953002685_gshared
XGc:_TT_Load_Composite_Glyph
g$a:__ZN9ShaderLab11shaderprops9GetTexEnvEPK19ShaderPropertySheetS3_NS_16FastPropertyNameE16TextureDimensionb
vPb:__ZN29RenderNodeQueuePrepareContextC2Ev
u4i:_il2cpp_gc_disable
Uka:__ZN9ShaderLab20SerializedSubProgram16TextureParameter8TransferI24GenerateTypeTreeTransferEEvRT_
Rgd:_DSASignatureDeformatter_SetKey_m2999549245
Uqj:__ZN6il2cpp2os11MutexHandle4WaitEb
lpa:__ZN9GfxDevice19SaveStereoConstantsEv
Tqj:__ZN6il2cpp2os11MutexHandle4WaitEj
edc:__ZL34GetComponentsImplementationRecurseILb1ELi1ELi1EEbR10GameObjectbRK17CompareParametersRK39GetComponentsImplementation_ReturnValue
gFg:__Z114RuntimeInvoker_Boolean_t97287965_RuntimeObject_RuntimeObject_Int32_t2950945753_Int32_t2950945753_Int32_t2950945753PFvvEPK10MethodInfoPvPS4_
RUd:_AssemblyBuilder_GetTypes_m3415680380
MAa:__ZN6prcoreL17RemapGenericFloatI15TexFormatRGHalf18TexFormatARGBFloatEEvPKNS_9InnerInfoE
PGb:__Z18SimulateMouseInputi
JLb:__ZN13RenderManager23AddRemoveCamerasDelayedEv
hsc:__ZN9JSONWrite8TransferI13dynamic_arrayIdLj8EEEEvRT_PKc17TransferMetaFlags
Jpc:__ZN5Unity9rapidjson6WriterI16TempBufferWriterNS0_4UTF8IcEES4_13JSONAllocatorE11WriteUint64Ey
$od:_BitConverter__cctor_m3841343255
syf:_Decimal_Compare_m3062820418
aif:_IntervalCollection_GetMetaCollection_m4029522214
G$c:_EventTrigger_OnDeselect_m1919608102
xGi:_TextGenerator_get_characterCount_m864136654
Abg:_TimeSpan__ctor_m2047388489_AdjustorThunk
rXb:__ZN13RenderTexture8SetWidthEi
ZGc:_UNITY_FT_GlyphLoader_CheckSubGlyphs
GRb:__Z25SetupObjectBakedOcclusionbRK15SharedLightDataRK26SharedLightmapSettingsDataRK15LightmapIndicesR17ShaderPassContext
rdh:_Collection_1_System_Collections_ICollection_CopyTo_m1516601228_gshared
V4:__ZN9ShaderLab16FastPropertyName4InitEPKc
W2b:__Z13RegisterClassIN2UI13RectTransformEEvv
r6b:__ZL31MeshRendererTransformChangedJobP13BoundsJobDatajPK23TransformAccessReadOnlyPKyj
Cuc:__ZN8JSONRead21TransferSTLStyleArrayI31ArrayOfManagedObjectsTransfererEEvRT_17TransferMetaFlags
Lrd:_Char_System_IConvertible_ToByte_m2347554595_AdjustorThunk
hZa:__ZN13RenderTexture9SetMipMapEb
Frf:_String_CreateString_m860434552
mea:__Z18GetDirectorManagerv
oAe:_Enumerator_System_Collections_IEnumerator_Reset_m278261807_AdjustorThunk
Njc:__Z38Transform_CUSTOM_INTERNAL_get_rotationP12Il2CppObjectP11Quaternionf
M_i:__ZNK15dense_hashtableINSt3__24pairIK10KeyWrapperINS1_IPK10MethodInfoP11Il2CppClassEEEjEES9_17ReflectionMapHashIS8_EN14dense_hash_mapIS9_jSD_NS9_14EqualsComparerINS0_8equal_toIS8_EEEENS0_9allocatorISB_EEE9SelectKeyESI_SK_E5beginEv
cua:__ZN7ApiGLES19UploadBufferSubDataEjN2gl12BufferTargetEllPKv
yga:__ZNSt3__216__rotate_forwardINS_11__wrap_iterIPN4core12basic_stringIcNS2_20StringStorageDefaultIcEEEEEEEET_S9_S9_S9_
fzg:_Vector2_GetHashCode_m3916089713
uwg:_SendMouseEvents_HitTestLegacyGUI_m579942228
VQd:_MulticastDelegate_Equals_m2502840627
clf:_SymmetricAlgorithm_set_KeySize_m3805756466
grd:_Byte_System_IConvertible_ToUInt32_m1049546902_AdjustorThunk
cOg:__Z53RuntimeInvoker_Double_t594665363_Interval_t1802865632PFvvEPK10MethodInfoPvPS4_
VIb:__Z21InitializeBatchedJobsv
tIi:_CanvasGroup_get_blocksRaycasts_m1805542303
Mjf:_SHA1Internal_ProcessBlock_m1991889327
Kpb:__Z19TransferField_ArrayI14SafeBinaryRead27Converter_SimpleNativeClassI8GUIStyleEEvRK23StaticTransferFieldInfoR31RuntimeSerializationCommandInfoRT0_
T$h:_Array_Sort_TisRuntimeObject_TisRuntimeObject_m1685639929_gshared
Dqj:__ZN6il2cpp5utils10MemoryPoolC2Ev
QXa:__ZN14RenderSettings5ResetEv
R1b:__ZN6Sprite9BindAtlasERK4PPtrI11SpriteAtlasE
Roc:__ZN5Unity9rapidjson12GenericValueINS0_4UTF8IcEE13JSONAllocatorE10FindMemberIS4_EENS0_21GenericMemberIteratorILb0ES3_S4_EERKNS1_IS3_T_EE
Voe:_InternalEnumerator_1_System_Collections_IEnumerator_get_Current_m3892960115_AdjustorThunk
O9i:__ZNSt3__212basic_stringIDsNS_11char_traitsIDsEENS_9allocatorIDsEEE6appendEPKDsj
Itd:_ArrayList_Clone_m2682741233
vhd:_HMAC_HashCore_m3684104066
ppc:__ZN5Unity9rapidjson13GenericReaderINS0_4UTF8IcEES3_13JSONAllocatorE11ParseNumberILj1ENS0_25GenericInsituStringStreamIS3_EENS0_15GenericDocumentIS3_S4_S4_EEEEvRT0_RT1_
vhj:__ZN6il2cpp2os10ThreadImplD2Ev
kqc:__ZN8Gradient8TransferI9JSONWriteEEvRT_
bhb:__ZN21RendererUpdateManager18OncePerFrameUpdateER13RendererScene
jBi:_AudioSource_set_clip_m31653938
XKa:__ZNK12TLSAllocatorI14StackAllocatorE22GetAllocatedMemorySizeEv
d3:__ZN17RemapPPtrTransfer12PushMetaFlagE17TransferMetaFlags
qXf:_EqualityComparer_1_System_Collections_IEqualityComparer_GetHashCode_m2138064395_gshared
Qkb:__ZN12HandlerChain4NameEv
rDd:_Int16_System_IConvertible_ToType_m3672347013_AdjustorThunk
Qqf:_String_LastIndexOf_m578673845
xrb:__Z29Transfer_Blittable_ArrayFieldI14SafeBinaryReadN4math12int3_storageEEvRT_R9ArrayInfoRK23StaticTransferFieldInfo
cof:_SecurityException_ToString_m3228070608
bFd:_Int16_ToString_m2013897809
eof:_String_Substring_m2848979100
DRc:__Z44Register_UnityEngine_CanvasRenderer_get_cullv
M3h:_ScriptableObject_CreateInstance_TisRuntimeObject_m1552711675_gshared
gTc:__ZN11UnityEngine7Connect17XRDeviceInfoEvent12XRDeviceInfoD2Ev
Mnb:__Z44InitializeTransferFunctionScriptingTraitsForI17RemapPPtrTransferEvR31TransferFunctionScriptingTraits
D3b:__ZNSt3__26vectorI16MessageForwarder13stl_allocatorIS1_L18MemLabelIdentifier7ELi8EEE6resizeEj
kef:_X509Chain_SelectBestFromCollection_m1068759221
cyi:_SymmetricTransform_TransformBlock_m851059707
rlh:__ZL68IntPtr_t_CustomAttributesCacheGenerator_IntPtr_ToPointer_m4157623054P21CustomAttributesCache
nah:_Enumerator_System_Collections_IEnumerator_Reset_m2261065994_AdjustorThunk
wYe:_ScrollRect_get_verticalNormalizedPosition_m3693218937
rgb:__ZN18LoadSceneOperation21MustCompleteNextFrameEv
I_e:_Slider_UpdateDrag_m1102107039
R1d:_MonoMethodInfo_get_method_info_m88651774
$L:__ZNK12AudioManager16GetAudioListenerEv
oFd:_Int32_System_IConvertible_ToDateTime_m1824716955
jed:_RuntimeTypeHandle__ctor_m3315980708_AdjustorThunk
_Hi:_Canvas_set_overrideSorting_m4088794420
YWb:__ZNSt3__26vectorI11CameraStackNS_9allocatorIS1_EEE8__appendEj
su:__ZN7mecanim9animation12GetHumanPoseERKNS0_18ClipMuscleConstantEPKNS0_10ValueDeltaERNS_5human9HumanPoseE
iw:__ZN22AnimationMixerPlayable17ProcessRootMotionEP35AnimationPlayableEvaluationConstantP32AnimationPlayableEvaluationInputP33AnimationPlayableEvaluationOutput
$0:__Z13GetFileSystemv
mba:__ZNK5Unity4Type21FindAllDerivedClassesER13dynamic_arrayIPKS0_Lj4EENS0_17TypeFilterOptionsE
fca:__ZN13RuntimeStaticI15GUIEventManagerLb0EE16StaticInitializeEPv
Fhg:_Version_CompareTo_m3146217210
Jde:_TlsClientCertificate_FindParentCertificate_m3844441401
Sti:_Uri_ParseAsUnixAbsoluteFilePath_m1476768041
IOf:_Array_InternalArray__ICollection_CopyTo_TisKeyValuePair_2_t71524366_m1056941380_gshared
Ucg:_Type_get_IsClass_m589177581
edg:_Type_get_IsSystemType_m624798880
enb:__ZN19ShaderPropertySheet9SetMatrixEN9ShaderLab16FastPropertyNameERK10Matrix4x4fNS_8SetFlagsE
q3a:__Z29GetTextureSizeAllowedMultiple13TextureFormat
kyf:_Decimal_Subtract_m835601464
Xfb:__ZNSt3__26vectorIN4core12basic_stringIcNS1_20StringStorageDefaultIcEEEE13stl_allocatorIS5_L18MemLabelIdentifier13ELi16EEE8__appendEj
X7b:__ZN21IntermediateRenderers3AddEP20IntermediateRenderer
F3i:_il2cpp_array_element_size
WOd:_MissingMemberException__ctor_m2571045846
_jh:__ZL62ComVisibleAttribute_t1362837655_CustomAttributesCacheGeneratorP21CustomAttributesCache
nvg:_RectTransform_INTERNAL_set_sizeDelta_m188783163
Wf:_glCheckFramebufferStatus
_pj:__ZN6il2cpp2os11EventHandle4WaitEv
UU:__ZN19CloudServiceHandler20StartEventDispatcherERKN11UnityEngine15CloudWebService18CloudServiceConfigERNS1_23WebRequestRestHeaderMapE
Xad:_GraphicRaycaster__ctor_m646559428
Dvd:_BitArrayEnumerator_get_Current_m4220391712
iTd:__Z37il2cpp_codegen_get_executing_assemblyPK10MethodInfo
Ovg:_Transform_get_parent_m835071599
qaf:_IPAddress_get_ScopeId_m4237202723
vr:__ZN4core8hash_mapIN11UnityEngine9Animation14GenericBindingENS2_10BoundIndexENS2_25GenericBindingHashFunctorENS2_30GenericBindingValueArrayUniqueEE4growEi
Ft:__ZN21AnimationClipPlayable7SetTimeEd
dri:_ExpressionCollection_get_Item_m3510736379
eVh:__ZL62FontData_t746620069_CustomAttributesCacheGenerator_m_AlignmentP21CustomAttributesCache
z2c:_StandaloneInputModule_get_inputActionsPerSecond_m3946624274
R8f:_UTF8Encoding_InternalGetCharCount_m82458470
uzg:_Vector2__cctor_m2108982652
ur:__ZN4core8hash_mapIN11UnityEngine9Animation14GenericBindingENS2_10BoundIndexENS2_25GenericBindingHashFunctorENS2_30GenericBindingValueArrayUniqueEE4growEv
dbj:__ZN14dense_hash_mapI10KeyWrapperIP14Il2CppIUnknownEjN6il2cpp5utils11PointerHashIS1_EENS3_14EqualsComparerINSt3__28equal_toIS2_EEEENS9_9allocatorINS9_4pairIKS3_jEEEEE15set_deleted_keyERSF_
zba:__ZN22BuiltinResourceManager16StaticInitializeEPv
q1i:__ZN13Il2CppHashMapIPK14Il2CppAssemblyPK22Il2CppMonoAssemblyNameN6il2cpp5utils11PointerHashIS1_EENSt3__28equal_toIS2_EENSA_9allocatorINSA_4pairIK10KeyWrapperIS2_ES5_EEEEEC2EjRKS9_RKSC_
gmd:_DelegatePInvokeWrapper_AppDomainInitializer_t682969308
g0:__ZN8Remapper6RemoveEi
S5f:_Encoding_GetBytes_m3148649984
vLc:__ZL36CleanupTextRenderingScriptingClassesv
oXb:__ZN15ReflectionProbe17UseRendererResultEP13ProbeRenderer
alc:__Z34Mesh_CUSTOM_SetArrayForChannelImplP12Il2CppObject30InternalScriptingShaderChannel34InternalScriptingVertexChannelTypeiP11Il2CppArrayi
Z_:__Z32scripting_class_get_nested_types17ScriptingClassPtrRNSt3__26vectorIS_13stl_allocatorIS_L18MemLabelIdentifier1ELi16EEEE
BIi:_CanvasRenderer_INTERNAL_CALL_EnableRectClipping_m3318097918
hgg:_UInt64_System_IConvertible_ToDecimal_m806594027_AdjustorThunk
twe:_Enumerator_System_Collections_IEnumerator_get_Current_m361750367_AdjustorThunk
_Le:_RealProxy_InternalGetTransparentProxy_m1765012608
G0g:_List_1__ctor_m3395838871_gshared
S4h:_Collection_1_IsFixedSize_m3698021882_gshared
Pli:_PKCS12__ctor_m1854440921
v$h:_Array_Resize_TisCustomAttributeNamedArgument_t287865710_m885566878_gshared
TD:__ZN11UnityEngine9Animation28GenericAnimationBindingCache25RegisterIAnimationBindingEPKN5Unity4TypeEiP17IAnimationBinding
HRc:__Z70RectTransformUtility_CUSTOM_INTERNAL_CALL_RectangleContainsScreenPointP12Il2CppObjectRK13Vector2fIcallS0_
eJd:_DirectoryInfo__ctor_m481305441
v9:__ZN10MemoryPoolC2E10MemLabelIdbPKciii
QVb:__Z40ProcessCameraIndexListIsNodeVisibleInOutRK22SceneCullingParametersPK9SceneNodePK4AABBR9IndexList
Zwi:_GUIScrollGroup_SetHorizontal_m291416666
wVa:__ZN16GraphicsSettings8TransferI17RemapPPtrTransferEEvRT_
iPc:__ZN2UI6Canvas13UpdateBatchesEb
gcf:_X509BasicConstraintsExtension_Decode_m120598446
oz:__ZNK23AnimationPlayableOutput11DerivesFromE17ScriptingClassPtr
SPh:__ZL64EventType_t3528516131_CustomAttributesCacheGenerator_dragUpdatedP21CustomAttributesCache
wUc:__ZN11UnityEngine7Connect13ConfigHandler12GetListenersERKN4core12basic_stringIcNS2_20StringStorageDefaultIcEEEE
Iqa:__ZN9GfxDevice18AllocRenderSurfaceEb
Drd:_Char__cctor_m2787437263
K1b:__ZN10TagManager32GetSortingLayerUniqueIDFromValueEi
O3c:_AspectRatioFitter_get_rectTransform_m2996235303
M_:__ZL27CleanupCoreScriptingClassesv
Uad:_Graphic_UnregisterDirtyMaterialCallback_m2707090617
yve:_Comparer_1_System_Collections_IComparer_Compare_m1313384821_gshared
Rhc:__Z26AnimationCurve_CUSTOM_InitP12Il2CppObjectP11Il2CppArray
tHj:_glUniform1uiv__wrapper
b1i:__ZN6il2cpp2vm10Reflection7IsEventEP12Il2CppObject
zZ:__ZN17PersistentManager26GetStreamNameSpaceInternalEi
XF:__ZN4FMOD6System11createSoundEPKcjP22FMOD_CREATESOUNDEXINFOPPNS_5SoundE
Xn:FUNCTION_TABLE_iiifiiii
sxc:__ZN13SpeedTreeWind20AdvanceWithoutUpdateEd
Gtf:_DateTime_System_IConvertible_ToDecimal_m1044850612
_9:__ZN9ShaderLab19CommonPropertyNames13StaticCleanupEPv
A$:__Z31scripting_method_get_returntype18ScriptingMethodPtr
L4a:__ZN15SerializeTraitsI12LightmapDataE8TransferI24GenerateTypeTreeTransferEEvRS0_RT_
zmf:_SecurityElement_AddAttribute_m311510562
SDj:_glStencilOpSeparate__wrapper
Hac:__ZN4Mesh5SetUvEiPKfjj
M5a:__ZN7Texture13SetAnisoLimitENS_20AnisotropicFilteringE
XN:__ZN11AudioModule16SetListenerPauseEb
Rod:_Attribute_IsDefined_m4069052474
Qh:_emscripten_glCompressedTexSubImage2D
sDa:__ZN13GfxDeviceGLES22MemoryBarrierImmediateEyN2gl17MemoryBarrierTypeE
_Aa:__ZN6prcoreL26RemapGenericFloatToIntegerI18TexFormatARGBFloat17TexFormatARGB8888EEvPKNS_9InnerInfoE
a9g:_List_1_set_Capacity_m1977188119_gshared
_cc:__Z46GetShaderModelNumericValueFromRequirementsMask18ShaderRequirements
eBc:_cff_ps_has_glyph_names
xTf:_Dictionary_2_Resize_m3287623642_gshared
Dmj:_GC_write
qid:_RC2_Create_m2516417038
Ead:_Graphic_OnPopulateMesh_m767318148
YCe:_Dictionary_2_Remove_m4193450060_gshared
ZGd:_Int64_TryParse_m3606398488
v_h:_Array_InternalArray__set_Item_TisMark_t3471605523_m1299772331_gshared
Doc:__Z44Register_UnityEngine_GUIStyle_SetDefaultFontv
Jxb:__Z18Transfer_BlittableI18StreamedBinaryReadILb1EELb1EiEvRK29SerializationCommandArgumentsR31RuntimeSerializationCommandInfo
QA:__ZN9BlobWrite8TransferI22OffsetPtrArrayTransferIKN4math7_float3EEEEvRT_PKc17TransferMetaFlags
mFg:__Z173RuntimeInvoker_Int32_t2950945753_RuntimeObject_Int32_t2950945753_Int32_t2950945753_Int32_t2950945753_RuntimeObject_Int32_t2950945753_SByte_t1669577662_ContextU26_t3937453398PFvvEPK10MethodInfoPvPS4_
A2g:_List_1__ctor_m2576108087_gshared
R$i:__ZN15dense_hashtableINSt3__24pairIK10KeyWrapperINS1_IPK12PropertyInfoP11Il2CppClassEEEjEES9_17ReflectionMapHashIS8_EN14dense_hash_mapIS9_jSD_NS9_14EqualsComparerINS0_8equal_toIS8_EEEENS0_9allocatorISB_EEE9SelectKeyESI_SK_E12maybe_shrinkEv
kmi:_X509Certificate_get_DSA_m565099499
iyb:__Z18Transfer_BlittableI18StreamedBinaryReadILb1EELb1EsEvRK29SerializationCommandArgumentsR31RuntimeSerializationCommandInfo
h7f:_StringBuilder_Remove_m940064945
kgd:_DESCryptoServiceProvider_GenerateIV_m683687014
use:_InternalEnumerator_1_get_Current_m3792939945_gshared
LSc:__ZN22BaseUnityConnectClient17OnEnterStateReadyEv
y$e:_Text_get_fontSize_m1677872538
Fgd:_DSACryptoServiceProvider_get_PublicOnly_m3933928860
LTa:__ZN14GrowableBufferD2Ev
fhc:__Z29Input_CUSTOM_GetMouseButtonUpi
IDd:_Int16_Parse_m138525169
YUi:__ZN6il2cpp6icalls8mscorlib6System8MonoType16InternalGetEventEP20Il2CppReflectionTypeP12Il2CppStringi
Kui:_UriScheme_t722425697_marshal_pinvoke_back
YCc:_UNITY_tt_face_load_maxp
uhc:__Z46Input_CUSTOM_INTERNAL_set_compositionCursorPosRK13Vector2fIcall
yt:__ZN7mecanim5human12FullBodyMaskEv
x2e:_BigInteger_ToString_m3475000413
Zbb:__ZN19ShaderPropertySheet11ComputeHashEv
jPi:__ZN30dense_hashtable_const_iteratorI10KeyWrapperIPK19Il2CppGenericMethodES4_N6il2cpp8metadata23Il2CppGenericMethodHashEN14dense_hash_setIS4_S7_NS4_14EqualsComparerINS6_26Il2CppGenericMethodCompareEEENSt3__29allocatorIS4_EEE8IdentityESB_SE_EppEv
lT:__ZN11UnityEngine15CloudWebService20WebRequestRestClient6IsDoneEv
Jki:_X509CertificateCollection_get_Item_m1033426577
Ni:_llvm_fabs_f32
QS:__ZN11UnityEngine15CloudWebService16SessionContainer16GetJsonDataBlockEjRKN4core12basic_stringIcNS2_20StringStorageDefaultIcEEEERS6_PjSA_
O3e:_ASN1_Decode_m1695284166
RBf:_Enum_ToString_m3248653065
PZ:__ZN14SafeBinaryReadD2Ev
P2b:__Z13RegisterClassI7TextureEvv
a2f:_Enumerator_MoveNext_m3859993671_gshared
yzb:__ZN8Gradient8TransferI18StreamedBinaryReadILb1EEEEvRT_
Tff:_Capture__ctor_m3103117740
O7a:__ZN4core8hash_mapINS_12basic_stringIcNS_20StringStorageDefaultIcEEEE13dynamic_arrayI4PPtrI6SpriteELj4EENS_4hashIS4_EENSt3__28equal_toIS4_EEEixERKS4_
kEg:__Z113RuntimeInvoker_Void_t1185182177_RuntimeObject_Int64_t3736567304_RuntimeObject_Int64_t3736567304_Int64_t3736567304PFvvEPK10MethodInfoPvPS4_
rtg:_RangeInt_get_end_m4128831787_AdjustorThunk
Baj:__ZN6il2cpp6icalls8mscorlib6System4Type15MakeGenericTypeEP20Il2CppReflectionTypeP11Il2CppArray
nj:_SDL_PauseAudio
rxd:_Hashtable_Clone_m3078962909
a4i:_il2cpp_class_from_type
_Vi:__ZN6il2cpp2os4File11GetStdErrorEv
Z9:__ZN9ShaderLab19CommonPropertyNames16StaticInitializeEPv
VC:__ZN7mecanim9animation18CreateAvatarOutputEPKNS0_14AvatarConstantEbbRNS_6memory9AllocatorE
dnd:_Array_GetLongLength_m561139708
o_e:_Slider_set_maxValue_m2251404465
TL:__ZN11AudioSource23VirtualRedirectTransferER24GenerateTypeTreeTransfer
rac:__ZN7Texture11SetWrapModeE15TextureWrapMode
j8a:__ZN14Texture2DArray23VirtualRedirectTransferER14SafeBinaryRead
ZOd:_MissingMemberException__ctor_m1220732369
YQb:__ZNK6Camera21CalculateCanDoShadowsEv
nig:_Application_InvokeOnBeforeRender_m2875673833
ehj:__ZN6il2cpp2os6Thread12SetStackSizeEj
_Ue:_MaskableGraphic_RecalculateMasking_m183336762
R2h:_Array_InternalArray__get_Item_TisRuntimeObject_m3347010206_gshared
T_d:_TypeBuilder_IsSubclassOf_m3458909121
mac:__ZNK8Renderer16IsVisibleInSceneEv
nZ:__Z13VFormatBufferPciPKcz
EAb:__Z18Transfer_BlittableI18StreamedBinaryReadILb0EELb1EhEvRK29SerializationCommandArgumentsR31RuntimeSerializationCommandInfo
Pjd:_X509Certificate__cctor_m198658613
psg:_PlayableHandle_Equals_m1666612586_AdjustorThunk
cBa:__ZN6prcoreL27StretchGenericFloatBilinearI15TexFormatRFloatEEvPKNS_9InnerInfoE
$Dh:__ZL139ServicePointManager_t170559685_CustomAttributesCacheGenerator_ServicePointManager_t170559685____CheckCertificateRevocationList_PropertyInfoP21CustomAttributesCache
bCf:_Enum_ToObject_m1628250250
lw:__Z24ProcessAnimationMixBeginP35AnimationPlayableEvaluationConstantP32AnimationPlayableEvaluationInputP33AnimationPlayableEvaluationOutput
j7g:_List_1_set_Item_m2057272351_gshared
fya:__Z14PadImageBorderR14ImageReferenceii
r_i:__ZN15dense_hashtableINSt3__24pairIK10KeyWrapperINS1_IPK10MethodInfoP11Il2CppClassEEEjEES9_17ReflectionMapHashIS8_EN14dense_hash_mapIS9_jSD_NS9_14EqualsComparerINS0_8equal_toIS8_EEEENS0_9allocatorISB_EEE9SelectKeyESI_SK_E4findERSA_
tSi:__ZN6il2cpp2vm13MetadataCache28GetFieldDefaultValueForFieldEPK9FieldInfo
bMf:_Array_IndexOf_TisUIVertex_t4057497605_m3336763564_gshared
Pw:__ZN27AnimationLayerMixerPlayableD2Ev
f6c:_ColorBlock_Equals_m518833916_AdjustorThunk
KLh:__ZL66PersistentCall_t3407714124_CustomAttributesCacheGenerator_m_TargetP21CustomAttributesCache
cI:__ZN12AudioManager39HandlePendingAudioConfigurationCallbackEv
kk:_emscripten_glIsFramebuffer
o6e:_RSAManaged_EncryptValue_m799827583
V1:__ZN12_GLOBAL__N_16qAtan2Eff
ok:_JS_Sound_SetLoopPoints
Lca:__ZN15dense_hashtableINSt3__24pairIKyP17VertexDeclarationEEy14GfxGenericHashIyEN14GfxDoubleCacheIyS4_S7_NS0_8equal_toIyEEN31GfxDoubleCacheConcurrencyPolicy11LocklessGetE42GfxDoubleCacheDefaultEmptyDeletedGeneratorIyEE9SelectKeyESA_13stl_allocatorIS5_L18MemLabelIdentifier24ELi16EEE14squash_deletedEv
fN:__ZN12AudioManager17ShouldSourcePauseEb
crj:__ZN6il2cpp2vm26MetadataAllocGenericMethodEv
_If:_Array_InternalArray__ICollection_Remove_TisUInt16_t2177724958_m1766181761_gshared
cHa:__ZN19ConstantBuffersGLES12RecordRenderEv
asc:__ZN9JSONWrite8TransferI10RectOffsetEEvRT_PKc17TransferMetaFlags
Mxa:__ZN4crnd12symbol_codec11decode_bitsEj
_yc:_cf2_doFlex
vyi:_AesManaged_GenerateIV_m1368817386
MRa:__ZN13dynamic_arrayI17SortingLayerEntryLj4EE6insertEPS0_jRKS0_
gI:__ZN4FMOD6System12createReverbEPPNS_6ReverbE
hkj:__ZN6il2cpp2vm6String21InitializeEmptyStringEP11Il2CppClass
Gw:__ZN7mecanim19ValueArrayBlendNodeILb1EEEvRKNS_10ValueArrayERKNS_14ValueArrayMaskERS1_RS4_RNS_16ValueArrayWeightEf
yib:__Z16MarkDependenciesR27GarbageCollectorThreadStatej
Aji:_ObjectPool_1_get_countInactive_m526975942_gshared
RLe:_RemotingServices_DisposeIdentity_m2605848806
f2:__ZNK9Transform11GetPositionEv
mjg:_Bounds_set_size_m4127623202
JCd:_GuidParser_Reset_m2640004655
zWa:__ZN23SharedMeshRenderingData18UnloadVertexStreamEi
W7b:__ZN31CanvasBatchIntermediateRenderer11AddSubBatchERK16DrawBuffersRangePK19ShaderPropertySheet
E6b:__ZN19RenderEventsContextC2Ei
aR:__Z6simd4fRKf
Sk:_emscripten_glEnable
Rme:_InternalEnumerator_1_System_Collections_IEnumerator_get_Current_m2982675020_gshared
FRa:__ZN10TagManager23VirtualRedirectTransferER14SafeBinaryRead
KWh:__ZL51RawImage_t3182918964_CustomAttributesCacheGeneratorP21CustomAttributesCache
HTb:__Z15InitLightMeshesv
A0d:_MonoCMethod_ToString_m3992577062
An:FUNCTION_TABLE_iifiii
H5a:__ZN15QualitySettings8TransferI19StreamedBinaryWriteILb0EEEEvRT_
hUe:_LayoutUtility_U3CGetFlexibleHeightU3Em__7_m2991026842
Cyc:_cf2_arrstack_init
_2h:_Array_InternalArray__get_Item_TisResourceCacheItem_t51292791_m1306056717_gshared
YRg:__Z157RuntimeInvoker_Void_t1185182177_RuntimeObject_RuntimeObject_RuntimeObject_RuntimeObject_RuntimeObject_RuntimeObject_RuntimeObject_RuntimeObject_RuntimeObjectPFvvEPK10MethodInfoPvPS4_
dX:__Z15CleanLogHandler7LogTypePKcz
BRd:_NumberFormatter_NumberToString_m2481532188
Bla:__ZN9ShaderLab19SerializedSubShader8TransferI19StreamedBinaryWriteILb0EEEEvRT_
zYe:_ScrollRect_InternalGetBounds_m599803667
WDb:__ZN6Camera17RemoveImageFilterERK11ImageFilter
gna:__ZNSt3__218__insertion_sort_3IR25ValueParameterArraySorterPN20GpuProgramParameters14ValueParameterEEEvT0_S6_T_
PDh:__ZL67EditorBrowsableAttribute_t1475454531_CustomAttributesCacheGeneratorP21CustomAttributesCache
wwd:_Comparer__cctor_m3311686689
tme:_InternalEnumerator_1_get_Current_m3500427238_AdjustorThunk
QPc:__ZN2UI26InitializeDeviceForOverlayEi
_8:__Z27LogRepeatingStringWithFlagsRKN4core12basic_stringIcNS_20StringStorageDefaultIcEEEE15LogMessageFlagsi
sgg:_UInt64_System_IConvertible_ToSingle_m925613075
cCf:_Enum_IsDefined_m1442314461
dag:_Thread__cctor_m817723615
mAi:_AudioExtensionManager_RegisterBuiltinDefinitions_m2742744104
Zt:__ZN17AnimationPlayable28ComputeNeedsBindingRebuildedEv
et:__ZN17AnimationPlayable23RequestAllocateBindingsEv
Lsf:_DecoderReplacementFallbackBuffer_Fallback_m1261056214
MTd:_Binder_get_DefaultBinder_m950908649
wJd:_StreamReader__ctor_m1616861391
CVc:__ZN18UnityConnectClient33OnPlayerSessionStateChangedStaticEPS_jyy
Vif:_RSA_ToXmlString_m2922661427
XT:__ZNK11UnityEngine15CloudWebService23WebRequestUploadHandler11GetProgressEv
Mua:__ZN7ApiGLES4LoadE16GfxDeviceLevelGL
Y4a:__ZN18StreamedBinaryReadILb0EE21TransferSTLStyleArrayI13dynamic_arrayI31EnlightenSystemAtlasInformationLj8EEEEvRT_17TransferMetaFlags
Tdj:__ZN15dense_hashtableI10KeyWrapperIP18Il2CppGenericClassES3_N6il2cpp8metadata22Il2CppGenericClassHashEN14dense_hash_setIS3_S6_NS3_14EqualsComparerINS5_25Il2CppGenericClassCompareEEENSt3__29allocatorIS3_EEE8IdentityESA_SD_E15insert_noresizeERKS3_
L5b:__ZZL31RegisterOtherRendererPropertiesR22GenericPropertyBindingEN30Wrapper_RendererReceiveShadows13GetFloatValueEPv
wHf:_Array_InternalArray__ICollection_Contains_TisSlot_t384495010_m688761886_gshared
p3a:__ZN17SharedTextureDataC2E10MemLabelIdii13TextureFormatjiibb
OTg:__Z114RuntimeInvoker_RuntimeObject_RuntimeObject_Int32_t2950945753_Int32_t2950945753_Int32_t2950945753_Int32_t2950945753PFvvEPK10MethodInfoPvPS4_
bHb:__ZN8Material11SetPassFastEPN9ShaderLab4PassER17ShaderPassContextP6Shaderib
AVc:__ZN11UnityEngine7Connect20BasePersistentValues10SaveValuesER9JSONWrite
Dhh:_Collection_1_IsFixedSize_m3748602684_gshared
Itf:_DateTime_System_IConvertible_ToDouble_m2116720007
bmg:_Display_GetSystemExtImpl_m2808197389
rbg:_WaitHandle_WaitOne_m2577152516
Cjd:_X509Certificate_PEM_m1177570576
_he:_ArrayReadOnlyList_1_GetEnumerator_m1835926958_gshared
ubc:__Z14ScaleCurveTimeR17AnimationCurveTplIfEf
lca:__ZN22VirtualJoystickManagerC2Ev
Nba:__ZN20GlobalCachingManager7DisposeEv
WNb:__Z12SetupLODFadeR9GfxDeviceR17ShaderPassContextf
h1a:__ZNK14PlayableOutput7GetTypeEv
uTb:__ZL24CollectForwardObjectsJobP27CollectForwardObjectsHeader
pVb:__Z13IsNodeVisibleRK9SceneNodeRK4AABBRK22SceneCullingParameters
FMf:_Array_InternalArray__IndexOf_TisLabelFixup_t858502054_m1491765395_gshared
k1e:_SortKeyBuffer_AppendCJKExtension_m2591091991
JRc:__Z57RectTransformUtility_CUSTOM_INTERNAL_CALL_PixelAdjustRectP12Il2CppObjectS0_R5RectTIfE
L8f:_UTF8Encoding_GetByteCount_m4153686982
pWb:__Z24ScheduleCullingAllGroupsR8JobFenceRK22SceneCullingParametersiRK13CullingOutputRK13dynamic_arrayIP12CullingGroupLj4EERKS_
pJj:_emscripten_glStencilMask__wrapper
$Cg:__Z49RuntimeInvoker_Void_t1185182177_Double_t594665363PFvvEPK10MethodInfoPvPS4_
$Oi:__ZN15dense_hashtableI10KeyWrapperIPK19Il2CppGenericMethodES4_N6il2cpp8metadata23Il2CppGenericMethodHashEN14dense_hash_setIS4_S7_NS4_14EqualsComparerINS6_26Il2CppGenericMethodCompareEEENSt3__29allocatorIS4_EEE8IdentityESB_SE_EC2ERKSH_j
FTa:__ZN15RenderNodeQueue7CleanupEv
k2d:_MonoProperty_CreateGetterDelegate_m2478402519
Dwc:__ZN16NovodexAllocator8allocateEjPKcS1_i
$$a:__ZN39DeprecatedFastPropertyNameSerialization8TransferI14SafeBinaryReadEEvRT_
bmi:_DeriveBytes_DeriveIV_m973925711
zFd:_Int32_System_IConvertible_ToSByte_m3133688512
rTb:__ZN9ShaderLab10GrabPassesD2Ev
IYe:_ScrollRect_CalculateOffset_m927043599
u8a:__ZN14Texture2DArray13UploadTextureEv
KUe:_MaskableGraphic_UpdateCull_m2805101913
FDc:_tt_cmap14_done
ugb:__ZN18AwakeFromLoadQueue25RegisterObjectInstanceIDsEv
Uw:__ZNK27AnimationLayerMixerPlayable11DerivesFromE17ScriptingClassPtr
RJc:__ZN20TextRenderingPrivate19NativeTextGenerator15InsertCharacterEiPj
_Pd:_MonoType_get_attributes_m1332507727
mwi:_GUIContent_ClearStaticCache_m1205116045
YMe:_BinaryCommon__cctor_m2978407547
Jrd:_Char_System_IConvertible_ToByte_m2347554595
yLc:__ZN20TextRenderingPrivate15DynamicFontData21GetFontMetricsForFaceERK13dynamic_arrayIN4core17string_with_labelILi35EEELj4EEiRKS1_I4PPtrIN13TextRendering4FontEELj4EEPfSF_
iii:_IndexedSet_1__ctor_m2250384602_gshared
Weg:_UInt16_TryParse_m4139137016
Sij:__ZN6il2cpp2gc16GarbageCollector9FreeFixedEPv
F5f:_Encoding__ctor_m2997749867
hpg:_ManagedStreamHelpers_ManagedStreamSeek_m3158782053
Wsi:_ExpressionAssertion_Compile_m2166597834
nDb:__ZN16ScriptingManagerD0Ev
Tof:_Single_System_IConvertible_ToSByte_m1208276900_AdjustorThunk
ylj:__ZN6il2cpp6icalls8mscorlib6System7Convert24InternalFromBase64StringEP12Il2CppStringb
xcj:__ZN30dense_hashtable_const_iteratorINSt3__24pairIK10KeyWrapperINS1_IPKcS4_EEEiEES6_24NamespaceAndNamePairHashN14dense_hash_mapIS6_iS9_NS6_14EqualsComparerI26NamespaceAndNamePairEqualsEENS0_9allocatorIS8_EEE9SelectKeyESD_SF_EppEv
Gfc:__Z44Register_UnityEngine_Component_get_transformv
UB:__ZN12_GLOBAL__N_120ProcessPlayableGraphERN8Animator11AnimatorJobER35AnimationPlayableEvaluationConstantR32AnimationPlayableEvaluationInputR33AnimationPlayableEvaluationOutputPFvS4_R17AnimationPlayableEPFvS4_S6_S8_EPFvS8_S4_S6_S8_fESE_MS9_FvPS3_PS5_PS7_E
WIi:_CanvasRenderer_get_absoluteDepth_m2703237819
jGf:_TextInfo_ToLower_m2744057472
_Jb:__ZN17ArchiveFileSystem12MountArchiveEPKcS1_
MYf:_EqualityComparer_1_System_Collections_IEqualityComparer_Equals_m3977314386_gshared
frc:__Z18Transfer_BlittableI9JSONWriteLb1E8Vector4fEvRK29SerializationCommandArgumentsR31RuntimeSerializationCommandInfo
wn:FUNCTION_TABLE_viififiii
qDf:_CCGregorianCalendar_year_from_fixed_m463929682
WNc:__ZN2UI13CanvasManagerD0Ev
JX:__ZThn32_NK8Renderer14GetSubsetIndexEi
Clg:_Debug_get_unityLogger_m2239795986
d8d:_MD2Managed_Initialize_m2341076836
Gai:_ReadOnlyCollection_1_System_Collections_IList_Add_m4240023232_gshared
Bra:__ZN9GfxDevice15ImmediateVertexEfff
y2b:__Z13RegisterClassI8MaterialEvv
h4a:__ZNK16LightmapSettings22GetTypeVirtualInternalEv
Toa:__ZN13GfxDeviceGLES15SetStencilStateEPK18DeviceStencilStatei
xqd:_Buffer_BlockCopyInternal_m418318694
Avj:_cycle
olj:__ZN6il2cpp2vm8Profiler7GCEventE13Il2CppGCEvent
MEg:__Z76RuntimeInvoker_Void_t1185182177_RuntimeObject_RuntimeFieldHandle_t1871169219PFvvEPK10MethodInfoPvPS4_
Dd:_emscripten_glUniform1iv
Bag:_Thread_get_ManagedThreadId_m1068113671
kmb:__ZN16MemoryFileSystemD2Ev
bFg:__Z150RuntimeInvoker_Int32_t2950945753_RuntimeObject_Int32_t2950945753_Int32_t2950945753_RuntimeObject_Int32_t2950945753_Int32_t2950945753_Int32_t2950945753PFvvEPK10MethodInfoPvPS4_
cpd:_BitConverter_DoubleToInt64Bits_m3574395137
kvf:_DateTime_Parse_m3729096069
F2g:_List_1_System_Collections_IList_Add_m1540114404_gshared
ofc:__Z37Register_UnityEngine_Camera_get_depthv
eNd:_StringReader_Read_m3322058819
bFe:_CrossAppDomainChannel_get_ChannelPriority_m3418073750
GRe:_Selectable_StartColorTween_m3618813981
x_c:_BaseInputModule_HandlePointerExitAndEnter_m1705532066
M$b:__Z23ConvertIntegerToTypePtrItEbPvR14SafeBinaryRead
Qzf:_Delegate_CombineImpl_m3572135514
jEd:_NumberFormatter_IntegerToString_m1679294587
Y7h:_ReadOnlyCollection_1_System_Collections_IList_RemoveAt_m422909114_gshared
zC:__ZN7mecanim5human29HumanGetGoalOrientationOffsetENS0_4GoalE
Ud:_emscripten_glStencilFunc
j2c:__Z46il2cpp_codegen_get_marshal_directive_exceptionPKc
jPe:_InputField_get_isFocused_m709836844
$d:_glGetActiveUniformBlockName
Kf:_emscripten_glUniform1fv
Mhc:__Z39Quaternion_CUSTOM_INTERNAL_CALL_InverseRK11QuaternionfRS_
bJ:__ZN4FMOD7Channel20set3DConeOrientationEP11FMOD_VECTOR
nn:FUNCTION_TABLE_iiifii
QUd:_AssemblyBuilder_not_supported_m1735277432
Zfj:__ZN6il2cpp2vm12GenericClass11SetupEventsEP11Il2CppClass
DGc:_tt_delta_interpolate
bEc:_tt_cmap12_get_info
Hbj:__ZN6il2cpp2vm15ReboxIReferenceEP14Il2CppIUnknownP11Il2CppClass
pKi:__ZN6il2cpp6icalls8mscorlib6System7Decimal14decimalCompareEP19il2cpp_decimal_reprS5_
XCe:_Dictionary_2_OnDeserialization_m4209543208_gshared
Vlj:__ZThn4_N6il2cpp2vm13CachedCCWBaseINS0_13ManagedObjectEE7ReleaseEv
_ng:_GameObject_AddComponent_m136524825
Luh:__ZL62SoapMethodAttribute_t1935009310_CustomAttributesCacheGeneratorP21CustomAttributesCache
rOg:__Z100RuntimeInvoker_Void_t1185182177_RuntimeObject_Int32_t2950945753_Int32_t2950945753_UInt16_t2177724958PFvvEPK10MethodInfoPvPS4_
tGj:_glCopyTexImage2D__wrapper
WAf:_Double_System_IConvertible_ToUInt32_m271206838
P7:__GLOBAL__sub_I_runtime_graphics_billboard_0_cpp
mHb:__Z18ClearByDrawingQuad13GfxClearFlagsRK10ColorRGBAffjR17ShaderPassContext
BAa:__ZN6prcoreL17RemapGenericFloatI14TexFormatRHalf15TexFormatRFloatEEvPKNS_9InnerInfoE
Jzc:_cf2_getBlueValues
LNb:__Z16ShouldUseShadowsb
iea:__ZN15DirectorManager21RebuildStageCallbacksEv
zHb:__ZN19RuntimeSceneManager9LoadSceneERKN4core12basic_stringIcNS0_20StringStorageDefaultIcEEEES6_S6_RK9UnityGUIDiNS_11LoadingModeE
Tta:__ZN7ApiGLES10DrawArraysE16GfxPrimitiveTypejjj
yG:__ZN10SampleClip13LoadBaseSoundEv
Rkd:_SmallXmlParser_SkipWhitespaces_m4243606597
eEf:_CompareInfo_IndexOf_m2631915198
wVd:_ConstructorBuilder_GetCustomAttributes_m2495332786
krd:_Byte_CompareTo_m4285128861
Q$c:_TriggerEvent__ctor_m87299207
hQ:__Z57AudioSource_CUSTOM_INTERNAL_CALL_ClearExtensionPropertiesP12Il2CppObjectRK12PropertyName
lfj:__ZN15dense_hashtableINSt3__24pairIK10KeyWrapperIP12Il2CppObjectEN6il2cpp2gc9CachedCCWEEES5_NS7_5utils11PointerHashIS3_EEN14dense_hash_mapIS5_S9_SD_NS5_14EqualsComparerINS0_8equal_toIS4_EEEENS0_9allocatorISA_EEE9SelectKeyESI_SK_E15insert_noresizeERKSA_
Vca:__ZL50StaticRegisterSceneLoadedCallback_LightmapSettingsPv
d1a:__ZN22DeviceMVPMatricesStateC2ER9GfxDevice
Zm:FUNCTION_TABLE_iifii
Mvd:_Comparer_Compare_m3984347512
o4a:__ZN21EnlightenSceneMapping8TransferI14SafeBinaryReadEEvRT_
q3i:__ZN6il2cpp2vm10Reflection12HasAttributeEP9FieldInfoP11Il2CppClass
Mm:FUNCTION_TABLE_iiffi
hc:invoke_viiifi
j2d:_MonoProperty_GetCustomAttributes_m3619796755
TJe:_MethodDictionary_System_Collections_IEnumerable_GetEnumerator_m4169036899
_La:__ZNK11AssetBundle14GetPreloadDataEiR13dynamic_arrayIiLj4EE
vif:_RIPEMD160Managed_JJJ_m4161373884
ZTf:_DefaultComparer_Equals_m3257444875_gshared
jf:_JS_Sound_SetPosition
ZYa:__ZN19RenderBufferManager13GetTempBufferEii17DepthBufferFormat19RenderTextureFormatj22RenderTextureReadWrite14VRTextureUsagei23RenderTextureMemoryless
VRi:__ZL13GetSharedInstPK17Il2CppGenericInst
TSc:__ZN22BaseUnityConnectClient17SaveSessionValuesEv
wke:_InternalEnumerator_1_get_Current_m476140818_gshared
xTb:__Z24SetupActiveLightsContextR21ActiveLightingContextRK12ActiveLightsRK11CullResultsP14ShadowMapCacheRK10MinMaxAABB
Vic:__Z38Sprite_CUSTOM_INTERNAL_get_textureRectP12Il2CppObjectP5RectTIfE
c2i:__ZNK15dense_hashtableINSt3__24pairIK10KeyWrapperIPK22Il2CppGenericParameterEPK24MonoGenericParameterInfoEES6_N6il2cpp5utils11PointerHashIS4_EEN14dense_hash_mapIS6_SA_SF_NS6_14EqualsComparerINS0_8equal_toIS5_EEEENS0_9allocatorISB_EEE9SelectKeyESK_SM_E3endEv
Xcc:__ZN9TextAsset7SetTextERKN4core12basic_stringIcNS0_20StringStorageDefaultIcEEEE
CSa:__ZN6Camera8TransferI24GenerateTypeTreeTransferEEvRT_
Ha:invoke_iiiiiiif
Ea:invoke_iiiiiiii
OQf:_Array_InternalArray__set_Item_TisByte_t1134296376_m3104140039_gshared
Dug:_Rect_ToString_m447614148
Fmi:_PKCS12_GetBytes_m415958948
PWb:__ZN8Renderer17PendingAddToSceneEv
nKj:b122
qKj:b125
pKj:b124
xKj:b127
sKj:b126
CKj:b129
mic:__Z52Register_UnityEngine_RectTransform_INTERNAL_get_rectv
uqg:_Mesh_SetSizedArrayForChannel_m2565120436
y_:__Z21PostprocessStacktracePKcRN4core12basic_stringIcNS1_20StringStorageDefaultIcEEEE
ipg:_ManagedStreamHelpers_ManagedStreamLength_m2930872960
peb:__ZN18StreamedBinaryReadILb0EE21TransferSTLStyleArrayI13dynamic_arrayI16SplashScreenLogoLj4EEEEvRT_17TransferMetaFlags
pli:_BasicConstraintsExtension_Encode_m2009213240
zfc:__Z47Register_UnityEngine_Camera_get_allCamerasCountv
q5c:___clang_call_terminate
WSc:__ZN22BaseUnityConnectClient20StartEventDispatcherEv
Mac:__ZNSt3__26vectorIj13stl_allocatorIjL18MemLabelIdentifier1ELi16EEE6assignIPKtEENS_9enable_ifIXaasr21__is_forward_iteratorIT_EE5valuesr16is_constructibleIjNS_15iterator_traitsIS9_E9referenceEEE5valueEvE4typeES9_S9_
kB:__ZN7mecanim9animation16EvaluateAvatarIKEPKNS0_14AvatarConstantEPKNS0_11AvatarInputEPNS0_12AvatarOutputEPNS0_12AvatarMemoryEPNS0_15AvatarWorkspaceEb
hCa:__ZL25ProgramUniformMatrix4x3fvPK7ApiGLESjiihPKv
kLb:__ZN12InputManager13InputEndFrameEv
Jqg:_Object_get_name_m4211327027
c7i:__ZN6il2cpp2vm6Thread5SetupEP12Il2CppThread
Xxe:_Enumerator_System_Collections_IDictionaryEnumerator_get_Key_m2500634048_gshared
Fwj:___munmap
ag:_localtime_r
qMb:__ZN22RenderingCommandBuffer13GetAndCheckRTE24BuiltinRenderTextureTypeRKN9ShaderLab16FastPropertyNameEPKcPP13RenderTexture
Kca:__ZN14GfxDoubleCacheIyP17VertexDeclaration14GfxGenericHashIyENSt3__28equal_toIyEEN31GfxDoubleCacheConcurrencyPolicy11LocklessGetE42GfxDoubleCacheDefaultEmptyDeletedGeneratorIyEEC2Ev
UW:__Z19free_alloc_internalPv10MemLabelId
l8f:_UTF32Decoder_GetChars_m1925558948
dg:_strftime
_Ea:__ZN7Texture33SetStoredColorSpaceNoDirtyNoApplyE17TextureColorSpace
Y3d:_ResourceSet__ctor_m3618395942
Sxf:_Decimal_System_IConvertible_ToDouble_m3125524987_AdjustorThunk
z1:__ZN12FileAccessorD2Ev
MWa:__ZN14VertexDataInfoC2Ev
Cij:__ZN6il2cpp2gc16GarbageCollector14CollectALittleEv
v8b:__ZNK9HPlayable15GetPlayableTypeEv
Xyb:__ZL17Transfer_GUIStyleI18StreamedBinaryReadILb1EELb1EEvRK29SerializationCommandArgumentsR31RuntimeSerializationCommandInfo
WVe:_RectMask2D_IsRaycastLocationValid_m1652308696
OUi:__ZN6il2cpp6icalls8mscorlib6SystemL9IsPrivateEPK12PropertyInfo
Omi:_X501_ToString_m1148552872
svg:_RectTransform_add_reapplyDrivenProperties_m1374850920
X9:__ZN9shadertag10InitializeEv
YNb:__ZN13BatchRenderer20RenderSingleWithPassER17ShaderPassContextPK18SharedMaterialDataP6ShaderPN9ShaderLab4PassEiPKNS7_10GrabPassesEjib15BatchBreakCause
E5a:__ZN15QualitySettings14QualitySetting8TransferI24GenerateTypeTreeTransferEEvRT_
Ckc:__Z44Register_UnityEngine_Object_DestroyImmediatev
PBd:_Convert_ToSingle_m835189399
N9b:__ZN22BlockMemoryCacheWriter14LockCacheBlockEjPPhS1_
Ruc:__Z22TransferField_NonArrayI8JSONRead27Converter_SimpleNativeClassI8GUIStyleEEvRK23StaticTransferFieldInfoR31RuntimeSerializationCommandInfoRT0_
Kg:_llvm_eh_typeid_for
p2b:__Z13RegisterClassI10GameObjectEvv
BJe:_RemotingServices_FindInterfaceMethod_m2125212568
nz:__ZNK23AnimationPlayableOutput7GetTypeEv
NMd:_StreamWriter__cctor_m1229272693
NBf:_Enum_System_IConvertible_ToSByte_m779472798
Vcg:_Type_get_IsInterface_m3284996719
jBb:__Z18Transfer_BlittableI18StreamedBinaryReadILb0EELb1E8Vector4fEvRK29SerializationCommandArgumentsR31RuntimeSerializationCommandInfo
KTf:_Dictionary_2_U3CCopyToU3Em__0_m2023886030_gshared
RIj:_glBindVertexArray__wrapper
gdd:_SerializationInfo__ctor_m2923079689
G$a:__ZN8Material8TransferI14SafeBinaryReadEEvRT_
R1a:__ZN12CubemapArray17UploadToGfxDeviceEv
ODd:_Int32_JumpOverWhite_m208298144
BXg:__Z53RuntimeInvoker_Int32_t2950945753_UIVertex_t4057497605PFvvEPK10MethodInfoPvPS4_
SHj:_emscripten_glGetUniformiv__wrapper
Olj:__ZN6il2cpp2vm13ManagedObject14QueryInterfaceERK10Il2CppGuidPPv
WG:__ZN11AudioSource4StopEb
Rqb:__ZN14SafeBinaryRead21TransferSTLStyleArrayI13dynamic_arrayI10Matrix4x4fLj4EEEEvRT_17TransferMetaFlags
pTa:__ZN15LODGroupManager26CollectAllLODGroupManagersERK16CoreCameraValuesR13dynamic_arrayIPS_Lj4EEb
zHa:__ZN18GlslGpuProgramGLESD2Ev
cZb:__ZN13RenderTexture14SetVolumeDepthEi
sS:__ZN11UnityEngine15CloudWebService14DataErrorEvent12ToJsonStringERN4core12basic_stringIcNS2_20StringStorageDefaultIcEEEEjPKc
JNg:__Z86RuntimeInvoker_Void_t1185182177_UInt16_t2177724958_SByte_t1669577662_SByte_t1669577662PFvvEPK10MethodInfoPvPS4_
Wma:__Z22LoadGpuProgramFromDataPKhS0_Rj
vvc:__ZN10Matrix4x4f8TransferI8JSONReadEEvRT_
NIc:__ZN14SafeBinaryRead21TransferSTLStyleArrayI13dynamic_arrayIN4core17string_with_labelILi35EEELj4EEEEvRT_17TransferMetaFlags
GVe:_PositionAsUV1_ModifyMesh_m4231919476
Rwd:_Hashtable__ctor_m1941859523
hYe:_ScrollRect_set_horizontalScrollbarSpacing_m2209919081
RY:__ZN17PersistentManager18ReadObjectThreadedEi
pEa:__ZN25TransformFeedbackSkinning31CleanupTransformFeedbackShadersEv
dTa:__Z22scripting_object_unbox18ScriptingObjectPtr
TJc:__ZNK20TextRenderingPrivate8FontImpl19GetCharacterAdvanceEjijfPj
kOf:_Array_InternalArray__ICollection_Add_TisUriScheme_t722425697_m3142345403_gshared
bvj:_fmt_u
r7a:__ZN10VertexData8TransferI18StreamedBinaryReadILb0EEEEvRT_
cuj:__ZN6il2cpp8metadata25Il2CppGenericClassCompare7CompareEPK18Il2CppGenericClassS4_
BQd:_MonoType_get_Assembly_m4290914179
Qna:__ZN9ShaderLab7ProgramC2E10MemLabelIdi10ShaderType
oZb:__ZN14PreloadManager16UpdatePreloadingEv
Tqf:_String_LastIndexOf_m95398196
L_h:_Array_InternalArray__set_Item_TisUILineInfo_t4195266810_m2313892078_gshared
dsg:_PlayableAsset__ctor_m2395156306
TV:__ZNK21UnityDefaultAllocatorI17LowLevelAllocatorE8ContainsEPKv
led:_RuntimeTypeHandle_Equals_m2857439487
Uh:_emscripten_get_main_loop_timing
t5d:_SafeHandle_Finalize_m3866180675
D5a:__ZN24GenerateTypeTreeTransfer21TransferSTLStyleArrayINSt3__26vectorIN15QualitySettings14QualitySettingENS1_9allocatorIS4_EEEEEEvRT_17TransferMetaFlags
qLd:_MemoryStream_ToArray_m3911744835
wxe:_Enumerator_System_Collections_IDictionaryEnumerator_get_Entry_m859540448_AdjustorThunk
wdg:_Type_GetHashCode_m1947148725
TIg:__Z91RuntimeInvoker_Void_t1185182177_RuntimeObject_RuntimeObject_RuntimeObject_SByte_t1669577662PFvvEPK10MethodInfoPvPS4_
zjb:__ZNK2UI13RectTransform22GetTypeVirtualInternalEv
ep:getTempRet0
R_c:_BaseRaycaster_OnEnable_m2678466030
Iwe:_Enumerator_get_CurrentKey_m627428048_AdjustorThunk
mng:_UnityEventBase__ctor_m1851535676
J0h:_Array_Sort_TisVector4_t3319028937_m2797285308_gshared
Fde:_HandshakeMessage_Update_m2417837686
A8i:__ZN6il2cpp6icalls8mscorlib6System9ThreadingL21lookup_cached_cultureEP12Il2CppThreadi
Ypj:__ZN6il2cpp2os11EventHandleD2Ev
Jmg:_NetFxCoreExtensions_CreateDelegate_m751211712
oUb:__ZN18DeferredRenderLoopD2Ev
yJi:_AnimationLayerMixerPlayable__cctor_m4086299972
L2:__ZNK16TypeTreeIterator4NameEv
Z0:__ZN15FileSystemEntry3SetEPKc
pVd:_ConstructorBuilder_Invoke_m3010446651
Aec:__Z52Register_UnityEngine_Application_set_targetFrameRatev
vaf:_IPv6Address_set_ScopeId_m3907190992
W4h:_ReadOnlyCollection_1_System_Collections_Generic_IListU3CTU3E_Insert_m568455025_gshared
MI:__ZN20SoundChannelInstance15ParameterBuffer5ApplyEPN4FMOD7ChannelE
jaf:_IPv6Address__ctor_m4117281080
QJc:__ZN20TextRenderingPrivate19NativeTextGenerator9InsertTabEv
uzj:_sbrk
SRg:__Z66RuntimeInvoker_Boolean_t97287965_Vector2_t2156229523_RuntimeObjectPFvvEPK10MethodInfoPvPS4_
l2f:_Enumerator_VerifyState_m3474272061_AdjustorThunk
xTc:__ZN11UnityEngine15PlatformWrapper24GetRuntimePlatformStringEv
Ei:_glIsEnabled
VUd:_DerivedType__ctor_m1853298054
Gpb:__Z25scripting_class_get_image17ScriptingClassPtr
Vnf:_SecurityException__ctor_m836898292
Y3f:_List_1_RemoveAt_m2730968292_gshared
Yfb:__ZNSt3__26vectorIN4core12basic_stringIcNS1_20StringStorageDefaultIcEEEE13stl_allocatorIS5_L18MemLabelIdentifier13ELi16EEEC2INS_11__wrap_iterIPS5_EEEET_SE_RKS8_PNS_9enable_ifIXaasr21__is_forward_iteratorISE_EE5valuesr16is_constructibleIS5_NS_15iterator_traitsISE_E9referenceEEE5valueEvE4typeE
Ii:_emscripten_glDrawElementsInstanced
ay:__ZN26AnimatorControllerPlayable27SetupStateMachineBehavioursEv
USe:_LayoutGroup_get_preferredWidth_m3816902260
TUa:__ZN18JobBatchDispatcherD2Ev
ujb:__ZN9Transform17MainThreadCleanupEv
Foj:_GC_clear_hdr_marks
NJj:_emscripten_glCreateShader__wrapper
_xc:_cff_fd_select_get
p$e:_Text_set_resizeTextForBestFit_m4095249125
scf:_OidEnumerator_MoveNext_m3138911739
Ti:_emscripten_glGetShaderiv
MJ:__ZN4FMOD6System10getVersionEPj
$Mc:__ZN2UI6Canvas23VirtualRedirectTransferER24GenerateTypeTreeTransfer
yZe:_Selectable_set_animationTriggers_m2970345687
Zsc:__ZN9JSONWrite8TransferIN4math12int2_storageEEEvRT_PKc17TransferMetaFlags
zIc:__ZN13TextRendering4Font13AwakeFromLoadE17AwakeFromLoadMode
kEf:_CompareInfo_LastIndexOf_m2688553706
fqa:__ZN9GfxDevice21ReleaseSharedMeshDataEP14SharedMeshData
H1c:_MouseState__ctor_m1467839005
gui:_Uri_IsDomainAddress_m2867513594
fdb:__ZNSt3__27__sort5IRNS_6__lessINS_4pairIPKN5Unity4TypeE7Hash128EES8_EEPS8_EEjT0_SC_SC_SC_SC_T_
P8c:_Dropdown_CreateItem_m2954407740
Mnj:_GC_unreachable_finalize_mark_proc
Pdf:_X509Chain_ProcessCrlExtensions_m236234529
ipj:_maybe_finalize
XMi:__ZN6il2cpp2vm5Class40GetInterfaceInvokeDataFromVTableSlowPathEPK12Il2CppObjectPK11Il2CppClassj
EMf:_Array_InternalArray__IndexOf_TisLabelData_t360167391_m1826525656_gshared
eic:__Z43RectTransform_CUSTOM_INTERNAL_get_anchorMaxP12Il2CppObjectP13Vector2fIcall
sGi:_TextGenerator_INTERNAL_CALL_Populate_Internal_cpp_m4171649399
eGe:_RemotingConfiguration_RegisterChannelTemplate_m3105688054
rxf:_Decimal_Parse_m942471224
_3a:__ZN8Material28UpdateHashesOnPropertyChangeEN9ShaderLab16FastPropertyNameE
Rqh:__ZL56MethodBuilder_t2807316753_CustomAttributesCacheGeneratorP21CustomAttributesCache
Oic:__Z53Register_UnityEngine_SortingLayer_GetLayerValueFromIDv
yob:__Z18Transfer_BlittableI14SafeBinaryReadLb1E8Vector4fEvRK29SerializationCommandArgumentsR31RuntimeSerializationCommandInfo
R3c:_AspectRatioFitter_SetDirty_m2910185270
XL:__ZN11AudioSource12AddToManagerEv
Os:__ZN8Animator23VirtualRedirectTransferER19StreamedBinaryWriteILb0EE
Jz:__ZN11UnityEngine9Animation32CreateAnimatorGenericBindingsOptERKNS0_20AnimationSetBindingsER9TransformPKN7mecanim9animation14AvatarConstantEPKNS0_21AvatarBindingConstantEbRNS6_6memory9AllocatorER8Animator
Ccj:__ZN6il2cpp2vm5Image13ClassFromNameEPK11Il2CppImagePKcS6_
Zzj:dynCall_vdddddd
Fka:__ZN24GenerateTypeTreeTransfer21TransferSTLStyleArrayINSt3__26vectorIN9ShaderLab14SerializedPassENS1_9allocatorIS4_EEEEEEvRT_17TransferMetaFlags
vaa:__ZL32MarkLevelGameManagerDependenciesR27GarbageCollectorThreadState
Dsa:__ZNK13GfxDeviceGLES26HasActiveRandomWriteTargetEv
U6i:__GLOBAL__sub_I_Thread_cpp
unh:__ZL54_MemberInfo_t3922476713_CustomAttributesCacheGeneratorP21CustomAttributesCache
HEj:_glGetActiveUniformsiv__wrapper
Lic:__Z43Register_UnityEngine_Material_EnableKeywordv
Nqg:_Mesh_GetIndices_m2873123901
j_:__ZN13MonoBehaviour19SetupScriptingCacheE17ScriptingClassPtrP10MonoScript
cs:__Z20AnimationEventToMonoRK14AnimationEventR18MonoAnimationEvent
dUg:__Z106RuntimeInvoker_Void_t1185182177_Single_t1397266774_Single_t1397266774_Single_t1397266774_Int32_t2950945753PFvvEPK10MethodInfoPvPS4_
yZ:__ZN17PersistentManager29ReadAndActivateObjectThreadedEiRK26SerializedObjectIdentifierP14SerializedFilebb
v1c:_PointerEventData_get_dragging_m746831934
Fai:_ReadOnlyCollection_1_System_Collections_IEnumerable_GetEnumerator_m2781605075_gshared
Yda:__ZZN15DirectorManager15InitializeClassEvEN52PreLateUpdateDirectorUpdateAnimationBeginRegistrator7ForwardEv
YGf:_Array_get_swapper_TisCustomAttributeNamedArgument_t287865710_m4254011335_gshared
Tad:_Graphic_RegisterDirtyMaterialCallback_m106898453
rwi:_GUILayoutEntry_get_margin_m3174861737
Xja:__ZNSt3__26vectorIN9ShaderLab14SerializedPassENS_9allocatorIS2_EEE8__appendEj
gja:__ZNSt3__26vectorIN9ShaderLab20SerializedSubProgram13BufferBindingENS_9allocatorIS3_EEEC2INS_11__wrap_iterIPS3_EEEET_SB_RKS5_PNS_9enable_ifIXaasr21__is_forward_iteratorISB_EE5valuesr16is_constructibleIS3_NS_15iterator_traitsISB_E9referenceEEE5valueEvE4typeE
i6f:_Encoding_get_ISOLatin1_m2107621369
J6d:_BigInteger_op_Inequality_m2697143438
jIh:__ZL89Mathf_t3464937446_CustomAttributesCacheGenerator_Mathf_SmoothDamp_m394423605____maxSpeed4P21CustomAttributesCache
H3a:__ZN9Texture2D23VirtualRedirectTransferER18StreamedBinaryReadILb0EE
Jtf:_DateTime_System_IConvertible_ToDouble_m2116720007_AdjustorThunk
Bvd:_BitArrayEnumerator__ctor_m2359341397
y0f:_Enumerator_MoveNext_m1177880931_gshared
hNh:__ZL73g_UnityEngine_TextRenderingModule_Assembly_CustomAttributesCacheGeneratorP21CustomAttributesCache
H$:__ZN16ScriptingManager27NativeTypeForScriptingClassE17ScriptingClassPtr
egg:_UInt64_System_IConvertible_ToDateTime_m3434604642
ddg:_Type_get_IsSerializable_m1040556850
OCc:_get_sfnt_table
JVb:__ZL22ScheduleSceneNodesJobsP25ScheduleSceneNodesJobDataj
Jk:_emscripten_set_canvas_size
X9c:_Graphic_SetVerticesDirty_m2124914069
nEf:_CultureInfo__ctor_m3285927757
JUe:_MaskableGraphic_get_rootCanvasRect_m3492154629
D$h:_Array_Resize_TisRaycastResult_t3360306849_m1811054291_gshared
Bja:__ZNSt3__26vectorIN9ShaderLab20SerializedSubProgramENS_9allocatorIS2_EEE8__appendEj
BW:__ZN20DynamicHeapAllocatorI17LowLevelAllocatorE8AllocateEji
Pxi:_Locale_GetText_m2427493201
DOb:__ZN20DynamicPropertySheet15SetVectorQueuedERKN9ShaderLab16FastPropertyNameERK8Vector4fN19ShaderPropertySheet8SetFlagsE
vA:__ZN7mecanim9animation22EvaluateAvatarRetargetEPKNS0_14AvatarConstantEPKNS0_11AvatarInputEPNS0_12AvatarOutputEPNS0_12AvatarMemoryEPNS0_15AvatarWorkspaceEb
SXa:__ZN14RenderSettings23VirtualRedirectTransferER19StreamedBinaryWriteILb0EE
wrc:__ZL26Transfer_SimpleNativeClassI9JSONWrite10RectOffsetLb0EEvRK29SerializationCommandArgumentsR31RuntimeSerializationCommandInfo
eoj:_GC_push_conditional
Gwa:__ZN17GenericDynamicVBO10AllocateVBEjR21DynamicVBOChunkHandle
gxf:_DBNull_ToString_m3638608738
Fdj:__ZN30dense_hashtable_const_iteratorI10KeyWrapperIP18Il2CppGenericClassES3_N6il2cpp8metadata22Il2CppGenericClassHashEN14dense_hash_setIS3_S6_NS3_14EqualsComparerINS5_25Il2CppGenericClassCompareEEENSt3__29allocatorIS3_EEE8IdentityESA_SD_EppEv
yvd:_BitArray_Clone_m3537018332
uNe:_ObjectRecord_UnchainFixup_m3191243952
Mki:_TlsStream_get_CanWrite_m16389328
hl:_glMapBufferRange
z3a:__ZN9Texture2D8TransferI18StreamedBinaryReadILb0EEEEvRT_
ehc:__Z31Input_CUSTOM_GetMouseButtonDowni
D8b:__ZN13PlayableGraph4PlayEv
Y7b:__Z29AddCanvasIntermediateRendererPN2UI6CanvasEPNS_13CanvasBuffersEP17VertexDeclarationjRK10Matrix4x4ftRK4AABB4PPtrI8MaterialEi17ShadowCastingModebP6Camerab
jrf:_String_Format_m3339413201
EQd:_MonoType_get_BaseType_m1098640416
sLa:__ZN13LoadOperation19IntegrateTimeSlicedEi
dli:_TlsStream_Read_m3392972801
ODi:__ZL25UnresolvedVirtualCall_132P12Il2CppObject17Color_t2555686324faaaPK10MethodInfo
Osa:__ZN13GfxDeviceGLES22DispatchComputeProgramE12ObjectHandleI18ComputeProgram_TagPvE15ComputeBufferIDj
R6f:_Latin1Encoding_GetString_m254210343
Bhb:__Z17TransformAABBSlowRK4AABBRK10Matrix4x4fRS_
cod:_Array_combsort_m4052486289
$6a:__ZN15SerializeTraitsI13dynamic_arrayI12SpriteVertexLj4EEE19ResizeSTLStyleArrayERS2_i
Yha:__ZN9ShaderLab21SerializedShaderState8TransferI14SafeBinaryReadEEvRT_
DCf:_Environment_GetWindowsFolderPath_m1738399646
$yc:_cf2_stack_pushInt
nA:__ZN8Animator19FireAnimationEventsERNS_11AnimatorJobE
_$d:_Module_GetCustomAttributes_m76573271
Ifd:_CryptoConfig_EncodeOID_m2635914623
Hka:__ZN15SerializeTraitsINSt3__24pairIN4core12basic_stringIcNS2_20StringStorageDefaultIcEEEES6_EEE8TransferI24GenerateTypeTreeTransferEEvRS7_RT_
gHj:b89
fHj:b88
HGj:b81
GGj:b80
kFa:__ZN7ApiGLES19CreateSparseTextureEjj14GraphicsFormatiiiiRiS1_S1_
p0:__ZN18ResourceImageGroup7CleanupEv
_Gj:b85
ZGj:b84
aHj:b87
$Gj:b86
GKe:_RemotingSurrogateSelector_GetSurrogate_m3900875713
Z9d:_CertificateValidationCallback_Invoke_m1014111289
QYa:__ZN8Playable19SetOutputConnectionEPS_i
mNi:__ZN15dense_hashtableINSt3__24pairIK10KeyWrapperIPK11Il2CppClassEPKcEES6_N6il2cpp5utils11PointerHashIS3_EEN14dense_hash_mapIS6_S9_SE_NS6_14EqualsComparerINS0_8equal_toIS5_EEEENS0_9allocatorISA_EEE9SelectKeyESJ_SL_EC2ERKSO_j
Wl:_glDeleteShader
JAa:__ZN6prcoreL17RemapGenericFloatI15TexFormatRGHalf16TexFormatRGFloatEEvPKNS_9InnerInfoE
u0h:_Array_Sort_TisUICharInfo_t75501106_m128665067_gshared
sBc:_otv_GSUB_validate
wjf:_RSAPKCS1SignatureDeformatter_SetHashAlgorithm_m1602190713
FBf:_Enum_System_IConvertible_ToByte_m1219166845
OCe:_Dictionary_2_CopyToCheck_m45332585_gshared
bdc:__Z27scripting_add_internal_callPKcPKv
K2i:__ZN13Il2CppHashMapINSt3__24pairIPK9EventInfoP11Il2CppClassEEj17ReflectionMapHashIS7_ENS0_8equal_toIS7_EENS0_9allocatorINS1_IK10KeyWrapperIS7_EjEEEEEC2EjRKS9_RKSB_
vej:__GLOBAL__sub_I_GarbageCollector_cpp
Bog:_Input_get_inputString_m1307069105
Exe:_Enumerator_MoveNext_m1556953412_AdjustorThunk
jt:__ZN26AnimatorControllerPlayable18SetLayerAutoWeightEv
oSc:__Z44Register_UnityEngine_Canvas_get_pixelPerfectv
eti:_Literal_GetAnchorInfo_m810577400
APc:__ZN2UI14CanvasRenderer12SyncMaterialENS0_8SyncFlagE
ZMd:_StreamWriter_Write_m1660535366
bsj:__ZN6il2cpp2vm9Parameter30GetDefaultParameterValueObjectEPK10MethodInfoPK13ParameterInfoPb
K8f:_UTF8Encoding_GetByteCount_m4152118078
w5e:_KeyPairPersistence__CanSecure_m3516574278
CJg:__Z95RuntimeInvoker_Void_t1185182177_RuntimeObject_RuntimeObject_Int32_t2950945753_SByte_t1669577662PFvvEPK10MethodInfoPvPS4_
gid:_MD5CryptoServiceProvider_Dispose_m3502499818
_eh:_Collection_1_System_Collections_IList_get_Item_m2422562729_gshared
BDc:_UNITY_tt_face_done_kern
rab:__ZN12BoneWeights48TransferI24GenerateTypeTreeTransferEEvRT_
pGb:__Z19scripting_gc_enablev
ore:_InternalEnumerator_1_get_Current_m2907722321_gshared
rKb:__ZZ23InitPlayerLoopCallbacksvEN41InitializationPlayerUpdateTimeRegistrator7ForwardEv
Ncc:__ZN11UTF16StringC2ERKS_10MemLabelId
zse:_InternalEnumerator_1_get_Current_m3792939945_AdjustorThunk
pRc:__Z55Register_UnityEngine_CanvasRenderer_DisableRectClippingv
S9a:__ZN14SafeBinaryRead21TransferSTLStyleArrayI13dynamic_arrayI11ColorRGBA32Lj4EEEEvRT_17TransferMetaFlags
tub:__ZL26Transfer_SimpleNativeClassI24GenerateTypeTreeTransfer8GradientLb0EEvRK29SerializationCommandArgumentsR31RuntimeSerializationCommandInfo
dme:_InternalEnumerator_1_System_Collections_IEnumerator_get_Current_m888718134_gshared
wFg:__Z175RuntimeInvoker_Void_t1185182177_SByte_t1669577662_SByte_t1669577662_SByte_t1669577662_SByte_t1669577662_SByte_t1669577662_SByte_t1669577662_SByte_t1669577662_SByte_t1669577662PFvvEPK10MethodInfoPvPS4_
Arg:_Object_Destroy_m3118546832
zuf:_DateTime_FromTicks_m4059645178_AdjustorThunk
w2h:_Array_InternalArray__get_Item_TisClientCertificateType_t1004704908_m2297379651_gshared
fGe:_ConfigHandler_ParseTime_m1787834288
Hma:__ZN9ShaderLab7Program27CreateFromSerializedProgramERKNS_17SerializedProgramE10ShaderTypeiP16PropertyNamesSetPK6Shader
gTd:_Assembly_Load_m3487507613
hXa:__ZNSt3__27__sort4IRNS_6__lessIN4core12basic_stringIcNS2_20StringStorageDefaultIcEEEES6_EEPS6_EEjT0_SA_SA_SA_T_
DAj:dynCall_viiiifii
m1i:__ZN6il2cpp2gc19AppendOnlyGCHashMapINSt3__24pairIPK11Il2CppImageP11Il2CppClassEEP22Il2CppReflectionModule17ReflectionMapHashIS9_ENS2_8equal_toIS9_EEEC2Ev
OY:__Z20GetPersistentManagerv
RGc:_UNITY_TT_Set_Var_Design
l8:__ZN21SystemInfoStringCache16StaticInitializeEPv
X4h:_ReadOnlyCollection_1_System_Collections_Generic_ICollectionU3CTU3E_Remove_m1100818788_gshared
aja:__ZNSt3__26vectorIN9ShaderLab20SerializedSubProgram15StructParameterENS_9allocatorIS3_EEE6assignIPS3_EENS_9enable_ifIXaasr21__is_forward_iteratorIT_EE5valuesr16is_constructibleIS3_NS_15iterator_traitsISA_E9referenceEEE5valueEvE4typeESA_SA_
Kjh:_Collection_1_IsSynchronized_m2291009199_gshared
EDb:__ZNK13MonoBehaviour7GetNameEv
Eib:__ZN19ScriptingInvocation28AdjustArgumentsToMatchMethodEv
pii:_IndexedSet_1_Contains_m1525966688_gshared
xG:__Z15_CheckFMODError11FMOD_RESULTPKciS1_
M7i:__ZN6il2cpp6icalls8mscorlib6SystemL16ThrowInvalidCastEPK11Il2CppClassS5_
SVa:__Z20RenderMultipleMeshesRK15RenderNodeQueueRK18RenderMultipleData17ShaderChannelMask
YWc:__ZN11UnityEngine15PlatformWrapper20GetPlayerPrefsStringERKN4core12basic_stringIcNS1_20StringStorageDefaultIcEEEES5_
FUe:_MaskableGraphic_get_maskable_m1260382606
l6f:_Latin1Encoding__ctor_m498920120
aYi:__ZN6il2cpp2vm4Type19GetGenericParameterEPK10Il2CppType
xMd:_StreamReader_Peek_m2272511193
tvf:_DateTimeFormatInfo_FillAllDateTimePatterns_m2683124783
RQc:__Z51Register_UnityEngine_CanvasGroup_get_blocksRaycastsv
xRd:_NumberFormatter_get_IsFloatingSource_m3714711779
Ldg:_Type_GetConstructor_m1195697116
sd:_glBeginQuery
Kph:__ZL104RegionInfo_t1090270226_CustomAttributesCacheGenerator_RegionInfo_t1090270226____DisplayName_PropertyInfoP21CustomAttributesCache
THi:_Canvas_get_scaleFactor_m3314757802
SLb:__ZN6Camera12RenderStereoENS_10RenderFlagE8CullFlagPNS_24PerformEyeRenderFunctionE
Hlb:__ZN20LocalFileSystemPosix10ToAbsoluteEPKc
HVa:__ZN20TierGraphicsSettings8TransferI19StreamedBinaryWriteILb0EEEEvRT_
cKj:b111
S7:__GLOBAL__sub_I_runtime_input_0_cpp
elj:__ZN6il2cpp2vm13ComObjectBase16DisconnectObjectEj
Bm:f0
bwj:_getcwd
EKa:__ZN25ThreadsafeLinearAllocatorD2Ev
Sgb:__Z21SendMessageToEveryoneRK17MessageIdentifier11MessageData
Eca:__ZN21BillboardBatchManager16StaticInitializeEPv
qtf:_DateTime_AbsoluteDays_m4235097773
y9:__ZN12_GLOBAL__N_138ArchiveRedirectFileSystemStaticDestroyEPv
IAg:__Z74RuntimeInvoker_RuntimeObject_RuntimeObject_RuntimeObject_SByte_t1669577662PFvvEPK10MethodInfoPvPS4_
Q7c:_DefaultControls_CreateScrollView_m3842770629
O1a:__ZN12CubemapArray34UpdateFileTextureUploadInstructionEP26FileAssetUploadInstructionj
jFa:__Z23CreateSparseTextureGLES9TextureIDii14GraphicsFormati
_Bc:_otv_Anchor_validate
BGf:_Guid_CompareTo_m243656946_AdjustorThunk
mDf:_CCMath_mod_m3631663509
ncg:_TimeSpan_Negate_m1889505500_AdjustorThunk
s8h:_ReadOnlyCollection_1_System_Collections_ICollection_CopyTo_m2715087453_gshared
yKc:__ZNSt3__23mapIN20TextRenderingPrivate7FontRefEP11FT_FaceRec_NS_4lessIS2_EENS_9allocatorINS_4pairIKS2_S4_EEEEEixERS9_
XMa:__ZN17ArchiveFileSystem10AddStorageEP20ArchiveStorageReader
f4i:_il2cpp_class_get_assemblyname
zLi:__ZN6il2cpp2vm5Class15GetEnumBaseTypeEP11Il2CppClass
_ce:_Context_set_WriteSequenceNumber_m942577065
Xd:_glVertexAttrib4fv
xlj:__ZNK6il2cpp5utils13VmStringUtils23CaseInsensitiveComparerclERKNSt3__212basic_stringIcNS3_11char_traitsIcEENS3_9allocatorIcEEEEPKc
Y4c:_CanvasScaler_SetScaleFactor_m3006968999
z$g:__Z78RuntimeInvoker_Boolean_t97287965_Navigation_t3049316579_Navigation_t3049316579PFvvEPK10MethodInfoPvPS4_
Q2a:__ZNK9Texture2D16GetNpotTexelSizeEv
tRd:_NumberFormatter_Init_m3576155222
tMa:__ZL33FileEntryInfoListToFolderContentsRKN4core12basic_stringIcNS_20StringStorageDefaultIcEEEERK19dynamic_block_arrayI13FileEntryInfoLj32EERNSt3__23setIS3_NSB_4lessIS3_EENSB_9allocatorIS3_EEEE
UTe:_LayoutUtility_GetLayoutProperty_m714717302
OHi:_Terminal_NotifyCommandHandlers_m909296863
Vpa:__ZN9GfxDevice22GetDefaultVertexBufferE26GfxDefaultVertexBufferTypej
CHf:_Array_InternalArray__ICollection_Contains_TisInt64_t3736567304_m2911357929_gshared
lfh:_Collection_1_Remove_m3022471627_gshared
twj:___fseeko_unlocked
bSd:_Object_ToString_m1740002499
lwj:_sscanf
w0c:_ExecuteEvents_GetEventChain_m2404658789
oHb:__Z17BeginSplashScreenv
H$h:_Array_Resize_TisUILineInfo_t4195266810_m3763058392_gshared
cfd:_SByte_ToString_m3584531119_AdjustorThunk
yla:__ZN9ShaderLab16SerializedShader8TransferI19StreamedBinaryWriteILb0EEEEvRT_
SC:__ZN7mecanim9animation18CreateAvatarMemoryEPKNS0_14AvatarConstantERNS_6memory9AllocatorE
h6d:_ModulusRing__ctor_m2420310199
lAd:_Convert_ToDateTime_m626620011
Zxe:_Enumerator_System_Collections_IDictionaryEnumerator_get_Key_m2500634048_AdjustorThunk
EB:__ZN7mecanim8skeleton16SkeletonPoseCopyIN4math4trsXENS2_7affineXEEEvPKNS0_13SkeletonPoseTIT_EEPNS5_IT0_EE
owa:__ZN18GfxFramebufferGLES18GetFramebufferNameERK20GfxRenderTargetSetup
pXi:__ZN6il2cpp2vm14TypeNameParser12ParseVersionERKNSt3__212basic_stringIcNS2_11char_traitsIcEENS2_9allocatorIcEEEERtSB_SB_SB_
gRe:_InputField_MoveDown_m1455948167
Knc:__Z30Event_Get_Custom_PropCharacterP12Il2CppObject
rea:__ZN13PlayableGraph27SchedulePlayableDestructionERK9HPlayable
jBc:_cff_get_mm_var
JDj:_glGetFramebufferAttachmentParameteriv__wrapper
TEe:_ChannelServices_GetCurrentChannelInfo_m3041604116
oXc:__Z13RegisterClassI20UnityConnectSettingsEvv
Dpb:__Z22scripting_array_length17ScriptingArrayPtr
jNd:_SynchronizedReader_Peek_m148942882
qEg:__Z95RuntimeInvoker_Void_t1185182177_RuntimeObject_Int32_t2950945753_Int32_t2950945753_RuntimeObjectPFvvEPK10MethodInfoPvPS4_
$1a:__ZN14SafeBinaryRead20TransferTypelessDataEjPvi
oN:__ZN13dynamic_arrayI12SoundChannelLj4EE9push_backERKS0_
c5:__Z19GetActiveColorSpacev
bDc:_UNITY_tt_face_load_kern
u0d:_MonoMethodInfo_GetDeclaringType_m2924452727
BIb:__ZN13sorted_vectorINSt3__24pairIiN17InstancingBatcher12PropertyTypeEEEN10vector_mapIiS3_NS0_4lessIiEE13stl_allocatorIS4_L18MemLabelIdentifier1ELi16EEE13value_compareESA_E21sort_clear_duplicatesEv
wQc:__ZZN2UI14CanvasRenderer15InitializeClassEvEN38FunctorImpl_909kCanvasHierarchyChanged4CallEPviR11MessageData
E$:__Z6StrCmpPKcS0_
WEd:_NumberFormatter_AppendIntegerString_m2257376141
Pna:__Z21CheckGpuProgramUsable20ShaderGpuProgramType
_3b:__ZN13ProduceHelperI14Texture2DArrayLb0EE7ProduceE10MemLabelId18ObjectCreationMode
Uhj:__ZN6il2cpp2os9Directory20GetFileSystemEntriesERKNSt3__212basic_stringIcNS2_11char_traitsIcEENS2_9allocatorIcEEEESA_iiPi
Omd:_Array_System_Collections_IList_Add_m1063688101
FWh:__ZL66Navigation_t3049316579_CustomAttributesCacheGenerator_m_SelectOnUpP21CustomAttributesCache
IJc:__ZN20TextRenderingPrivate19NativeTextGenerator5SetupEv
YSb:__ZNK15SharedLightData24GetFinalShadowResolutionEv
meb:__ZN12AspectRatios8TransferI18StreamedBinaryReadILb0EEEEvRT_
R7b:__ZN10GameObject14CopyPropertiesERS_
yoc:__Z44Register_UnityEngine_GUIStyle_get_fixedWidthv
zIf:_Array_InternalArray__ICollection_Remove_TisLink_t544317964_m1280781374_gshared
apd:_BitConverter_DoubleWordsAreSwapped_m1474345095
r6a:__ZNK13ScreenManager12IsFullScreenEv
sud:_FixedSizeArrayListWrapper_set_Capacity_m4221053039
Owj:_rand
lEj:_emscripten_glFramebufferRenderbuffer__wrapper
Yac:__ZN13MeshScripting10CreateMeshE21ScriptingObjectOfTypeI4MeshE
zqb:__ZN14SafeBinaryRead21TransferSTLStyleArrayINSt3__26vectorI17AnimationCurveTplIfE13stl_allocatorIS4_L18MemLabelIdentifier1ELi16EEEEEEvRT_17TransferMetaFlags
Xud:_SynchronizedArrayListWrapper_Contains_m3809499313
MIf:_Array_InternalArray__ICollection_Remove_TisLabelData_t360167391_m3556246844_gshared
Ghd:_HMACSHA256__ctor_m346174875
xkg:_Color_op_Multiply_m2887457390
sVb:__Z22PrepareOptimizedPlanesPK5PlaneiPKN4math7_float4E
pV:__ZN11UnityEngine15CloudWebService17WebFileDownloaderINS0_20WebRequestRestClientENS0_23WebRequestRestHeaderMapEE10InitializeERKN4core12basic_stringIcNS5_20StringStorageDefaultIcEEEE
Cca:__ZN17UniqueIDGenerator15CreatePureIndexEv
zr:__ZN11UnityEngine9Animation28GenericAnimationBindingCache15DidReloadDomainEv
cfb:__ZNSt3__26vectorIN15ResourceManager10DependencyE13stl_allocatorIS2_L18MemLabelIdentifier52ELi16EEE6assignINS_11__wrap_iterIPS2_EEEENS_9enable_ifIXaasr21__is_forward_iteratorIT_EE5valuesr16is_constructibleIS2_NS_15iterator_traitsISC_E9referenceEEE5valueEvE4typeESC_SC_
OKi:__ZN15dense_hashtableINSt3__24pairIK10KeyWrapperIPK22Il2CppGenericParameterEP11Il2CppClassEES6_N6il2cpp5utils11PointerHashIS4_EEN14dense_hash_mapIS6_S9_SE_NS6_14EqualsComparerINS0_8equal_toIS5_EEEENS0_9allocatorISA_EEE9SelectKeyESJ_SL_E14squash_deletedEv
V_a:__ZN9ShaderLabL27GetDesiredRenderTextureDescEPK6Camera
pQf:_Array_InternalArray__Insert_TisMark_t3471605523_m2854535880_gshared
_ya:__ZN6prcoreL29inner_stretch_rgb565_bilinearEPKNS_9InnerInfoE
Ulc:__Z14GUIClipTextureP9Texture2DPhiiii
nKe:_MethodReturnDictionary__cctor_m278392388
wY:__ZNK9Transform18TransformDirectionERK8Vector3f
qhe:_SslStreamBase_get_CanWrite_m1622082918
sYh:__ZL80CanvasScaler_t2767979955_CustomAttributesCacheGenerator_m_ReferencePixelsPerUnitP21CustomAttributesCache
LBc:_otv_MarkLigPos_validate
e3e:_PrimalityTests_RabinMillerTest_m1471415870
a0f:_Enumerator_MoveNext_m2114485647_gshared
eRi:__ZN15dense_hashtableINSt3__24pairIK10KeyWrapperIPK11Il2CppClassEPKcEES6_N6il2cpp5utils11PointerHashIS3_EEN14dense_hash_mapIS6_S9_SE_NS6_14EqualsComparerINS0_8equal_toIS5_EEEENS0_9allocatorISA_EEE9SelectKeyESJ_SL_E12resize_deltaEjj
xyj:__ZNK10__cxxabiv120__si_class_type_info27has_unambiguous_public_baseEPNS_19__dynamic_cast_infoEPvi
m6d:_Kernel_LeftShift_m4140742987
VSd:_Assembly_GetManifestResourceInternal_m1224391897
Kwa:__Z30AddDefaultStreamsToMeshBuffersR9GfxDeviceR11MeshBuffersj17ShaderChannelMaskS3_
h9:__ZL16GetInterfaceImpl18UnityInterfaceGUID
SLi:__ZN6il2cpp2vmL17SetupFieldOffsetsENS0_15FieldLayoutKindEP11Il2CppClassjRKNSt3__26vectorIjNS4_9allocatorIjEEEE
Vkj:__ZN6il2cpp6icalls8mscorlib6System15MonoCustomAttrs27GetCustomAttributesInternalEP12Il2CppObjectP20Il2CppReflectionTypeb
Wb:invoke_viifi
mHc:_UNITY_TT_Set_MM_Blend
T7:__GLOBAL__sub_I_runtime_math_random_0_cpp
BHb:__ZN14PreloadManager35WaitForAllAsyncOperationsToCompleteEv
eI:__ZL31InitializeAudioScriptingClassesv
MMb:__Z14SortGUIByDepthP10GUIElementS0_
pC:__ZN12_GLOBAL__N_120ProcessRootMotionMixER33AnimationPlayableEvaluationOutputR35AnimationPlayableEvaluationConstantR32AnimationPlayableEvaluationInputS1_f
Qui:_UriParser__cctor_m3655686731
KTe:_LayoutRebuilder_U3Cs_RebuildersU3Em__0_m589488547
cmj:__GLOBAL__sub_I_Assembly_cpp_38393
hmb:__ZNK20LocalFileSystemPosix21GetAvailableDiskSpaceEPKcRy
r8:__ZNSt3__26__treeIiNS_4lessIiEENS_9allocatorIiEEE7destroyEPNS_11__tree_nodeIiPvEE
opa:__ZNK9GfxDevice14GetWorldMatrixEv
Quc:__ZN8JSONRead8TransferI8Vector2fEEvRT_PKc17TransferMetaFlagsb
tyg:_Transform_set_parent_m786917804
r_e:_Slider_get_value_m739683640
xkb:__Z19scripting_array_new17ScriptingClassPtrjj
cN:__ZN11SoundHandle13CreateChannelEb
q4a:__ZN14SafeBinaryRead21TransferSTLStyleArrayI13dynamic_arrayI12LightmapDataLj4EEEEvRT_17TransferMetaFlags
Jja:__ZNSt3__26vectorIN9ShaderLab20SerializedSubProgram16TextureParameterENS_9allocatorIS3_EEE6assignIPS3_EENS_9enable_ifIXaasr21__is_forward_iteratorIT_EE5valuesr16is_constructibleIS3_NS_15iterator_traitsISA_E9referenceEEE5valueEvE4typeESA_SA_
HPi:__ZN13Il2CppHashMapIN6il2cpp5utils13dynamic_arrayIPK10Il2CppTypeLj4EEEPFvvENS0_8metadata19Il2CppSignatureHashENS9_22Il2CppSignatureCompareENSt3__29allocatorINSC_4pairIK10KeyWrapperIS6_ES8_EEEEEC2EjRKSA_RKSB_
U1i:__ZN15dense_hashtableINSt3__24pairIK10KeyWrapperIPK22Il2CppGenericParameterEPK24MonoGenericParameterInfoEES6_N6il2cpp5utils11PointerHashIS4_EEN14dense_hash_mapIS6_SA_SF_NS6_14EqualsComparerINS0_8equal_toIS5_EEEENS0_9allocatorISB_EEE9SelectKeyESK_SM_E15set_deleted_keyERKSB_
afd:_SByte_TryParse_m2431806379
y1b:__ZN6prcoreL11inner_clearILj2EEEvPhjjj
Egd:_DSACryptoServiceProvider_get_KeySize_m786836990
Ig:_emscripten_exit_fullscreen
aSd:_Object_MemberwiseClone_m1474068832
Pgj:__ZN6il2cpp6icalls8mscorlib6System6String19InternalAllocateStrEi
Xvc:__Z29Transfer_Blittable_ArrayFieldI8JSONRead11QuaternionfEvRT_R9ArrayInfoRK23StaticTransferFieldInfo
ufc:__Z45Register_UnityEngine_Camera_get_targetDisplayv
a6b:__ZNK24RendererAnimationBinding15GenerateBindingERKN4core12basic_stringIcNS0_20StringStorageDefaultIcEEEEbRN11UnityEngine9Animation14GenericBindingE
zaf:_IPv6Address__ctor_m3704187391
fNb:__Z15GetFlareManagerv
Hz:__ZN8Animator13GetAvatarRootEv
$Nf:_Array_InternalArray__ICollection_Add_TisResourceCacheItem_t51292791_m3851804827_gshared
Ouj:___toread
IFb:__ZNSt3__26vectorI10vector_mapIiiNS_4lessIiEE13stl_allocatorINS_4pairIiiEEL18MemLabelIdentifier38ELi16EEES4_IS9_LS7_38ELi16EEE26__swap_out_circular_bufferERNS_14__split_bufferIS9_RSA_EE
K5d:_BigInteger_get_Rng_m3283260184
_yj:___cxa_is_pointer_type
QE:__ZN8Animator22ScriptingStringToCRC32ERK11ICallString
rC:__ZN7mecanim9animation16EvaluateAvatarDXEPKNS0_14AvatarConstantEPKNS0_11AvatarInputEPNS0_12AvatarMemoryEPNS0_15AvatarWorkspaceEPNS0_12AvatarOutputE
s2c:_RaycastResult_ToString_m2678663776_AdjustorThunk
G2h:_Array_InternalArray__get_Item_TisKeyValuePair_2_t2530217319_m2886833132_gshared
MYe:_ScrollRect_OnEndDrag_m3202230060
Zjc:__Z34Transform_CUSTOM_SetAsFirstSiblingP12Il2CppObject
XQe:_InputField_Delete_m3471899192
eFe:_RemotingConfiguration_get_ProcessId_m2180277012
n3:__ZN17PersistentManager40GlobalToLocalSerializedFileIndexInternalERK26SerializedObjectIdentifier
iS:__ZN11UnityEngine15CloudWebService17SessionEventQueue14ParseEventDataERKN4core12basic_stringIcNS2_20StringStorageDefaultIcEEEE
Oua:__ZN13TranslateGLES4InitERK12GraphicsCaps16GfxDeviceLevelGL
GGd:_Int64_System_IConvertible_ToUInt16_m848637338_AdjustorThunk
rMf:_Array_InternalArray__IndexOf_TisLink_t544317964_m455584088_gshared
uah:_Enumerator_get_Current_m2282646120_AdjustorThunk
g8h:_ReadOnlyCollection_1_IndexOf_m2539022912_gshared
tXh:__ZL66Selectable_t3250028441_CustomAttributesCacheGenerator_m_TransitionP21CustomAttributesCache
Hsj:__ZN6il2cpp2os6Memory12AlignedAllocEjj
x$e:_Text_set_alignByGeometry_m3828822280
rmj:__ZN6il2cpp8metadataL7CompareEPK10Il2CppTypeS3_
M7e:_HybridDictionary__ctor_m1681134385
_1:__ZN21ScalableBufferManager11GetInstanceEv
WAb:__Z18Transfer_BlittableI18StreamedBinaryReadILb0EELb1E10ColorRGBAfEvRK29SerializationCommandArgumentsR31RuntimeSerializationCommandInfo
xcg:_TimeSpan_op_LessThan_m1594498345
hdc:__ZL27GetComponentsImplementationILb0ELi0EEbR10GameObjectbRK17CompareParametersRK39GetComponentsImplementation_ReturnValue
qEb:__ZN9Scripting36IsSystemCollectionsGenericDictionaryE17ScriptingClassPtr
yhi:_UnityEvent_1_FindMethod_Impl_m322741469_gshared
Hyg:_Enumerator_get_Current_m2591725252
T0:__ZL16ReadTypeTreeImplILb0EEbR8TypeTreeRK16TypeTreeIteratorRPKhS6_i
Rhf:_Interval_Contains_m110351300_AdjustorThunk
cBd:_Convert_ToInt32_m3048308591
vwf:_DateTimeOffset_Equals_m3030958070
hYa:__ZNK22BuiltinResourceManager21GetResourceInstanceIDEPKN5Unity4TypeERKN4core12basic_stringIcNS4_20StringStorageDefaultIcEEEE
Rra:__ZN9GfxDevice15BeginFrameStatsEv
Zgc:__Z42Register_UnityEngine_RectOffset_set_bottomv
fuf:_DateTimeFormatInfo_GetMonthName_m2034512315
ROb:__ZN28LightProbeProxyVolumeContext8CopyFromERKS_
Q8h:_ReadOnlyCollection_1_System_Collections_Generic_IListU3CTU3E_Insert_m2489506856_gshared
D6:__ZN23TransformChangeDispatch32QueueTransformChangeIfHasChangedER18TransformHierarchy
Y0e:_SimpleCollator_ToDashTypeValue_m6184468
GDa:__ZN7ApiGLES18DeleteRenderbufferERj
iCa:__ZL23ProgramUniformMatrix4fvPK7ApiGLESjiihPKv
PDa:__ZN7ApiGLES13CreateTextureEjj14GraphicsFormatiiiii
hod:_Array_new_gap_m262136975
nja:__ZN9ShaderLab20SerializedSubProgram15MatrixParameter8TransferI14SafeBinaryReadEEvRT_
jdc:__ZL27GetComponentsImplementationILb0ELi1EEbR10GameObjectbRK17CompareParametersRK39GetComponentsImplementation_ReturnValue
Udf:_X509Store__ctor_m275383717
D1e:_SimpleCollator_LastIndexOfOrdinalIgnoreCase_m2984667899
XFc:_Round_Down_To_Grid
BEa:__ZN13RenderTexture7ReleaseEv
utc:__Z18Transfer_BlittableI8JSONReadLb1EN4math12int3_storageEEvRK29SerializationCommandArgumentsR31RuntimeSerializationCommandInfo
mbb:__ZN10MeshFilter23VirtualRedirectTransferER14SafeBinaryRead
lkd:_X509CertificateEnumerator_MoveNext_m2269241175
wbb:__ZN12MeshRenderer17MainThreadCleanupEv
DLi:__ZN6il2cpp2vmL10InitLockedEP11Il2CppClassRKNS_2os12FastAutoLockE
uHa:__ZN22CreateGpuProgramOutput12CreateParamsEv
pJ:__ZN10ObjectPoolIN4FMOD7ChannelENS0_8ChannelIEE7GetFreeEi
Hme:_InternalEnumerator_1_System_Collections_IEnumerator_get_Current_m548105685_gshared
Eua:__ZNK14GfxContextGLES13GetDefaultFBOEv
yqd:_Byte_System_IConvertible_ToType_m2251112646
lTg:__Z81RuntimeInvoker_Char_t3634460470_RuntimeObject_Int32_t2950945753_Int16_t2552820387PFvvEPK10MethodInfoPvPS4_
Euf:_DateTime_get_Hour_m4153505178_AdjustorThunk
GAi:_AudioExtensionManager_WriteExtensionProperties_m3028464154
$mf:_Evidence_Equals_m1478353107
$9b:__Z13GetImagePixelI10ColorRGBAfET_PKhii13TextureFormat15TextureWrapModeS5_ii
N3g:_List_1_System_Collections_IList_set_Item_m1842844683_gshared
wji:_ObjectPool_1__ctor_m2535233435_gshared
i7i:__ZN6il2cpp2vm6Thread49CheckCurrentThreadForInterruptAndThrowIfNecessaryEv
PEf:_CultureInfo_construct_datetime_format_m1928121315
k5:__ZNSt3__23mapIN9ShaderLab16FastPropertyNameEN18UnityPropertySheet11UnityTexEnvENS_4lessIS2_EENS_9allocatorINS_4pairIKS2_S4_EEEEEixERS9_
JCa:__ZNK13TranslateGLES25GetTextureTargetDimensionEj
n6h:_ReadOnlyCollection_1_System_Collections_IList_Remove_m1842121503_gshared
uJd:_File_OpenRead_m2936789020
pjc:__Z47Texture2D_CUSTOM_INTERNAL_CALL_GetPixelBilinearP12Il2CppObjectffR10ColorRGBAf
Ryd:_Enumerator_get_Entry_m3561948123
XQg:__Z94RuntimeInvoker_Void_t1185182177_RuntimeObject_PlayableGraph_t3515989261_RuntimeObject_IntPtr_tPFvvEPK10MethodInfoPvPS4_
Ji:_emscripten_glVertexAttrib4f
kna:__ZNSt3__26vectorIN20GpuProgramParameters14ConstantBufferENS_9allocatorIS2_EEE8__appendEj
Cef:_X509CertificateCollection_AddRange_m3683116910
nFe:_SinkProviderData__ctor_m1624738837
HSg:__Z88RuntimeInvoker_RuntimeObject_RuntimeObject_SByte_t1669577662_RuntimeObject_RuntimeObjectPFvvEPK10MethodInfoPvPS4_
wUd:_CustomAttributeTypedArgument_Equals_m2261980307
Gx:__ZN7mecanim12statemachine24CreateStateMachineMemoryEPKNS0_20StateMachineConstantERNS_6memory9AllocatorE
Wra:__ZN9GfxDevice18SetGlobalDepthBiasEff
NTi:__ZN6il2cpp6icalls8mscorlib6System8MonoType12get_AssemblyEP20Il2CppReflectionType
so:FUNCTION_TABLE_vi
Xi:_emscripten_glGetPointerv
z1h:_Dictionary_2_Do_CopyTo_TisKeyValuePair_2_t3842366416_TisRuntimeObject_m1564656153_gshared
eC:__ZN8Animator22ApplyBuiltinRootMotionEv
cHb:__Z26ApplyMaterialPassWithCacheRK18SharedMaterialDataR17ShaderPassContextP6ShaderPN9ShaderLab4PassEibPKNS6_10GrabPassesEPNS6_11SubProgramsEPK22DeviceRenderStateBlock
_Qd:_MulticastDelegate_KPM_m22863605
nqe:_InternalEnumerator_1_get_Current_m1897120917_AdjustorThunk
yQd:_MonoType_ReorderParamArrayArguments_m2458683451
UMe:_FormatterConverter_ToInt16_m4282804414
HIg:__Z81RuntimeInvoker_Void_t1185182177_Int64_t3736567304_RuntimeObject_Int64_t3736567304PFvvEPK10MethodInfoPvPS4_
Y2c:_StandaloneInputModule_ProcessTouchPress_m4019232747
pJd:_FileStream__ctor_m3151488352
god:_Array_swap_m547389985
A3:__ZN8Renderer23VirtualRedirectTransferER14SafeBinaryRead
Xfg:_UInt32_ToString_m2420423038
L0g:_List_1_System_Collections_IList_Add_m634558835_gshared
TJd:_FileStream_get_Length_m426703983
NLi:__ZN6il2cpp2vmL15GetBitmapNoInitEP11Il2CppClassPjRjj
MH:__ZN12AudioManager5ResetEv
m8b:__ZN15DirectorManager18ScheduleGraphStartERK14HPlayableGraph
MB:__ZN7mecanim5human14RetargetToTDoFEPKNS0_5HumanEPNS0_9HumanPoseEPNS_8skeleton13SkeletonPoseTIN4math4trsXEEESB_
Yij:__ZN6il2cpp6icalls8mscorlib6System11Environment20GetWindowsFolderPathEi
uw:__ZN7mecanim5human18HumanPoseBlendNodeERNS0_9HumanPoseEPS1_f
eAc:_UNITY_FT_RoundFix
Fpj:_GC_is_heap_ptr
P3e:_ASN1_DecodeTLV_m1200977460
tng:_UnityEventBase_PrepareInvoke_m1785382128
U8h:_ReadOnlyCollection_1_System_Collections_Generic_IListU3CTU3E_set_Item_m1584697503_gshared
ybb:__ZNK12MeshRenderer22GetTypeVirtualInternalEv
isd:_Char_System_IConvertible_ToUInt32_m3901815580
RWe:_Scrollbar_set_onValueChanged_m346467699
fLg:__Z157RuntimeInvoker_Int32_t2950945753_RuntimeObject_Int32_t2950945753_Int32_t2950945753_Int32_t2950945753_SByte_t1669577662_SByte_t1669577662_Int32U26_t1369213839PFvvEPK10MethodInfoPvPS4_
sK:__ZN4FMOD6System17setSoftwareFormatEi17FMOD_SOUND_FORMATii18FMOD_DSP_RESAMPLER
Qha:__ZN14SafeBinaryRead19TransferSTLStyleMapINSt3__23mapIN4core12basic_stringIcNS3_20StringStorageDefaultIcEEEES7_NS1_4lessIS7_EE13stl_allocatorINS1_4pairIKS7_S7_EEL18MemLabelIdentifier1ELi16EEEEEEvRT_17TransferMetaFlags
cPc:__ZN2UI6Canvas27UpdateEventIndexesRecursiveERi
oS:__ZN11UnityEngine15CloudWebService16SessionContainer21PrepareDataErrorEventERN4core12basic_stringIcNS2_20StringStorageDefaultIcEEEE
k0c:_ExecuteEvents_get_pointerUpHandler_m3515704212
dtd:_ArrayList_set_Item_m2003485935
l4d:_SatelliteContractVersionAttribute__ctor_m3630863995
d2c:_MouseButtonEventData_PressedThisFrame_m1060658845
cxb:__Z19TransferField_ArrayI19StreamedBinaryWriteILb0EE27Converter_SimpleNativeClassI8GUIStyleEEvRK23StaticTransferFieldInfoR31RuntimeSerializationCommandInfoRT0_
CMb:__Z27SetClippingPlaneShaderPropsR9GfxDevice
G6h:_ReadOnlyCollection_1_System_Collections_Generic_IListU3CTU3E_RemoveAt_m3969985996_gshared
xGj:_emscripten_glCopyTexSubImage2D__wrapper
ebd:_GraphicRegistry_GetGraphicsForCanvas_m4219276355
VEd:_NumberFormatter_FastToDecHex_m699829267
Dpi:_PatternCompiler_MakeFlags_m1977119795
itc:__Z35Transfer_Blittable_FixedBufferFieldI8JSONReadiEvRK29SerializationCommandArgumentsR31RuntimeSerializationCommandInfo
Wla:__ZN15SerializeTraitsIN9ShaderLab16FastPropertyNameEE8TransferI19StreamedBinaryWriteILb0EEEEvRS1_RT_
QSi:__ZNSt3__213__vector_baseIN6il2cpp2os19SocketHandleWrapperENS_9allocatorIS3_EEED2Ev
wnh:__ZL48_Type_t3588564251_CustomAttributesCacheGeneratorP21CustomAttributesCache
dc:invoke_viiffi
HGd:_Int64_System_IConvertible_ToUInt32_m109903525
_oc:__ZN5Unity9rapidjson13GenericReaderINS0_4UTF8IcEES3_13JSONAllocatorE10ParseFalseILj0ENS0_19GenericStringStreamIS3_EENS0_15GenericDocumentIS3_S4_S4_EEEEvRT0_RT1_
Jpg:_Mathf_CeilToInt_m432108984
gcg:_TimeSpan_FromHours_m1109641064
lka:__Z14resize_trimmedINSt3__26vectorIN9ShaderLab18SerializedPropertyENS0_9allocatorIS3_EEEEEvRT_j
UDi:__ZL25UnresolvedVirtualCall_138P12Il2CppObject17Color_t2555686324faaPK10MethodInfo
NQi:__ZN6il2cpp2vm13MetadataCache38GetMethodInfoFromMethodDefinitionIndexEi
X_c:_EventSystem_set_current_m38955169
Eoi:_CostDelegate_EndInvoke_m2797921932
i7a:__ZN10VertexData8TransferI24GenerateTypeTreeTransferEEvRT_
gBf:_Double_IsInfinity_m820013146
sjj:__ZN13Il2CppHashMapIPK19Il2CppGenericMethodP10MethodInfoN6il2cpp8metadata23Il2CppGenericMethodHashENS6_26Il2CppGenericMethodCompareENSt3__29allocatorINS9_4pairIK10KeyWrapperIS2_ES4_EEEEEC2EjRKS7_RKS8_
mwg:_Screen_get_dpi_m495672463
J8f:_UTF8Encoding_InternalGetByteCount_m2120178851
OUb:__ZL10CullLightsRK22SceneCullingParametersR11CullResults
GCd:_Convert_ToUInt64_m3170916409
Bx:__ZN7mecanim12statemachine20GetBlendTreeConstantERKNS0_13StateConstantEi
uGd:_Int64_System_IConvertible_ToInt16_m4062196970_AdjustorThunk
UQd:_MonoType_GetGenericTypeDefinition_m3201894896
t1b:__Z40GetTemporaryCachePathApplicationSpecificv
aqa:__ZN9GfxDevice16EndAsyncJobFrameEv
pUg:__Z99RuntimeInvoker_Int32_t2950945753_Ray_t3785851493_RuntimeObject_Single_t1397266774_Int32_t2950945753PFvvEPK10MethodInfoPvPS4_
WCc:_UNITY_tt_face_load_hhea
iWd:_DerivedType_get_Assembly_m2979298667
Tk:___syscall3
Wk:___syscall6
Yk:___syscall4
nT:__ZN11UnityEngine15CloudWebService20WebRequestRestClient17GetResponseStatusEv
IKe:_ReturnMessage__ctor_m2352989078
iGg:__Z99RuntimeInvoker_Void_t1185182177_RuntimeObject_Int32_t2950945753_SByte_t1669577662_SByte_t1669577662PFvvEPK10MethodInfoPvPS4_
cnb:__ZNSt3__26__treeINS_12__value_typeIN4core12basic_stringIcNS2_20StringStorageDefaultIcEEEEPN16MemoryFileSystem4NodeEEENS_19__map_value_compareIS6_SA_NS_4lessIS6_EELb1EEE13stl_allocatorISA_L18MemLabelIdentifier55ELi16EEE7destroyEPNS_11__tree_nodeISA_PvEE
hfj:__ZN6il2cpp2vm3RCW14QueryInterfaceILb1EEEP14Il2CppIUnknownP15Il2CppComObjectRK10Il2CppGuid
kce:_TlsServerCertificateRequest__ctor_m1334974076
eBd:_Convert_ToInt32_m1613163543
AUe:_MatEntry__ctor_m1949610076
g6h:_ReadOnlyCollection_1_System_Collections_ICollection_CopyTo_m3127175806_gshared
ml:_emscripten_glShaderBinary
cfg:_UInt16_ToString_m760649087
$lb:__ZNK20LocalFileSystemPosix6ExistsERK13FileEntryData
_jg:_Camera_GetAllCameras_m668492922
zSc:__Z58Register_UnityEngine_Canvas_GetETC1SupportedCanvasMaterialv
wcg:_TimeSpan_op_Inequality_m2467851530
Bzb:__ZN17AnimationCurveTplIfE8TransferI18StreamedBinaryReadILb1EEEEvRT_
z0h:_Array_Sort_TisUIVertex_t4057497605_m3996333845_gshared
RUc:__ZN18UnityConnectClientD2Ev
Aod:_Swapper_BeginInvoke_m1688449973
Zlg:_Display_get_renderingWidth_m1970428952
KMg:__Z81RuntimeInvoker_Void_t1185182177_RuntimeObject_Int32_t2950945753_Int64_t3736567304PFvvEPK10MethodInfoPvPS4_
R0:__ZN13dynamic_arrayIcLj1EE6insertEPcPKcS3_
jJg:__Z86RuntimeInvoker_Boolean_t97287965_Int16_t2552820387_Int16_t2552820387_Int32_t2950945753PFvvEPK10MethodInfoPvPS4_
tii:_IndexedSet_1_IndexOf_m241693686_gshared
WTc:__ZN11UnityEngine15PlatformWrapper30GetGraphicsDriverLibraryStringEv
fed:_RuntimeMethodHandle_Equals_m3301340296_AdjustorThunk
tgg:_UInt64_System_IConvertible_ToSingle_m925613075_AdjustorThunk
XAb:__Z18Transfer_BlittableI18StreamedBinaryReadILb0EELb0E4AABBEvRK29SerializationCommandArgumentsR31RuntimeSerializationCommandInfo
hfb:__ZN24GenerateTypeTreeTransfer19TransferSTLStyleMapINSt3__28multimapIN4core12basic_stringIcNS3_20StringStorageDefaultIcEEEE4PPtrI6ObjectENS1_4lessIS7_EE13stl_allocatorINS1_4pairIKS7_SA_EEL18MemLabelIdentifier52ELi16EEEEEEvRT_17TransferMetaFlags
OD:__ZN16MecanimAnimation24DeleteAnimatedPropertiesERP26IAnimatedPropertyEvaluator
GIi:_CanvasRenderer_SetMaterial_m824577244
wLb:__Z14DrawGUITextureRK5RectTIfEP7Texture11ColorRGBA32P8Materiali
C6h:_ReadOnlyCollection_1_System_Collections_Generic_ICollectionU3CTU3E_Add_m2686599243_gshared
RA:__ZN9BlobWrite8TransferI22OffsetPtrArrayTransferIKN4math7_float4EEEEvRT_PKc17TransferMetaFlags
jMb:__ZN22RenderingCommandBuffer20ExecuteCommandBufferER17ShaderPassContextR15RenderNodeQueuejP13dynamic_arrayINSt3__24pairIN9ShaderLab16FastPropertyNameEP13RenderTextureEELj4EE16ComputeQueueTypeSA_
Dyg:_Transform_IsChildOf_m224006092
YZa:__ZN15TextureSettings8TransferI24GenerateTypeTreeTransferEEvRT_
Tsc:__ZN9JSONWrite8TransferI4AABBEEvRT_PKc17TransferMetaFlags
uOa:__ZN25MultiBlocksMemoryFileData9SetLengthEy
u1h:_Dictionary_2_Do_ICollectionCopyTo_TisRuntimeObject_m1855083806_gshared
tyi:_Aes__ctor_m178909601
G2a:__ZNK9Texture2D20GetRuntimeMemorySizeEv
Kkc:__ZN11Marshalling39CreateNullExceptionForUnityEngineObjectE18ScriptingObjectPtr
Zoc:__ZN5Unity9rapidjson13GenericReaderINS0_4UTF8IcEES3_13JSONAllocatorE9ParseTrueILj0ENS0_19GenericStringStreamIS3_EENS0_15GenericDocumentIS3_S4_S4_EEEEvRT0_RT1_
um:_emscripten_glUniform2iv
Bxc:_UNITY_FT_Outline_Transform
eMi:__ZN6il2cpp2vm5Class10GetMethodsEP11Il2CppClassPPv
MQb:__Z30AddDefaultStreamsToMeshBuffersR9GfxDeviceR11MeshBuffersRK16DrawBuffersRange17ShaderChannelMaskS6_
UCa:__ZN7ApiGLES17DeleteFramebufferERN2gl6HandleILNS0_10ObjectTypeE9EEES3_
wGa:__ZN15UniformTFMethod13MapBoneBufferEj
ZNc:__ZN2UI14CanvasRendererD2Ev
Z2h:_Array_InternalArray__get_Item_TisParameterModifier_t1461694466_m29553316_gshared
MGd:_Int64_CompareTo_m1928360444_AdjustorThunk
aGb:__Z9SetupArgviPPKc
uBd:_Convert_ToInt64_m2075031821
pHj:_glTexParameteri__wrapper
H1a:__ZN12CubemapArray23VirtualRedirectTransferER24GenerateTypeTreeTransfer
x1:__ZN12FileAccessor4OpenER15FileSystemEntry14FilePermission16FileAutoBehavior
Thj:__ZN6il2cpp2os9Directory6CreateERKNSt3__212basic_stringIcNS2_11char_traitsIcEENS2_9allocatorIcEEEEPi
C6:__ZN23TransformChangeDispatch32QueueTransformChangeIfHasChangedERK15TransformAccess
P0a:__ZNSt3__26vectorINS_4pairIN9ShaderLab16FastPropertyNameEN18UnityPropertySheet11UnityTexEnvEEENS_9allocatorIS6_EEE21__push_back_slow_pathIKS6_EEvRT_
RSd:_Assembly_get_FullName_m293988418
B:tempValue
rtj:__ZN6il2cpp8metadata24Il2CppGenericContextHash4HashEPK20Il2CppGenericContext
voe:_InternalEnumerator_1_get_Current_m356936020_AdjustorThunk
lih:_Collection_1_CheckWritable_m1583234367_gshared
$Fd:_Int32_ToString_m141394615_AdjustorThunk
hud:_ArrayListWrapper_CopyTo_m498486826
OId:_Directory_GetCurrentDirectory_m219218555
Ukd:_SmallXmlParser_UnexpectedEndError_m1914362401
_x:__ZN26AnimatorControllerPlayable18DeallocateBindingsEv
Lva:__ZN14DelayedDeletorI15dense_hashtableINSt3__24pairIK9TextureIDiEES3_14GfxGenericHashIS3_EN14GfxDoubleCacheIS3_iS7_NS1_8equal_toIS3_EEN31GfxDoubleCacheConcurrencyPolicy11LocklessGetE42GfxDoubleCacheDefaultEmptyDeletedGeneratorIS3_EE9SelectKeyESA_13stl_allocatorIS5_L18MemLabelIdentifier24ELi16EEEEclEv
tN:__ZN11AudioSource19CreateOpenALRolloffEfff
QCc:_UNITY_FT_Stream_ReadAt
vbg:_TimeSpan__ctor_m1896986612_AdjustorThunk
WPi:__ZN15dense_hashtableINSt3__24pairIK10KeyWrapperIN6il2cpp5utils13dynamic_arrayIPK10Il2CppTypeLj4EEEEPFvvEEESA_NS3_8metadata19Il2CppSignatureHashEN14dense_hash_mapISA_SD_SG_NSA_14EqualsComparerINSF_22Il2CppSignatureCompareEEENS0_9allocatorISE_EEE9SelectKeyESK_SM_E9set_valueEPSE_RKSE_
qjd:_ArgumentException__ctor_m1216717135
Atg:_Ray_ToString_m1732834890_AdjustorThunk
md:_glReadBuffer
D3g:_List_1_System_Collections_IList_Contains_m3860993176_gshared
hO:__ZN11AudioModule22CreateAudioClipFromWWWEP10IWWWStreamPKcbbi
n5b:__ZN9Texture2DC2E10MemLabelId18ObjectCreationMode
Si:_emscripten_glRotatef
gfg:_UInt32_System_IConvertible_ToBoolean_m1763673183_AdjustorThunk
nng:_UnityEvent_AddListener_m2276267359
dQc:__Z13RegisterClassIN2UI11CanvasGroupEEvv
A1b:__ZN6prcoreL11inner_clearILj4EEEvPhjjj
of:_emscripten_glClear
Zoj:_GC_initialize_offsets
qea:__ZNK8Playable6HandleEv
vPe:_SetPropertyUtility_SetColor_m2229203028
dxe:_Enumerator_MoveNext_m481679286_gshared
D$:__ZN14MessageHandler28MessageIDToMessageIdentifierEi
E7a:__ZNK11SpriteAtlas20GetRuntimeRenderDataEPK6Sprite
EId:_FileSystemInfo__ctor_m3035148496
rFd:_Int32_System_IConvertible_ToDecimal_m2190376994_AdjustorThunk
rKc:__ZN20TextRenderingPrivate15DynamicFontData36GetFaceForCharacterIfAvailableInFontERKNS_7FontRefERK13dynamic_arrayI4PPtrIN13TextRendering4FontEELj4EEj
Yv:__ZN7mecanim14ValueArrayCopyILb0EEEvPKNS_10ValueArrayEPS1_
cF:__Z51Register_UnityEngine_Animator_get_hasBoundPlayablesv
Ed:emscriptenWebGLGetUniform
to:FUNCTION_TABLE_iiiiiiiiiii
Gvi:_GUI_CallWindowDelegate_m3309453386
hBc:_cff_set_mm_blend
vWb:__ZL10CleanUpJobP20CullingGroupsJobData
zId:_DirectoryInfo_get_Exists_m3142069876
nLb:__ZN13RenderManager15BatchModeUpdateEv
Rdf:_X509Chain_get_CertificateAuthorities_m804805415
O6a:__ZN14SafeBinaryRead21TransferSTLStyleArrayI13dynamic_arrayI8Vector2fLj4EEEEvRT_17TransferMetaFlags
m3:__ZN17PersistentManager51InstanceIDToLocalSerializedObjectIdentifierInternalEiR31LocalSerializedObjectIdentifier
Cvg:_Vector2_get_one_m738793577
bac:__ZNK4Mesh14GetIndexFormatEv
hd:_glVertexAttribIPointer
f7f:_StringBuilder_ToString_m3317489284
lCa:__ZN13dynamic_arrayI21ComputeShaderResourceLj4EE9push_backERKS0_
oac:__ZNK6Sprite10GetPaddingE20SpriteRenderDataMode
$If:_Array_InternalArray__ICollection_Remove_TisUInt32_t2560061978_m733727733_gshared
vfd:_CryptographicException__ctor_m503735289
mKd:_Stream_EndRead_m1896469262
$Ag:__Z93RuntimeInvoker_Boolean_t97287965_Int32_t2950945753_SByte_t1669577662_ExceptionU26_t3600731591PFvvEPK10MethodInfoPvPS4_
GOb:__ZN14qsort_internal5QSortIP15RODataDepthPassi17ROSorterDepthPassEEvT_S4_T0_T1_
ADc:_UNITY_ft_glyphslot_alloc_bitmap
Ife:_RSASslSignatureDeformatter_SetHashAlgorithm_m895570787
Xni:_X509CrlEntry__ctor_m4013514048
aQg:__Z87RuntimeInvoker_Color_t2555686324_Color_t2555686324_Color_t2555686324_Single_t1397266774PFvvEPK10MethodInfoPvPS4_
tIc:_ft_raster1_render
qlc:__Z47Register_UnityEngine_Mesh_RecalculateBoundsImplv
nqa:__ZN9GfxDevice27UpdateComputeSkinPoseBufferEP9GfxBufferP12SkinMeshInfo
Hxj:__ZNKSt3__221__basic_string_commonILb1EE20__throw_length_errorEv
cXf:_EqualityComparer_1_System_Collections_IEqualityComparer_Equals_m245992594_gshared
JMf:_Array_InternalArray__IndexOf_TisParameterModifier_t1461694466_m1227120810_gshared
VDa:__ZN18GfxFramebufferGLES13ReadbackImageER14ImageReferenceiiiiii
Bpc:__ZN5Unity9rapidjson6WriterI16TempBufferWriterNS0_4UTF8IcEES4_13JSONAllocatorE11WriteStringEPKcj
kdd:_SerializationInfo_SetType_m3923964808
yza:__ZN6prcoreL12RemapGenericI17TexFormatARGB888815TexFormatRGB565EEvPKNS_9InnerInfoE
ZI:__ZN4FMOD7Channel19setReverbPropertiesEPK29FMOD_REVERB_CHANNELPROPERTIES
tMd:_StreamReader_Dispose_m156389394
m_:__ZN13MonoBehaviour22GetScriptFullClassNameEv
o3b:__ZN13ProduceHelperI11MonoManagerLb0EE7ProduceE10MemLabelId18ObjectCreationMode
uif:_RIPEMD160Managed_JJ_m112143231
cOb:__ZN13BatchRendererC2ER15RenderLoopStatsRK15RenderNodeQueuebb
Vmb:__ZNK16MemoryFileSystem9EnumerateEPKcP19dynamic_block_arrayI13FileEntryInfoLj32EEbPPv19FileEnumerationFlag
_Db:__ZN13MonoBehaviour9CallAwakeEv
BYa:__ZN20SphericalHarmonicsL211AddWeightedERKS_f
bEg:__Z82RuntimeInvoker_RuntimeObject_Int64_t3736567304_Int64_t3736567304_Int64_t3736567304PFvvEPK10MethodInfoPvPS4_
htb:__Z19TransferField_ArrayI17RemapPPtrTransfer27Converter_SimpleNativeClassI8GUIStyleEEvRK23StaticTransferFieldInfoR31RuntimeSerializationCommandInfoRT0_
lqc:__ZN9JSONWrite8TransferI10ColorRGBAfEEvRT_PKc17TransferMetaFlags
x$:__Z25scripting_method_get_name18ScriptingMethodPtr
Tfe:_SslCipherSuite_ComputeKeys_m661027754
Frg:_Object_set_name_m291480324
Iyf:_Decimal_Equals_m2486655999
$oj:_GC_exit_check
e1d:_MonoField_ToString_m2518484388
L4e:_DSAManaged_get_Random_m923751780
mze:_Transform_1_Invoke_m2385719192_gshared
Czg:_Vector3_set_Item_m1772472431_AdjustorThunk
Kgf:_Interpreter_PopulateGroup_m4042796257
l_b:__ZNSt3__26vectorINS_4pairIN4core12basic_stringIcNS2_20StringStorageDefaultIcEEEES6_EE13stl_allocatorIS7_L18MemLabelIdentifier38ELi16EEE6insertENS_11__wrap_iterIPKS7_EERSD_
Ong:_RenderPipelineManager_DoRenderLoop_Internal_m3799666479
IA:__ZN9BlobWrite8TransferI22OffsetPtrArrayTransferI9OffsetPtrIN7mecanim12statemachine18StateMachineMemoryEEEEEvRT_PKc17TransferMetaFlags
Efh:_Collection_1_System_Collections_IList_IndexOf_m3894953546_gshared
hmi:_PKCS12_get_Certificates_m26161562
y8e:_NameObjectCollectionBase_Init_m2525481323
lkj:__ZN6il2cpp2vm6String8NewUtf16EPKDsi
red:_SByte_System_IConvertible_ToByte_m2268214252_AdjustorThunk
Chj:__ZN6il2cpp2os10ThreadImpl12QueueUserAPCEPFvPvES2_
jti:_RegularExpression__ctor_m119502265
HUc:__ZN22BaseUnityConnectClient10QueueEventERN11UnityEngine15CloudWebService17CloudServiceEventEPKcjb
D6h:_ReadOnlyCollection_1_System_Collections_Generic_ICollectionU3CTU3E_Clear_m522482168_gshared
UIe:_ConstructionCall_InitMethodProperty_m2021094586
qGc:_UNITY_FT_Hypot
zYh:__ZL74CanvasScaler_t2767979955_CustomAttributesCacheGenerator_m_DefaultSpriteDPIP21CustomAttributesCache
Z3i:_il2cpp_class_is_abstract
yf:_emscripten_glGetError
x1i:__ZN15dense_hashtableINSt3__24pairIK10KeyWrapperIPK14Il2CppAssemblyEPK22Il2CppMonoAssemblyNameEES6_N6il2cpp5utils11PointerHashIS4_EEN14dense_hash_mapIS6_SA_SF_NS6_14EqualsComparerINS0_8equal_toIS5_EEEENS0_9allocatorISB_EEE9SelectKeyESK_SM_E14squash_deletedEv
KJ:__Z14FMOD_FILE_SeekPvjS_
VUe:_MaskableGraphic_OnDisable_m1757789159
kZa:__ZN7TextureC2E10MemLabelId18ObjectCreationMode
KSe:_LayoutGroup__ctor_m2162961217
wXb:__ZNK13RenderTexture32CalculateNeedsInvertedProjectionEv
y0b:__ZN10systeminfo18GetOperatingSystemEv
Gf:emscriptenWebGLGet
Kaa:__Z19CanReplaceComponentRN5Unity9ComponentEPKNS_4TypeEPN4core12basic_stringIcNS5_20StringStorageDefaultIcEEEE
tOd:_UnmanagedMemoryStream_Flush_m1540584491
RCd:_GuidParser_ParseGuid2_m1914838819
g5b:__ZN12CubemapArray11InitTextureEiii13TextureFormatb
VBd:_Convert_ToSingle_m3983149863
Xie:_InternalEnumerator_1_System_Collections_IEnumerator_get_Current_m55999184_gshared
gad:_Graphic_get_depth_m815589653
ivi:_Event_set_displayIndex_m1342258734
pB:__ZN7mecanim5human13HumanFixTwistEPKNS0_5HumanEPNS_8skeleton13SkeletonPoseTIN4math4trsXEEES9_iiRKf
uRb:__ZL24AssignProjectorQueuesJobP30AssignProjectorQueuesJobHeader
R2d:_ParameterModifier_t1461694466_marshal_pinvoke
bQi:__ZN15dense_hashtableINSt3__24pairIK10KeyWrapperIN6il2cpp5utils13dynamic_arrayIPK10Il2CppTypeLj4EEEEPFvvEEESA_NS3_8metadata19Il2CppSignatureHashEN14dense_hash_mapISA_SD_SG_NSA_14EqualsComparerINSF_22Il2CppSignatureCompareEEENS0_9allocatorISE_EEE9SelectKeyESK_SM_E4swapERSP_
sna:__ZN9ShaderLab20SerializedSubProgram14SetConstBufferEPKci
kWi:__ZN6il2cpp2os4File5CloseEPNS0_10FileHandleEPi
CPi:__ZNSt3__27__sort5IRN6il2cpp5utils11collections13ArrayValueMapIPK10Il2CppType17Il2CppInteropData26InteropDataToTypeConverterNS1_8metadata14Il2CppTypeLessENSA_26Il2CppTypeEqualityComparerEE12SortComparerEPS8_EEjT0_SH_SH_SH_SH_T_
Meg:_UInt16_CompareTo_m2664746316_AdjustorThunk
bX:__Z40DebugStringToFilePostprocessedStacktraceRK21DebugStringToFileData
Zuc:__Z29Transfer_Blittable_ArrayFieldI8JSONReadjEvRT_R9ArrayInfoRK23StaticTransferFieldInfo
fpj:_GC_check_finalizer_nested
mg:__setLetterbox
HYe:_ScrollRect_OnScroll_m3861066534
$Ce:_Dictionary_2_ToTKey_m224697230_gshared
aNh:__ZL72FormerlySerializedAsAttribute_t2859083114_CustomAttributesCacheGeneratorP21CustomAttributesCache
Soc:__ZN8JSONRead32GetValueForKeyWithNameConversionEPKN5Unity9rapidjson12GenericValueINS1_4UTF8IcEE13JSONAllocatorEEPKc
Zpi:_PatternCompiler_EmitFastRepeat_m3012952683
iab:__ZNSt3__26vectorI17BlendShapeChannelNS_9allocatorIS1_EEE6assignINS_11__wrap_iterIPS1_EEEENS_9enable_ifIXaasr21__is_forward_iteratorIT_EE5valuesr16is_constructibleIS1_NS_15iterator_traitsISA_E9referenceEEE5valueEvE4typeESA_SA_
r0b:__ZN11TimeManager11GetRealtimeEv
cK:__ZN29AudioEffectInternalDefinitionC2EP26UnityAudioEffectDefinitionb
nbi:_ReadOnlyCollection_1_System_Collections_IList_Remove_m2434650390_gshared
dfg:_UInt16_ToString_m3056878594_AdjustorThunk
tsj:__ZN6il2cpp2os9FastMutexD2Ev
Hhf:_Interval_get_IsSingleton_m3386290029
sYi:__ZNSt3__2plIcNS_11char_traitsIcEENS_9allocatorIcEEEENS_12basic_stringIT_T0_T1_EERKS9_PKS6_
yxg:_Time_get_unscaledDeltaTime_m4270080131
Lbb:__ZN4Mesh14GetMeshBuffersER11MeshBuffers17ShaderChannelMaskPS_b
kkf:_SHA384Managed__ctor_m3220477113
xya:_stbir_resize
WLf:_Array_IndexOf_TisCustomAttributeTypedArgument_t2723150157_m3158556463_gshared
yCf:_Environment_GetOSVersionString_m407782784
rsf:_DecoderExceptionFallback_Equals_m1082173956
orh:__ZL69Assembly_t_CustomAttributesCacheGenerator_Assembly_GetName_m981771927P21CustomAttributesCache
AOa:__Z37ReadDirectoryInfo_UnityWebAndUnityRawR12FileAccessorRKN20ArchiveStorageHeader6HeaderERNS1_13DirectoryInfoE
V9:__ZNSt3__26__treeINS_12__value_typeIPKciEENS_19__map_value_compareIS3_S4_15compare_tstringIS3_ELb1EEENS_9allocatorIS4_EEE7destroyEPNS_11__tree_nodeIS4_PvEE
$Pf:_Array_InternalArray__Insert_TisIntPtr_t_m189626842_gshared
Wcf:_X509Certificate2_get_IssuerName_m1277209535
Qid:_RijndaelManaged_CreateEncryptor_m263736311
lVc:__ZN13dynamic_arrayIN4core12basic_stringIcNS0_20StringStorageDefaultIcEEEELj4EE6assignEPKS4_S7_
EOb:__ZN20DynamicPropertySheet14SetValueQueuedEN9ShaderLab16FastPropertyNameEN19ShaderPropertySheet12PropertyTypeEjNS2_8SetFlagsE
NOc:__ZN2UI6Canvas26MarkAllNestedCanvasesDirtyEv
Umg:_InvokableCallList_ClearPersistent_m1904264973
AFb:__ZN25PathNamePersistentManagerD2Ev
QY:__ZN17PersistentManager48IntegrateObjectAndUnlockIntegrationMutexInternalEi
Jga:__ZZ29InitializeSortingGroupManagerPvEN44PostLateUpdateSortingGroupsUpdateRegistrator7ForwardEv
aSh:__ZL55EventTrigger_t1076084509_CustomAttributesCacheGeneratorP21CustomAttributesCache
Snf:_SecurityElement_SearchForChildByTag_m900466299
mp:__ZN6Object12SetHideFlagsENS_9HideFlagsE
A4e:_CryptoConvert_FromCapiPublicKeyBlob_m4073029974
mEj:_emscripten_glGetFramebufferAttachmentParameteriv__wrapper
PLb:__ZN13RendererScene15InitializeUmbraEv
sXa:__Z28CalculateGlobalMatrixInverse23TransformAccessReadOnly
HZf:_GenericEqualityComparer_1_Equals_m3457564127_gshared
c6d:_BigInteger_ModInverse_m2426215562
nsf:_DecoderExceptionFallback__ctor_m4044614564
yOd:_LocalDataStoreSlot__cctor_m644942532
ptj:__ZN6il2cpp6icalls8mscorlib6System6Object7GetTypeEP12Il2CppObject
V1d:_MonoProperty_CachePropertyInfo_m2968057423
rYc:__ZNK25UnityWebRequestJavaScript18GetDownloadedBytesEv
ytg:_Ray_GetPoint_m1852405345_AdjustorThunk
$Gf:_Array_get_swapper_TisColor32_t2600501292_m2310851009_gshared
jYc:__ZN12HeaderHelper14SetUnvalidatedERKN4core12basic_stringIcNS0_20StringStorageDefaultIcEEEES6_b
aG:__ZN4FMOD6SoundI7releaseEv
Vzc:_cff_parse_num
cPa:__ZN10MemoryFile9SetLengthEy
mvb:__ZN5RectTIiE8TransferI24GenerateTypeTreeTransferEEvRT_
w4a:__ZN14SafeBinaryRead21TransferSTLStyleArrayI13dynamic_arrayI7Hash128Lj8EEEEvRT_17TransferMetaFlags
CEb:__Z28scripting_class_is_interface17ScriptingClassPtr
Dh:_glTexStorage2D
$xd:_SyncHashtable_get_Item_m2686606216
Pma:__ZNK9ShaderLab10SubProgram14EnsureCompiledEv
mZd:_MethodBuilder_GetGenericArguments_m1765425737
Yuf:_DateTime_CompareTo_m3687348273
Wnj:_GC_push_marked
ewf:_DateTime_ToUniversalTime_m1945318289_AdjustorThunk
I2e:_Kernel_modInverse_m668448880
n$:__Z18BuildScriptClassId17ScriptingClassPtr
pGi:_TextGenerator_Init_m1168488231
DMa:__ZL31DeleteLastPathNameComponentImplRKN4core12basic_stringIcNS_20StringStorageDefaultIcEEEEPKc
m2b:__Z13RegisterClassI18DelayedCallManagerEvv
VUc:__ZN18UnityConnectClient15GetCloudServiceEv
vtb:__Z18Transfer_BlittableI24GenerateTypeTreeTransferLb0EiEvRK29SerializationCommandArgumentsR31RuntimeSerializationCommandInfo
une:_InternalEnumerator_1_get_Current_m2698009637_gshared
KSi:__ZN6il2cpp2os19SocketHandleWrapperD2Ev
nAe:_Enumerator_System_Collections_IEnumerator_Reset_m278261807_gshared
vEb:__ZL28SerializationCommandGroupForRK31TransferFunctionScriptingTraits17ScriptingClassPtr17ScriptingFieldPtrRK20CoreScriptingClasses
HRa:__ZN10TagManager32RegisterDefaultTagsAndLayerMasksEv
pbg:_WaitHandle_Dispose_m738127030
fKg:__Z50RuntimeInvoker_Double_t594665363_Int32_t2950945753PFvvEPK10MethodInfoPvPS4_
MSg:__Z104RuntimeInvoker_Void_t1185182177_Color_t2555686324_Single_t1397266774_SByte_t1669577662_SByte_t1669577662PFvvEPK10MethodInfoPvPS4_
M1f:_Enumerator_System_Collections_IEnumerator_get_Current_m1540440674_gshared
Nof:_Single_System_IConvertible_ToInt16_m809233024_AdjustorThunk
Uvj:_fmodf
TOe:_InputField_UpdateLabel_m1837760870
Nua:__ZN4gles8InitCapsEP7ApiGLESP12GraphicsCapsR16GfxDeviceLevelGL
Rya:__ZN6prcore14BlitImageFloatERK14ImageReferenceRS0_NS0_8BlitModeE
XUa:__Z24CalculateVertexLightDataRK15SharedLightDataR14GfxVertexLight
li:_glEnable
Mma:__ZNK9ShaderLab7Program28BeginReadUnsupportedVariantsEv
o6:__ZN12CachedWriter11Align4WriteEv
Qfb:__ZNSt3__26vectorIN30RuntimeInitializeOnLoadManager9ClassInfoE13stl_allocatorIS2_L18MemLabelIdentifier13ELi16EEE7reserveEj
yqc:__Z35Transfer_Blittable_FixedBufferFieldI9JSONWriteiEvRK29SerializationCommandArgumentsR31RuntimeSerializationCommandInfo
XZf:_Enumerator__ctor_m1590062855_AdjustorThunk
v2i:__ZN14dense_hash_mapI10KeyWrapperINSt3__24pairIPK10MethodInfoP11Il2CppClassEEEj17ReflectionMapHashIS8_ENS9_14EqualsComparerINS1_8equal_toIS8_EEEENS1_9allocatorINS2_IKS9_jEEEEEC2EjRKSB_RKSF_
Sx:__ZN26AnimatorControllerPlayable17ProcessRootMotionEP35AnimationPlayableEvaluationConstantP32AnimationPlayableEvaluationInputP33AnimationPlayableEvaluationOutput
ZNd:_UnexceptionalStreamReader_Peek_m1842169584
wTc:__ZN11UnityEngine7Connect15DeviceInfoEvent16CollectExtraInfoEv
djg:_Bounds_GetHashCode_m1844059663_AdjustorThunk
Mfd:_CryptographicException__ctor_m1422015889
$zg:_Vector4_Equals_m1779210055_AdjustorThunk
HCd:_Convert_ChangeType_m739676612
Xlj:__ZThn8_N6il2cpp2vm13CachedCCWBaseINS0_13ManagedObjectEE6AddRefEv
T9d:_Alert_GetAlertMessage_m1942367141
MGe:_RemotingServices_GetRealProxy_m2081098851
r4e:_BlockProcessor_Core_m189015002
uEj:_emscripten_glScissor__wrapper
yo:FUNCTION_TABLE_viifi
zo:FUNCTION_TABLE_viiff
xjd:_X501__cctor_m1166912714
cVe:_MaskUtilities_GetRectMasksForClip_m532898711
HGc:_UNITY_tt_face_free_hdmx
Fjg:_Bounds_ToString_m4208690781
_Wi:__ZN6il2cpp2vm14TypeNameParser5ParseEb
POd:_Math_Sqrt_m1297338011
MMd:_StreamWriter_Initialize_m3490883444
Odg:_Type_GetGenericArguments_m3500465462
mXc:__ZN23UnityPurchasingSettingsC2Ev
b0d:_Module_IsDefined_m2423524910
MVd:_DerivedType_create_unmanaged_type_m747846525
QPh:__ZL60EventType_t3528516131_CustomAttributesCacheGenerator_repaintP21CustomAttributesCache
MTa:__ZN17GPUFenceInternals7ReleaseEv
sXh:__ZL66Selectable_t3250028441_CustomAttributesCacheGenerator_m_NavigationP21CustomAttributesCache
xXb:__ZL10RenderFaceR9GfxDeviceR18MaterialStateCacheP13RenderTextureiif
VLf:_Array_IndexOf_TisCustomAttributeNamedArgument_t287865710_m2817957199_gshared
yja:__ZN15SerializeTraitsI13dynamic_arrayIN9ShaderLab21SerializedBindChannelELj4EEE19ResizeSTLStyleArrayERS3_i
jcj:__ZNK24NamespaceAndNamePairHashclERKNSt3__24pairIPKcS3_EE
wli:_ExtendedKeyUsageExtension_ToString_m2116504780
Jib:__ZNK5Unity9Component38MarkGameObjectAndComponentDependenciesER27GarbageCollectorThreadState
cId:_BinaryReader_Read_m3708759962
GYc:__ZN20UnityWebRequestProtoI24UnityWebRequestTransport16AtomicRefCounter14RedirectHelper14ResponseHelper15DownloadHandler13UploadHandler12HeaderHelper14AsyncOperationED0Ev
sua:__ZN9GfxDevice26CreateDefaultVertexBuffersEv
NFj:_emscripten_glVertexAttrib2fv__wrapper
lNd:_SynchronizedReader_ReadToEnd_m2160105378
VAf:_Double_System_IConvertible_ToUInt16_m4132603953_AdjustorThunk
Lxa:__ZN4crnd12symbol_codec32decode_receive_static_data_modelERNS_25static_huffman_data_modelE
P0b:__ZN18ScriptingArguments8AddFloatEf
Lxg:_TouchScreenKeyboard_Open_m3325559252
lcd:_Image_set_fillOrigin_m469806249
mTc:__ZN11UnityEngine15PlatformWrapper16GetVRRenderScaleEv
yrc:__Z18Transfer_BlittableI9JSONWriteLb0EaEvRK29SerializationCommandArgumentsR31RuntimeSerializationCommandInfo
KR:__ZN11UnityEngine15CloudWebService14DataDispatcher34OnSessionContainerArchivedAndReadyERNS0_16SessionContainerE
hrg:_ConnectionChangeEvent__ctor_m764126802
k3d:_ResolveEventHandler_Invoke_m1337322179
E0f:_Enumerator_VerifyState_m2621680056_gshared
eui:_UriParser_InternalRegister_m3643767086
Wha:__ZN14SafeBinaryRead19TransferSTLStyleMapINSt3__23mapIN4core12basic_stringIcNS3_20StringStorageDefaultIcEEEEiNS1_4lessIS7_EENS1_9allocatorINS1_4pairIKS7_iEEEEEEEEvRT_17TransferMetaFlags
TEc:_gray_move_to
bxf:_DBNull_System_IConvertible_ToSingle_m13713620
I5h:_ReadOnlyCollection_1_System_Collections_IList_Contains_m1327645028_gshared
ycd:_Image_GetDrawingDimensions_m3060965396
pNh:__ZL69FontTextureRebuildCallback_t2467502454_CustomAttributesCacheGeneratorP21CustomAttributesCache
feg:_TypeLoadException__ctor_m1154572625
Zdc:__Z30RegisterValidateMethodCallbackiPF18ScriptingMethodPtrS_17ScriptingClassPtrP6ObjectEPKc
Zce:_Context_get_WriteSequenceNumber_m1115956887
H1h:_Dictionary_2_Do_ICollectionCopyTo_TisKeyValuePair_2_t2401056908_m1169495264_gshared
YZd:_OpCodes__cctor_m3821715395
l6c:_ContentSizeFitter__ctor_m2349275633
eEc:_tt_cmap_init
Qvc:__ZN8JSONRead8TransferI9BoundsIntEEvRT_PKc17TransferMetaFlagsb
Ia:invoke_viidi
i0h:_Array_Sort_TisOrderBlock_t1585977831_m2922111197_gshared
Z9c:_Graphic_OnRectTransformDimensionsChange_m3695755375
ted:_SByte_System_IConvertible_ToChar_m1489191771_AdjustorThunk
DI:__ZN9AudioClip7CleanupEv
F6i:__ZNK15dense_hashtableINSt3__24pairIK10KeyWrapperIP11Il2CppClassES4_EES5_N6il2cpp8metadata16SZArrayClassHashEN14dense_hash_mapIS5_S4_SA_NS5_14EqualsComparerINS9_19SZArrayClassCompareEEENS0_9allocatorIS7_EEE9SelectKeyESE_SG_E12test_deletedEj
ruc:__Z18Transfer_BlittableI8JSONReadLb0EdEvRK29SerializationCommandArgumentsR31RuntimeSerializationCommandInfo
$He:_SynchronizationAttribute_EnterContext_m1660729920
VHi:_Canvas_get_referencePixelsPerUnit_m3420541976
mvi:_Event_get_current_m2393892120
vzi:_VertexHelper_Clear_m627349662
bTi:__ZN6il2cpp2vm21ThreadPoolCompartment13QueueWorkItemEP17Il2CppAsyncResult
ppa:__ZNK9GfxDevice13GetViewMatrixEv
uOd:_UnmanagedMemoryStream_Dispose_m2681886347
Jhb:__ZN17RemapPPtrTransferC2E24TransferInstructionFlagsb
BAd:_Convert_ToDecimal_m889385228
L0:__ZN8TypeTree8BlobReadERPKhS1_ib
_nd:_Array_Reverse_m3714848183
t8c:_Dropdown_ClearOptions_m4085591601
y5c:_CanvasUpdateRegistry_InternalRegisterCanvasElementForGraphicRebuild_m3522560454
lgb:__ZN18LoadSceneOperation23GetAllowSceneActivationEv
fSa:__ZN6CameraD0Ev
vfa:__ZN31CanvasBatchIntermediateRenderer16StaticInitializeEPv
ix:__ZN7mecanim12AndValueMaskILb0EEEvPKNS_14ValueArrayMaskEPS1_
Efb:__ZN14SafeBinaryRead21TransferSTLStyleArrayINSt3__26vectorIi13stl_allocatorIiL18MemLabelIdentifier13ELi16EEEEEEvRT_17TransferMetaFlags
n5f:_EncoderFallback__cctor_m3806755293
QKc:_raccess_guess_apple_double
QBa:__ZL18ProgramUniform1uivPK7ApiGLESjiihPKv
q5b:__ZN14Texture2DArray13RebuildMipMapEv
aNi:__ZN13Il2CppHashSetIPK17Il2CppGenericInstN6il2cpp8metadata21Il2CppGenericInstHashENS4_24Il2CppGenericInstCompareENSt3__29allocatorI10KeyWrapperIS2_EEEEC2EjRKS5_RKS6_
Sob:__Z18Transfer_BlittableI14SafeBinaryReadLb1EaEvRK29SerializationCommandArgumentsR31RuntimeSerializationCommandInfo
Jij:__ZN6il2cpp2gc16GarbageCollector14RemoveWeakLinkEPPv
tna:__ZN9ShaderLab20SerializedSubProgram14AddVectorParamEPKcii15ShaderParamTypei
d3g:_List_1_GetEnumerator_m563931292_gshared
hzd:_Enumerator__ctor_m3362421874
hRg:__Z117RuntimeInvoker_CSSSize_t3377836552_IntPtr_t_Single_t1397266774_Int32_t2950945753_Single_t1397266774_Int32_t2950945753PFvvEPK10MethodInfoPvPS4_
QJj:_emscripten_glIsFramebuffer__wrapper
Jfj:__ZN6il2cpp2vm6Object3BoxEP11Il2CppClassPv
t7i:__ZN6il2cpp2vm6Thread7SetNameEP12Il2CppThreadP12Il2CppString
IGb:__ZN13ScreenManager18SetAllowCursorLockEb
cT:__ZN11UnityEngine15CloudWebService10RestClientINS0_23WebRequestRestHeaderMapEE16SetRequestHeaderERKN4core12basic_stringIcNS4_20StringStorageDefaultIcEEEESA_
Jfb:__ZN30RuntimeInitializeOnLoadManager15ClassMethodInfo8TransferI14SafeBinaryReadEEvRT_
MIe:_ConstructionCall_InitDictionary_m2824447813
zP:__ZL22InitializeModule_Audiov
Imb:__ZN16MemoryFileSystem8IsLockedERK13FileEntryData
a9i:__ZN6il2cpp6icalls8mscorlib6System2IO6MonoIO5WriteEiP11Il2CppArrayiiPi
Tpg:_Mathf_InverseLerp_m4155825980
sHg:__Z92RuntimeInvoker_RuntimeObject_RuntimeObject_RuntimeObject_SByte_t1669577662_SByte_t1669577662PFvvEPK10MethodInfoPvPS4_
Zk:_emscripten_glBindRenderbuffer
O0g:_List_1_System_Collections_IList_Insert_m1011775503_gshared
Woj:_GC_dirty_init
cdj:__ZN6il2cpp2vm5Image33GetCachedMemoryMappedResourceFileEP24Il2CppReflectionAssembly
vfj:__ZN6il2cpp2vm5Field14GetValueObjectEP9FieldInfoP12Il2CppObject
VPc:__ZNK2UI6Canvas16GetTargetDisplayEv
Zbg:_TimeSpan_CompareTo_m3633415627_AdjustorThunk
kda:__ZN6Object17FindObjectsOfTypeEPKN5Unity4TypeER13dynamic_arrayIPS_Lj4EEb
WUe:_MaskableGraphic_OnTransformParentChanged_m329502413
UDb:__ZN13MonoBehaviour17RemoveFromManagerEv
Azg:_Vector3_get_Item_m668685504_AdjustorThunk
MSa:__ZN12ImageFilters14AddImageFilterERK11ImageFilter
YGe:_Context_NotifyDynamicSinks_m1841702879
Ovi:_GUIUtility_get_pixelsPerPoint_m2369948084
Enf:_WindowsIdentity_System_Runtime_Serialization_IDeserializationCallback_OnDeserialization_m3428853631
rW:__ZN13MemoryManagerC2Ev
JFa:__ZN12SkinMeshInfo10DeallocateEPS_
iYe:_ScrollRect_SetDirty_m214267968
rPa:__ZN20ArchiveStorageReader28AcquireAndPrefillUnusedBlockEjPNS_11CacheResultE
Epd:_Boolean_System_IConvertible_ToDateTime_m603510836
k5b:__Z12NHxRoughnessIA4_tEvP9Texture2DPT_iiii
U3e:_ASN1_get_Value_m1857007406
Eda:__ZN18AsyncUploadManagerD2Ev
kkb:__ZN9Transform5ResetEv
hzf:_Decimal_op_Explicit_m1842265407
Cvb:__Z22TransferField_NonArrayI24GenerateTypeTreeTransfer16Converter_StringEvRK23StaticTransferFieldInfoR31RuntimeSerializationCommandInfoRT0_
LIi:_CanvasRenderer_SetAlphaTexture_m2009567627
zAc:_UNITY_FT_CMap_New
hke:_InternalEnumerator_1_get_Current_m4241643334_AdjustorThunk
BGb:__Z17MainLoopKeepalivePv
xqe:_InternalEnumerator_1_get_Current_m1588647567_AdjustorThunk
Zuj:_printf_core
Wsh:__ZL51GCHandle_t3351438187_CustomAttributesCacheGeneratorP21CustomAttributesCache
HVb:__Z14CalcHullBoundsPK8Vector3fPKhhRK5PlaneRK10Matrix4x4fR10MinMaxAABB
kPe:_InputField_get_caretBlinkRate_m3620074524
zOb:__Z19SetupLODFadeKeywordR17ShaderPassContexti
Ajf:_RSAPKCS1SignatureFormatter_CreateSignature_m3191980616
h$a:__ZN10builtintex16GetDefaultTexEnvE16TextureDimensionb
lFa:__ZL25CheckCopyTextureArgumentsRK7ApiGLESP11GLESTextureS3_
DIj:_glDeleteShader__wrapper
$ub:__Z29Transfer_Blittable_ArrayFieldI24GenerateTypeTreeTransferyEvRT_R9ArrayInfoRK23StaticTransferFieldInfo
oJ:__ZN4FMOD7SystemI9playSoundE17FMOD_CHANNELINDEXPNS_5SoundEbPPNS_7ChannelE
PGd:_Int64_GetHashCode_m703091690
QEf:_CultureInfo_set_DateTimeFormat_m1843682751
fvi:_Event_get_commandName_m4275147343
hx:__ZN27AnimationLayerMixerPlayable17LayerMixerProcessEP35AnimationPlayableEvaluationConstantP32AnimationPlayableEvaluationInputP33AnimationPlayableEvaluationOutputM17AnimationPlayableFvS1_S3_S5_EMS_FvS1_S3_S5_ESA_MS_FvS5_S1_S3_S5_ifE
ozf:_Decimal_op_Implicit_m4256234411
PH:__ZN12AudioManager23VirtualRedirectTransferER18StreamedBinaryReadILb0EE
VDg:__Z60RuntimeInvoker_RuntimeObject_RuntimeObject_Int16_t2552820387PFvvEPK10MethodInfoPvPS4_
pMd:_StreamReader__ctor_m3941437302
ekc:__Z57Register_UnityEngine_Transform_INTERNAL_get_localRotationv
jBj:dynCall_viif
ls:__ZN7mecanim4hand8HandPoseC2Ev
gNd:_StringReader_ReadLine_m2337102945
Hsb:__ZL26Transfer_SimpleNativeClassI17RemapPPtrTransfer8GradientLb0EEvRK29SerializationCommandArgumentsR31RuntimeSerializationCommandInfo
cyd:_SyncHashtable_Add_m3016107307
Uy:__ZN17AnimationPlayable26DisconnectNoTopologyChangeEPS_i
lqd:_Boolean_Equals_m2410333903_AdjustorThunk
r7g:_List_1_System_Collections_IList_Contains_m2131605266_gshared
ZT:__ZN13UploadHandlerD2Ev
Hzj:dynCall_viiiiiffi
iHi:_Hacker__ctor_m518604791
zc:_emscripten_glBlendFuncSeparate
Ofh:_Collection_1_Add_m809543251_gshared
F_:__Z20scripting_string_newPKc
Dic:__Z43Material_CUSTOM_Internal_CreateWithMaterialP12Il2CppObjectS0_
oti:_Parser_IsSingleline_m326238187
gwd:_CollectionBase_get_Count_m1708965601
hhd:_HMAC__ctor_m97939284
ohg:_ValueType_DefaultEquals_m2927252100
Wpc:__ZN9JSONWrite12AppendToNodeEPN5Unity9rapidjson12GenericValueINS1_4UTF8IcEE13JSONAllocatorEEPKcRS6_
$3e:_ASN1_ToString_m1340204511
Xdf:_X509Store_get_Certificates_m2149701265
RTh:__ZL144StandaloneInputModule_t2760469101_CustomAttributesCacheGenerator_StandaloneInputModule_t2760469101____allowActivationOnMobileDevice_PropertyInfoP21CustomAttributesCache
e7f:_StringBuilder_set_Chars_m3548656617
cWi:__ZN6il2cpp2os4File17GetFileAttributesERKNSt3__212basic_stringIcNS2_11char_traitsIcEENS2_9allocatorIcEEEEPi
ZB:__ZNSt3__26__sortIRPFbPKN8Animator11AnimatorJobES4_EPS4_EEvT0_S9_T_
UG:__ZN17AudioCustomFilterD2Ev
VXg:__Z56RuntimeInvoker_Void_t1185182177_MonoResource_t4103430009PFvvEPK10MethodInfoPvPS4_
Pmj:_GC_unpromote_black_lists
CDa:__ZN18GfxFramebufferGLES18ReleaseFramebufferEP17RenderSurfaceBaseP14GfxContextGLES
htc:__Z18Transfer_BlittableI8JSONReadLb1EiEvRK29SerializationCommandArgumentsR31RuntimeSerializationCommandInfo
qV:__ZN19CloudServiceHandler34HandleSaveFileWebRequestPlayerLoopEv
Gy:__ZN7mecanim21ValueArrayReverseCopyEPKNS_18ValueArrayConstantEPKNS_10ValueArrayES2_PS3_PKi
CG:__Z31GetParentSampleClipFromInstancePN11SoundHandle8InstanceE
K3b:__ZNK28RectTransformPropertyBinding13GetFloatValueERKN11UnityEngine9Animation10BoundCurveE
UXb:__ZN6Camera22StandaloneCustomRenderENS_10RenderFlagEP6ShaderRKN4core12basic_stringIcNS3_20StringStorageDefaultIcEEEEPNS_21PerformRenderFunctionE
pMf:_Array_InternalArray__IndexOf_TisKeyValuePair_2_t2401056908_m4118889689_gshared
$eb:__ZNSt3__26vectorI4PPtrI6ObjectE13stl_allocatorIS3_L18MemLabelIdentifier52ELi16EEE6assignINS_11__wrap_iterIPS3_EEEENS_9enable_ifIXaasr21__is_forward_iteratorIT_EE5valuesr16is_constructibleIS3_NS_15iterator_traitsISD_E9referenceEEE5valueEvE4typeESD_SD_
Mtj:__ZN6il2cpp2os16ThreadLocalValue8GetValueEPPv
_cf:_X509Certificate2_get_PublicKey_m370665820
Mxc:_cff_slot_init
tRi:__ZN6il2cpp2vm13MetadataCache14GetGenericInstEPKPK10Il2CppTypej
CP:__ZN13AudioListener17ReadExtensionNameEi
Lb:invoke_iiidii
cp:setThrew
b5b:__ZL21BuildEmptyCubeTexturePKci11ColorRGBA3217TextureColorSpace
Zha:__ZN14SafeBinaryRead21TransferSTLStyleArrayINSt3__26vectorIN9ShaderLab20SerializedSubProgramENS1_9allocatorIS4_EEEEEEvRT_17TransferMetaFlags
OMf:_Array_InternalArray__IndexOf_TisX509ChainStatus_t133602714_m48896230_gshared
WNa:__ZN19dynamic_block_arrayI13FileEntryInfoLj32EE4growEj
qtc:__Z15Transfer_StringI8JSONReadLb1EEvRK29SerializationCommandArgumentsR31RuntimeSerializationCommandInfo
Lci:_Comparison_1_BeginInvoke_m816899747_gshared
lAa:__ZN6prcoreL17RemapGenericFloatI17TexFormatRGBFloat15TexFormatRGHalfEEvPKNS_9InnerInfoE
TCc:_sfnt_load_face
nKc:_UNITY_FT_Render_Glyph_Internal
U9i:__ZNSt3__212basic_stringIDsNS_11char_traitsIDsEENS_9allocatorIDsEEE21__grow_by_and_replaceEjjjjjjPKDs
TAc:_UNITY_ft_service_list_lookup
Ymc:__ZN5IMGUI21SelectReceivingWindowER8GUIStateb
xhd:_HMAC_Initialize_m3157696427
$vj:___strchrnul
SV:__ZN13BaseAllocator13TryDeallocateEPv
Tbf:_X509SubjectKeyIdentifierExtension__ctor_m2055934916
WTa:__ZNSt3__26vectorIN12FlareManager10FlareEntryENS_9allocatorIS2_EEE21__push_back_slow_pathIKS2_EEvRT_
Vuj:_sprintf
Edc:__ZN9Scripting25CreateNullExceptionObjectE18ScriptingObjectPtr
c6e:_PrivateKeyInfo_DecodeRSA_m2889346634
wH:__ZN13AudioListener17RemoveFromManagerEv
td:_glAttachShader
w6c:_ContentSizeFitter_SetLayoutHorizontal_m2833273874
jY:__ZNK6Camera19GetProjectionMatrixEv
bWh:__ZL70InputField_t3762917431_CustomAttributesCacheGenerator_m_SelectionColorP21CustomAttributesCache
MPe:_InputField_SetToCustomIfContentTypeIsNot_m2813459946
HKh:__ZL70RuntimePlatform_t4159857903_CustomAttributesCacheGenerator_FlashPlayerP21CustomAttributesCache
IGf:_Guid_GetHashCode_m3042133858_AdjustorThunk
e_:__Z38PreallocateObjectFromPersistentManagerib
Sgf:_Interpreter_Backtrack_m2828876822
N2a:__ZNK9Texture2D20GetUnscaledTextureIDEv
Jed:_SByte_System_IConvertible_ToType_m4075253447
UGj:_glFenceSync__wrapper
yyg:_Transform_INTERNAL_get_worldToLocalMatrix_m2730237241
aRe:_InputField_IsValidChar_m1928072643
S2a:__ZNK9Texture2D26CanReuploadDataToGfxDeviceEv
xxh:__ZL63CodeAccessPermission_t2681295399_CustomAttributesCacheGeneratorP21CustomAttributesCache
Xgb:__Z29ClearRepeatingLogMessageStatev
Koe:_InternalEnumerator_1_get_Current_m3191242573_gshared
nrd:_Byte_Equals_m1161982810_AdjustorThunk
Rfe:_SslCipherSuite_ComputeMasterSecret_m3963626850
FJa:__ZN7ApiGLESD2Ev
bRa:__ZN9Transform47ClearTransformHierarchyAndApplyToSerializedDataEv
Fuc:__ZN8JSONRead21TransferSTLStyleArrayINSt3__26vectorI8MonoPPtr13stl_allocatorIS3_L18MemLabelIdentifier1ELi16EEEEEEvRT_17TransferMetaFlags
lSa:__ZN6Camera23VirtualRedirectTransferER19StreamedBinaryWriteILb0EE
ABj:dynCall_fidi
iZi:__ZN15dense_hashtableINSt3__24pairIK10KeyWrapperINS1_IPK9FieldInfoP11Il2CppClassEEEjEES9_17ReflectionMapHashIS8_EN14dense_hash_mapIS9_jSD_NS9_14EqualsComparerINS0_8equal_toIS8_EEEENS0_9allocatorISB_EEE9SelectKeyESI_SK_E12resize_deltaEjj
Zvi:_GUILayoutEntry__ctor_m2229197035
o4:__ZN15dense_hashtableINSt3__24pairIKN9ShaderLab7Program23ShaderKeywordSetAndHashEPKNS2_10SubProgramEEES4_NS3_24ShaderKeywordHashFunctorEN14dense_hash_mapIS4_S8_SA_NS0_8equal_toIS4_EE13stl_allocatorIS9_L18MemLabelIdentifier67ELi16EEE9SelectKeyESD_SG_E15insert_noresizeERKS9_
Cdc:__ZNK13MonoBehaviour13GetScriptTypeEv
iZa:__ZN13RenderTexture12SetDimensionE16TextureDimension
E4e:_DSAManaged_add_KeyGenerated_m2286864968
je:_SDL_FreeRW
iRc:__Z34CanvasRenderer_Get_Custom_PropCullP12Il2CppObject
iN:__ZN20SoundChannelInstance8getDelayE14FMOD_DELAYTYPEPjS1_
F4:__ZNSt3__26vectorIN20GpuProgramParameters15StructParameterENS_9allocatorIS2_EEEC2ERKS5_
mie:_ArrayReadOnlyList_1_Contains_m232667507_gshared
KJg:__Z77RuntimeInvoker_Boolean_t97287965_IntPtr_t_Int32_t2950945753_SByte_t1669577662PFvvEPK10MethodInfoPvPS4_
xsg:_PlayableHandle_GetPlayableType_m432385838_AdjustorThunk
cJc:__ZNSt3__26vectorIN20TextRenderingPrivate8FontImpl13CharacterInfoE13stl_allocatorIS3_L18MemLabelIdentifier1ELi16EEE8__appendEj
v:tempBigInt
yQf:_Array_InternalArray__Insert_TisKeyframe_t4206410242_m1558638568_gshared
re:_emscripten_glVertexAttrib1fv
Gia:__ZNSt3__26vectorIN9ShaderLab20SerializedSubProgram12UAVParameterENS_9allocatorIS3_EEE7reserveEj
Cyj:__ZSt11__terminatePFvvE
OJ:__ZN12AudioManager14systemCallbackEP11FMOD_SYSTEM24FMOD_SYSTEM_CALLBACKTYPEPvS3_
Tdi:_Nullable_1_Equals_m4046255732_gshared
r9h:_ReadOnlyCollection_1_System_Collections_Generic_ICollectionU3CTU3E_Clear_m3451551308_gshared
h4c:_BaseMeshEffect_OnEnable_m3291426649
vF:__ZN10SampleClip23VirtualRedirectTransferER24GenerateTypeTreeTransfer
uYa:__ZN16ReflectionProbes16UpdateSampleDataEv
YEf:_CultureInfo_GetCultureInfo_m56098747
XUb:__Z20AddActiveLocalLightsR11CullResultsR27LocalLightCullingParametersPPK15SharedLightDataPK8Vector4fRK9IndexListPfRSA_R12ActiveLightsSG_P5RectTIfEP13TargetEyeMask
Poh:__ZL80Hashtable_t1853889766_CustomAttributesCacheGenerator_Hashtable__ctor_m1763145853P21CustomAttributesCache
wAd:_Convert_ToDecimal_m1284148187
Ehh:_Collection_1__ctor_m3489157029_gshared
wEj:_emscripten_glRenderbufferStorage__wrapper
uXi:__ZNK6il2cpp2vm14TypeNameParser10NextWillBeEcb
nyc:_cf2_getNormalizedVector
Oe:_JS_Sound_Play
oai:_ReadOnlyCollection_1_System_Collections_IList_set_Item_m1538987737_gshared
lha:__ZN9ShaderLab16SerializedShader8TransferI14SafeBinaryReadEEvRT_
wbd:_GridLayoutGroup_set_constraint_m3308895167
dJe:_ConstructionCallDictionary_SetMethodProperty_m3145285304
HFd:_Int32_System_IConvertible_ToUInt32_m3557270157
FMg:__Z243RuntimeInvoker_Void_t1185182177_Int16_t2552820387_RuntimeObject_Int32_t2950945753_Int32_t2950945753_Int32_t2950945753_SByte_t1669577662_SByte_t1669577662_SByte_t1669577662_SByte_t1669577662_Int16_t2552820387_SByte_t1669577662_SByte_t1669577662PFvvEPK10MethodInfoPvPS4_
fje:_InternalEnumerator_1_System_Collections_IEnumerator_get_Current_m1503522504_gshared
rB:__ZN7mecanim8skeleton13SkeletonAlignEPKNS0_8SkeletonERKN4math7_float4ES7_i
V5b:__ZN19ShaderPropertySheet16SetVectorIndexedEN9ShaderLab16FastPropertyNameEifRK8Vector4fNS_8SetFlagsE
Rcg:_Type_get_IsAbstract_m1120089130
Gzg:_Vector3_get_normalized_m2454957984_AdjustorThunk
Nui:_UriFormatException__ctor_m1115096473
s5i:__ZN15dense_hashtableINSt3__24pairIK10KeyWrapperINS1_IP11Il2CppClassjEEES4_EES6_N6il2cpp8metadata14ArrayClassHashEN14dense_hash_mapIS6_S4_SB_NS6_14EqualsComparerINSA_17ArrayClassCompareEEENS0_9allocatorIS8_EEE9SelectKeyESF_SH_E9copy_fromERKSK_j
Ixi:_GUIUtility_IsExitGUIException_m3644066650
ZU:__ZN11UnityEngine15CloudWebService14DataDispatcher4StopEv
j6c:_ColorBlock_GetHashCode_m4264192507
wDd:_Int16_System_IConvertible_ToUInt64_m134975563
Iia:__ZNSt3__26vectorIN9ShaderLab20SerializedSubProgram12UAVParameterENS_9allocatorIS3_EEE8__appendEj
Qmc:__ZN5IMGUI9GUIWindow5OnGUIER8GUIState
Jof:_Single_System_IConvertible_ToDecimal_m325860800_AdjustorThunk
jPf:_Array_InternalArray__ICollection_CopyTo_TisSingle_t1397266774_m455540885_gshared
SMa:__ZN17ScriptingGCHandle7AcquireE18ScriptingObjectPtr25ScriptingGCHandleWeakness
YLg:__Z74RuntimeInvoker_RuntimeObject_RuntimeObject_Int64_t3736567304_RuntimeObjectPFvvEPK10MethodInfoPvPS4_
dPc:__ZN2UI14CanvasRenderer14AttachToCanvasER8JobFencePNS_6CanvasENS0_15InstructionTypeE
wAj:dynCall_iifiii
lya:__Z21HasAlphaTextureFormat13TextureFormat
TO:__ZN12AudioManager6UpdateEv
eya:__ZN14ImageReference9BlitImageERKS_NS_8BlitModeE
Vs:__ZN8Animator12AddToManagerEv
Oef:_X509Chain__ctor_m2674663382
s9h:_ReadOnlyCollection_1_System_Collections_Generic_IListU3CTU3E_Insert_m1121807192_gshared
OEb:__ZN23CachedSerializationDataD2Ev
UWb:__ZNK25CameraStackRenderingState31CalculateStereoCameraTargetTypeEv
WXa:__ZN14RenderSettings23VirtualRedirectTransferER14SafeBinaryRead
Ire:_InternalEnumerator_1_get_Current_m114240259_gshared
Khj:__ZN6il2cpp2os10ThreadImpl15CurrentThreadIdEv
IQf:_Array_InternalArray__Insert_TisVector2_t2156229523_m2148694950_gshared
$kf:_SymmetricAlgorithm_get_Key_m3241860519
eSe:_U3CMouseDragOutsideRectU3Ec__Iterator1_Reset_m2233410497
wPe:_InputField_set_customCaretColor_m720445789
NGc:_UNITY_tt_face_load_fpgm
XQa:__Z17IsObjectAvailablei
ecb:__ZN12InputManagerD0Ev
Oah:_Queue_1_Peek_m1713833142_gshared
C9f:_ExecutionContext_Capture_m681135907
xke:_InternalEnumerator_1_System_Collections_IEnumerator_get_Current_m2889979481_AdjustorThunk
wxj:_posix_memalign
Y3e:_ASN1_GetBytes_m3305539297
i_:__ZNK15MonoScriptCache7ReleaseEv
QLi:__ZN6il2cpp2vm5Class13HasReferencesEP11Il2CppClass
bg:_glBindTexture
Mvj:_snprintf
GSg:__Z50RuntimeInvoker_RuntimeObject_Resources_t1597885468PFvvEPK10MethodInfoPvPS4_
MFj:_emscripten_glVertexAttrib1fv__wrapper
vib:__Z36scripting_liveness_calculation_begin17ScriptingClassPtriPFvPP12Il2CppObjectiPvES3_PFvvES7_
VAi:_AudioExtensionManager_RemoveExtensionFromManager_m442924172
kEj:_emscripten_glGetProgramInfoLog__wrapper
SD:__ZN25AnimatedPropertyEvaluator29BindCurveToScriptingObjectPtrERKN13AnimationClip10FloatCurveEj18ScriptingObjectPtrb
f0:__ZN17PersistentManager23DestroyFromFileInternalEi
Xlg:_Display__ctor_m501911701
a6h:_ReadOnlyCollection_1_System_Collections_Generic_IListU3CTU3E_Insert_m1020890112_gshared
u7c:_DefaultControls_SetDefaultTextValues_m1943359795
dQb:__Z19SetupMotionMatricesR6CameraR18RPDataMotionVector
vKi:__ZL7log2_64y
NC:__ZN26AnimatorControllerPlayable18PrepareForPlaybackERN7mecanim6memory9AllocatorE
jD:__ZN8Animator11AnimatorJob11AddPlayableEP17AnimationPlayablef
rbd:_GridLayoutGroup_get_cellSize_m2967185053
itf:_CurrentSystemTimeZone_GetUtcOffset_m340358963
Yli:_PKCS12_Decrypt_m1280162536
Gke:_InternalEnumerator_1_get_Current_m3081223448_gshared
pvi:_Event_get_isMouse_m1058251071
EWa:__ZN10VertexDataC2ERKS_17ShaderChannelMask10MemLabelId
Ovd:_CaseInsensitiveHashCodeProvider_AreEqual_m1790260777
uBc:_otv_JSTF_validate
I4:__ZN22CreateGpuProgramOutputC2Ev
gng:_PersistentCallGroup_Initialize_m4253175514
Dpd:_Boolean_System_IConvertible_ToChar_m4279513009_AdjustorThunk
Nwd:_Hashtable__ctor_m1763145853
oJe:_LogicalCallContext__ctor_m1263247987
LEd:_NumberFormatter_ScaleOrder_m3813786990
d6e:_PrivateKeyInfo_DecodeDSA_m771724585
B_i:__ZNK15dense_hashtableINSt3__24pairIK10KeyWrapperINS1_IPK10MethodInfoP11Il2CppClassEEEjEES9_17ReflectionMapHashIS8_EN14dense_hash_mapIS9_jSD_NS9_14EqualsComparerINS0_8equal_toIS8_EEEENS0_9allocatorISB_EEE9SelectKeyESI_SK_E23find_position_with_hashERSA_j
P6b:__ZN8GUILayer12CleanupClassEv
xfg:_UInt32_System_IConvertible_ToSByte_m1061556466
dGe:_WellKnownClientTypeEntry__ctor_m2471908952
PLi:__ZN6il2cpp2vm5Class4InitEP11Il2CppClass
ga:invoke_vidi
w$a:__ZN8Material17MainThreadCleanupEv
hEe:_RemotingServices_CreateClientProxyForContextBound_m783705199
cbc:__ZNK15GUIEventManager15GetEventAtIndexEi
uPc:__ZN2UI14CanvasRenderer17SyncDirtyElementsER8JobFence
Qwe:_Enumerator_System_Collections_IEnumerator_get_Current_m3816090481_gshared
Okj:__ZN6il2cpp5utils11StringUtils15StringDuplicateEPKc
KVf:_DefaultComparer_Equals_m2480133610_gshared
Z3:__ZNK9ShaderLab21ShaderRasterStateDesc16ToGfxRasterStateEPK19ShaderPropertySheetS3_R14GfxRasterState
F0h:_Array_Sort_TisVector3_t3722313464_m1915176437_gshared
Ttj:__ZN6il2cpp2os9EventImplC2Ebb
r4g:_List_1_get_Item_m2113769949_gshared
bUa:__ZN12FlareManager12RemoveCameraER6Camera
Y4:__Z20IsMatrixBuiltinParamPKcPi
smf:_String_memcpy4_m979367827
G7f:_UnicodeEncoding_GetBytesInternal_m1902824297
C5b:__ZN8Renderer19PostInitializeClassEv
MLf:_Array_FindIndex_TisRuntimeObject_m2504082708_gshared
Pni:_X509Chain_FindCertificateRoot_m1937726457
gqj:__ZN6il2cpp6icalls8mscorlib6System8Delegate23CreateDelegate_internalEP20Il2CppReflectionTypeP12Il2CppObjectP22Il2CppReflectionMethodb
Rxe:_Enumerator_System_Collections_IEnumerator_get_Current_m921113401_AdjustorThunk
ZVb:__ZNK13RendererScene22GetStaticBoundingBoxesEv
gEb:__ZN18DelayedCallManager18CancelCallDelayed2E4PPtrI6ObjectEPF15CallObjectStatePS1_PvES7_
Wpg:_Matrix4x4_GetHashCode_m4034747639
HKa:__ZN25ThreadsafeLinearAllocator10ReallocateEPvji
hob:__Z18Transfer_BlittableI14SafeBinaryReadLb1E11QuaternionfEvRK29SerializationCommandArgumentsR31RuntimeSerializationCommandInfo
Fga:__ZN18SpriteAtlasManagerD0Ev
aab:__ZN10Matrix4x4f8TransferI14SafeBinaryReadEEvRT_
Jfd:_CryptographicUnexpectedOperationException__ctor_m2381988196
S1i:__ZN14dense_hash_mapI10KeyWrapperIPK22Il2CppGenericParameterEPK24MonoGenericParameterInfoN6il2cpp5utils11PointerHashIS2_EENS4_14EqualsComparerINSt3__28equal_toIS3_EEEENSD_9allocatorINSD_4pairIKS4_S7_EEEEE15set_deleted_keyERSJ_
HC:__ZN14AvatarPlayback8StopTimeEv
jne:_InternalEnumerator_1_System_Collections_IEnumerator_get_Current_m4213507601_gshared
iba:__Z6AppendRKN4core12basic_stringIcNS_20StringStorageDefaultIcEEEEPKc
Bxi:_GUIUtility_RemoveCapture_m1294193818
fua:__ZN7ApiGLES18ClearBufferSubDataEjN2gl12BufferTargetEll
ifc:__Z37Camera_Get_Custom_PropAllCamerasCountv
x8a:__ZN14Texture2DArray8TransferI18StreamedBinaryReadILb0EEEEvRT_
eUb:__Z18ApplyOcclusionMaskR19ProbeOcclusionCacheRK17LightProbeContextRK10RenderNodeb
oIc:_Split_Cubic
cb:invoke_fiiii
DRe:_InputField_OnSubmit_m3583210804
_ti:_Uri_CheckHostName_m2213216182
JFj:_emscripten_glBindRenderbuffer__wrapper
i2h:_Mesh_SetUvsImpl_TisVector2_t2156229523_m3009194955_gshared
nhg:_ValueType_InternalEquals_m1384040357
H0h:_Array_Sort_TisVector4_t3319028937_TisVector4_t3319028937_m4254533673_gshared
Ztd:_ArrayListWrapper_Contains_m2641184447
aIc:_ft_black_render
fJg:__Z177RuntimeInvoker_Int32_t2950945753_RuntimeObject_Int32_t2950945753_Int32_t2950945753_RuntimeObject_Int32_t2950945753_EncoderFallbackBufferU26_t2343550713_CharU5BU5DU26_t3299466565PFvvEPK10MethodInfoPvPS4_
GBj:dynCall_viiifi
PCa:__ZN18GfxFramebufferGLES20ActiveContextChangedEPP17RenderSurfaceBaseS2_
GCa:__Z19PluginsRenderMarkeri
zE:__ZN10HumanTrait18InitializeBoneNameEv
Pia:__ZNSt3__26vectorIN9ShaderLab20SerializedSubProgram15StructParameterENS_9allocatorIS3_EEE6assignINS_11__wrap_iterIPS3_EEEENS_9enable_ifIXaasr21__is_forward_iteratorIT_EE5valuesr16is_constructibleIS3_NS_15iterator_traitsISC_E9referenceEEE5valueEvE4typeESC_SC_
hdj:__ZNSt3__214__split_bufferIN6il2cpp2vm5Image20EmbeddedResourceDataERNS_9allocatorIS4_EEEC2EjjS7_
aH:__ZN12AudioManager17RemoveAudioSourceEP11AudioSource
Ydf:_X509Certificate2Collection_Add_m3151757943
tve:_Comparer_1__cctor_m951016718_gshared
Svd:_CaseInsensitiveHashCodeProvider_get_DefaultInvariant_m4264275163
xJg:__Z195RuntimeInvoker_Int32_t2950945753_RuntimeObject_Int32_t2950945753_Int32_t2950945753_Int32_t2950945753_RuntimeObject_DecoderFallbackBufferU26_t3866396827_ByteU5BU5DU26_t4057885439_SByte_t1669577662PFvvEPK10MethodInfoPvPS4_
JQ:__ZN5physx14PxLightCpuTask12addReferenceEv
mWa:__ZNK15InstancingProps35FillInstanceBufferDispatchConstantsIN10Instancing14RenderLoopArgsEEEvPPvjjRK19ShaderPropertySheetRKT_
zWg:__Z86RuntimeInvoker_Int32_t2950945753_Color32_t2600501292_Color32_t2600501292_RuntimeObjectPFvvEPK10MethodInfoPvPS4_
$4a:__ZN21EnlightenSceneMapping8TransferI19StreamedBinaryWriteILb0EEEEvRT_
Wej:__ZN6il2cpp2gc16GarbageCollector19InitializeFinalizerEv
Iy:__ZN7mecanim8skeleton18CreateSkeletonMaskEjPKNS0_19SkeletonMaskElementERNS_6memory9AllocatorE
vmc:__ZN10GUIManager10DoGUIEventER10InputEventb
$tb:__Z35Transfer_Blittable_FixedBufferFieldI24GenerateTypeTreeTransferxEvRK29SerializationCommandArgumentsR31RuntimeSerializationCommandInfo
iCc:_otv_LangSys_validate
Oug:_RectOffset_get_right_m2294081512
XQf:_Array_InternalArray__set_Item_TisLink_t544317964_m1234244240_gshared
TGc:_UNITY_TT_Init_Glyph_Loading
ePb:__Z20CalculateSqrDistanceRK8Vector3fRK4AABB
odd:_SerializationInfo_GetBoolean_m1756153320
zL:__Z32AudioMixerDuckingProcessCallbackP21UnityAudioEffectStatePfS1_jii
zqg:_Mesh_get_uv2_m3615020997
G4b:__ZN26CustomRenderTextureManagerD2Ev
khc:__Z32Input_Get_Custom_PropInputStringv
KWf:_EqualityComparer_1_System_Collections_IEqualityComparer_Equals_m4172006498_gshared
UH:__ZN12AudioManager8TransferI24GenerateTypeTreeTransferEEvRT_
Ipg:_Mathf_Round_m4098141538
jxa:__Z25GetBytesFromTextureFormat13TextureFormat
x8i:__ZN6il2cpp6icalls8mscorlib6System9Threading6Thread20Thread_free_internalEP12Il2CppThreadi
Jzj:dynCall_iiffi
R8e:__KeysEnumerator_get_Current_m2996478063
LD:__ZN16MecanimAnimation25RegisterIAnimationBindingEPKN5Unity4TypeEiP17IAnimationBinding
X$:__Z32scripting_class_get_assemblyname17ScriptingClassPtr
oTc:__ZN11UnityEngine15PlatformWrapper15GetVRDeviceNameEv
sSg:__Z99RuntimeInvoker_Boolean_t97287965_Int32_t2950945753_PointerEventDataU26_t867828220_SByte_t1669577662PFvvEPK10MethodInfoPvPS4_
Rle:_InternalEnumerator_1_get_Current_m2128158355_AdjustorThunk
JIa:__ZN9GfxDevice21RegisterNativeTextureE9TextureIDi16TextureDimension
cad:_GraphicRegistry__ctor_m1851575309
wrj:__ZN6il2cpp6icalls8mscorlib6System10Reflection4Emit11TypeBuilder20create_generic_classEP27Il2CppReflectionTypeBuilder
Ojf:_SHA1Internal_FillBuff_m3615718415
zJf:_PlayableHandle_IsPlayableOfType_TisAnimationLayerMixerPlayable_t3631223897_m201603007_gshared
mQ:__Z60Register_UnityEngine_AudioListener_GetNumExtensionPropertiesv
Wi:_emscripten_glUniformMatrix4fv
H5i:__ZN15dense_hashtableINSt3__24pairIK10KeyWrapperINS1_IP11Il2CppClassjEEES4_EES6_N6il2cpp8metadata14ArrayClassHashEN14dense_hash_mapIS6_S4_SB_NS6_14EqualsComparerINSA_17ArrayClassCompareEEENS0_9allocatorIS8_EEE9SelectKeyESF_SH_E13set_empty_keyERKS8_
ajb:__ZN12ScriptMapperD2Ev
wJj:b100
Cqg:_Mesh_get_colors32_m1253190811
xnj:_GC_stopped_mark
dig:_AnimationCurve_Finalize_m2397002729
H$e:_Text_OnEnable_m616205807
C0g:__Z50RuntimeInvoker_RuntimeObject_ColorTween_t809614380PFvvEPK10MethodInfoPvPS4_
wOe:_SerializationCallbacks__cctor_m1674315180
yjc:__Z52Register_UnityEngine_RenderTexture_Internal_GetWidthv
roj:_GC_check_leaked
Pla:__ZN9ShaderLab20SerializedSubProgram16TextureParameter8TransferI19StreamedBinaryWriteILb0EEEEvRT_
kKa:__ZNK7Hash12812PackToUInt32Ev
_ud:_SynchronizedArrayListWrapper_IndexOf_m3642674350
K1:__ZNSt3__227__insertion_sort_incompleteIRNS_6__lessI14ObjectLoadDataS2_EEPS2_EEbT0_S6_T_
fV:__ZN11UnityEngine15CloudWebService16SessionContainer8AddEventEPNS0_14CloudEventInfoE
yHa:__Z4TrimRKN4core12basic_stringIcNS_20StringStorageDefaultIcEEEES5_
B1h:_Dictionary_2_Do_ICollectionCopyTo_TisKeyValuePair_2_t3842366416_m1399105608_gshared
idf:_X509Certificate2_Import_m4026562329
SGj:_glGetStringi__wrapper
X6a:__ZN10VertexData8TransferI14SafeBinaryReadEEvRT_
iJ:__ZN4FMOD8ChannelI8setDelayE14FMOD_DELAYTYPEjj
lpj:_GC_malloc_atomic
B5d:_ActivatedClientTypeEntry_ToString_m2494181680
H_f:_HashSet_1_GetEnumerator_m3346268098_gshared
Vrj:__ZN6il2cpp5utils6Memory13AlignedMallocEjj
JRe:_Selectable_get_animator_m2899312855
_Y:__ZL20SortItemByInstanceIDRKN18AwakeFromLoadQueue4ItemES2_
mzg:_Vector2_op_Multiply_m2347887432
h9e:_TypeConverterAttribute__ctor_m1774069684
Ty:__ZNK34AnimationStateMachineMixerPlayable26GetInterruptedPosePlayableEv
fWc:__ZN20UnityConnectSettings8TransferI24GenerateTypeTreeTransferEEvRT_
UA:__ZN34BlobWriteTransferSTLStyleArrayImplI22OffsetPtrArrayTransferIbEEclERS1_17TransferMetaFlagsR9BlobWrite
rkd:_Byte_ToString_m4063101981
fQd:_MonoType_GetConstructors_m2574682189
T9e:_ServicePointManager_FindServicePoint_m4119451290
Oca:__ZL31InitializeRendererUpdateManagerPv
kVd:_ParameterInfo__ctor_m2779026345
DPe:_InputField_set_onValueChange_m1251390545
fQc:__ZN2UI13CanvasManager14GetRenderOrderEPKNS_6CanvasE
zRd:_NumberFormatter_get_IsZeroInteger_m2263284741
jki:_X509Certificate_PEM_m2020851166
VPf:_Array_InternalArray__Insert_TisDateTime_t3738529785_m2308632330_gshared
Lif:_RNGCryptoServiceProvider_RngGetBytes_m1695806698
nee:_TlsServerCertificateRequest_ProcessAsTls1_m3214041063
ECc:_compare_uni_maps
$Tc:__ZN11UnityEngine15PlatformWrapper27GetGraphicsCapsSupportFlagsEv
Cxb:__ZN12NativeBufferI16Converter_StringE15SetupForWritingER9ArrayInfo
Yfa:__ZN13RuntimeStaticI18AssetBundleManagerLb1EE16StaticInitializeEPv
nDj:___cxa_end_catch__wrapper
Osd:_Char_ToString_m278452217
nBg:__Z32RuntimeInvoker_Boolean_t97287965PFvvEPK10MethodInfoPvPS4_
I6d:_BigInteger_op_RightShift_m460065452
REb:__ZN13MonoBehaviour22DoScriptRebuildWarningEv
kfc:__Z38Camera_CUSTOM_INTERNAL_CALL_RaycastTryP12Il2CppObjectRK3Rayfi
BMc:__Z38TextGenerator_Get_Custom_PropLineCountP12Il2CppObject
Rji:_InternalAsyncResult_SetComplete_m963842420
$5f:_Encoding_GetEncoding_m2801244948
xnc:__ZN11IMGUIModule25GetGUIStyleScriptingClassEv
gFc:_tt_get_interface
dhe:_SslStreamBase_EndRead_m495357226
i8i:__ZN6il2cpp5utils9PathUtils7CombineIcEENSt3__212basic_stringIT_NS3_11char_traitsIS5_EENS3_9allocatorIS5_EEEERKSA_SC_
ftc:__ZN9JSONWrite8TransferI13dynamic_arrayIiLj4EEEEvRT_PKc17TransferMetaFlags
QLg:__Z64RuntimeInvoker_RuntimeObject_SByte_t1669577662_SByte_t1669577662PFvvEPK10MethodInfoPvPS4_
P8b:__ZN13PlayableGraph21InvalidateMultithreadEv
v0f:_Enumerator_System_Collections_IEnumerator_get_Current_m713684915_AdjustorThunk
gZf:_GenericComparer_1_Compare_m459680062_gshared
PWd:_EnumBuilder_GetConstructorImpl_m3068576149
I_:__Z18ConvertUTF16toUTF8PPKtS0_PPhS2_15ConversionFlags
ejj:__ZN6il2cpp2os20PathErrnoToErrorCodeERKNSt3__212basic_stringIcNS1_11char_traitsIcEENS1_9allocatorIcEEEEi
TVh:__ZL68InputField_t3762917431_CustomAttributesCacheGenerator_m_KeyboardTypeP21CustomAttributesCache
iKi:__ZL16my_g_bit_nth_msfj
aCh:__ZL65NonSerializedAttribute_t2945079482_CustomAttributesCacheGeneratorP21CustomAttributesCache
jah:_Enumerator_MoveNext_m3662315381_AdjustorThunk
Xde:_TlsClientFinished_ProcessAsTls1_m2429863130
qNb:__Z23SetupStereoFlareElementP11FlareVertexRK8Vector2fS3_S3_RK11ColorRGBA32RK10Matrix4x4fRK8Vector3fb
sa:invoke_iiiifiiii
JPe:_InputField_EnforceContentType_m2436948794
rrf:_String_Join_m2050845953
Nye:_ShimEnumerator_MoveNext_m2406150314_gshared
IDa:__ZL19BlitFramebufferImplRN4gles23BlitFramebufferDrawQuadER9GfxDevice9TextureIDRK8Vector4f
LZi:__ZN15dense_hashtableINSt3__24pairIK10KeyWrapperIPK10Il2CppTypeEjEES6_N6il2cpp8metadata14Il2CppTypeHashEN14dense_hash_mapIS6_jSB_NS6_14EqualsComparerINSA_26Il2CppTypeEqualityComparerEEENS0_9allocatorIS8_EEE9SelectKeyESF_SH_E4findERS7_
tAj:dynCall_viiiiiiiiiiiiii
xGc:_UNITY_FT_List_Add
e5b:__ZN14Texture2DArray11InitTextureEiii13TextureFormatb
ili:_X509Extension__ctor_m1474351312
Wfi:_InvokableCall_1_Invoke_m1524307439_gshared
wId:_Directory_CreateDirectoriesInternal_m3735342319
TTe:_LayoutUtility_GetLayoutProperty_m3731360667
H2i:__ZN15dense_hashtableINSt3__24pairIK10KeyWrapperINS1_IPK11Il2CppImageP11Il2CppClassEEEjEES9_17ReflectionMapHashIS8_EN14dense_hash_mapIS9_jSD_NS9_14EqualsComparerINS0_8equal_toIS8_EEEENS0_9allocatorISB_EEE9SelectKeyESI_SK_E14squash_deletedEv
Qkf:_SHAConstants__cctor_m1699027474
aY:__ZNK6Camera26GetStereoSingleCullEnabledEv
Ufb:__Z14resize_trimmedINSt3__26vectorIN4core12basic_stringIcNS2_20StringStorageDefaultIcEEEE13stl_allocatorIS6_L18MemLabelIdentifier13ELi16EEEEEvRT_j
Rob:__Z18Transfer_BlittableI14SafeBinaryReadLb0EaEvRK29SerializationCommandArgumentsR31RuntimeSerializationCommandInfo
Ssd:_CharEnumerator_System_Collections_IEnumerator_get_Current_m1328529384
zCj:_emscripten_glFrustum__wrapper
tJi:_AnimationLayerMixerPlayable__ctor_m860721801
bHc:_UNITY_FT_List_Iterate
lsd:_Char_System_IConvertible_ToUInt64_m3536560782
$Vf:_EqualityComparer_1__cctor_m3452395357_gshared
gIc:_Render_Single_Pass
XLb:__Z20SyncFenceCullResultsR11CullResults
kGa:__ZN15TextureTFMethod20IsBoneCountSupportedEi
tBf:_Double_ToString_m3828879243_AdjustorThunk
ktb:__Z22TransferField_NonArrayI17RemapPPtrTransfer27Converter_SimpleNativeClassI8GUIStyleEEvRK23StaticTransferFieldInfoR31RuntimeSerializationCommandInfoRT0_
FNd:_TextReader_Synchronized_m3004980758
T0b:__ZNK17AnimationCurveTplIfE20EvaluateWithoutCacheEfRf
BQg:__Z67RuntimeInvoker_Boolean_t97287965_Rect_t2360479859_SByte_t1669577662PFvvEPK10MethodInfoPvPS4_
mYa:__ZN19ShaderPropertySheet10SetTextureERK23FastTexturePropertyNameP7Texture
iUd:_CustomAttributeData__ctor_m2966233049
l5c:_CanvasUpdateRegistry_PerformUpdate_m1793997159
lde:_Context_set_ClientWriteIV_m3405909624
Fac:__ZN4Mesh10SetNormalsEPK8Vector3fj
xyi:_AesManaged_CreateDecryptor_m692040246
Fkj:__ZNSt3__212basic_stringIDsNS_11char_traitsIDsEENS_9allocatorIDsEEE9__grow_byEjjjjjj
ns:__ZN17AnimationCurveTplIfE8TransferI14SafeBinaryReadEEvRT_
bRf:_Array_InternalArray__set_Item_TisInt16_t2552820387_m2544074754_gshared
Gmd:_ArithmeticException__ctor_m3551809662
XId:_MonoIO_ExistsDirectory_m2182482658
B_b:__Z29StdTemplateConversionFunctionIybEbPvR14SafeBinaryRead
w5a:__ZNSt3__26vectorIN15QualitySettings14QualitySettingENS_9allocatorIS2_EEE6assignIPS2_EENS_9enable_ifIXaasr21__is_forward_iteratorIT_EE5valuesr16is_constructibleIS2_NS_15iterator_traitsIS9_E9referenceEEE5valueEvE4typeES9_S9_
f:HEAPU32
Z2f:_List_1_CheckCollection_m1671972112_gshared
wbe:_CipherSuiteFactory_GetSsl3SupportedCiphers_m3757358569
S7f:_UnicodeEncoding_GetPreamble_m3002287178
yAi:_AudioSource_get_spatialize_m3609701298
eQg:__Z52RuntimeInvoker_Color_t2555686324_Color32_t2600501292PFvvEPK10MethodInfoPvPS4_
mna:__ZN20GpuProgramParameters14AddVectorParamEPKcii15ShaderParamTypeiiiP16PropertyNamesSet
WXc:__ZNK12HeaderHelper3GetERKN4core12basic_stringIcNS0_20StringStorageDefaultIcEEEE
ucb:__ZN9InputAxis8TransferI14SafeBinaryReadEEvRT_
tZ:__ZNK21ExecutionOrderManager30GetCustomAwakeFromLoadQueueForEPKN5Unity4TypeE
pXc:__Z27RegisterModule_UnityConnectv
oLd:_MemoryStream_Expand_m3554752073
c1i:__ZN6il2cpp2vm10Reflection27GetCustomAttributesCacheForEP25Il2CppReflectionParameter
qwg:_ScriptableObject_CreateInstance_m2611081756
HMe:_ObjectRecord_get_IsInstanceReady_m2304516395
Hre:_InternalEnumerator_1_System_Collections_IEnumerator_get_Current_m1635397542_gshared
VLd:_Path__cctor_m3273994011
Iyj:__ZNSt11logic_errorD2Ev
auf:_DateTimeUtils_CountRepeat_m3396693018
Thg:_WeakReference_get_Target_m168713953
CK:__ZN10ObjectPoolIN4FMOD12ChannelGroupENS0_13ChannelGroupIEE7SetSizeEi
iyi:_SymmetricTransform_FinalDecrypt_m764004682
Qhj:__ZN6il2cpp2os10ThreadImpl33UnregisterCurrentThreadForCleanupEv
Uqi:_Parser_ParseGroupingConstruct_m263270497
N2i:__ZN14dense_hash_mapI10KeyWrapperINSt3__24pairIPK9EventInfoP11Il2CppClassEEEj17ReflectionMapHashIS8_ENS9_14EqualsComparerINS1_8equal_toIS8_EEEENS1_9allocatorINS2_IKS9_jEEEEE15set_deleted_keyERSH_
Zw:__ZN27AnimationLayerMixerPlayable22PrepareAnimationEventsEfR13dynamic_arrayI22AnimationClipEventInfoLj4EE
Bqb:__Z14resize_trimmedINSt3__26vectorI17AnimationCurveTplIfE13stl_allocatorIS3_L18MemLabelIdentifier1ELi16EEEEEvRT_j
SWb:__ZN25CameraStackRenderingState19SetupLastEyeCamerasERK11CameraStack
HPa:__Z12GUIDToStringRK9UnityGUID
Jfe:_RSASslSignatureDeformatter_SetKey_m2204705853
zG:__ZN11SoundHandleC2ERKS_
it:__ZN17AnimationPlayableC2E18DirectorPlayerType
LOe:_InputField_set_shouldHideMobileInput_m1650743574
_Qi:__ZNK6il2cpp5utils11collections13ArrayValueMapIPK10Il2CppType17Il2CppInteropData26InteropDataToTypeConverterNS_8metadata14Il2CppTypeLessENS8_26Il2CppTypeEqualityComparerEE10find_firstERKS5_
SJd:_FileStream_get_CanSeek_m331583577
Mgd:_DSAParameters_t1885824122_marshal_pinvoke_back
xz:__ZN8Animator22OnGraphTopologyChangedEP8Playablei
s3e:_Kernel_MultiplyByDword_m1266935086
tBd:_Convert_ToInt64_m3916071102
AYb:__ZN6Camera25StandaloneRenderToCubemapEP7TextureiPFvPK9SceneNodePK4AABBR9IndexListPvESA_j
nqf:_String_Trim_m3384720403
_Xa:__ZN14RenderSettings18TransferDeprecatedI14SafeBinaryReadEEvRT_
EJg:__Z93RuntimeInvoker_Single_t1397266774_SingleU26_t1922108698_Single_t1397266774_Single_t1397266774PFvvEPK10MethodInfoPvPS4_
_ui:_Event__ctor_m526447123
NMg:__Z88RuntimeInvoker_RuntimeObject_RuntimeObject_RuntimeObject_RuntimeObject_Int32_t2950945753PFvvEPK10MethodInfoPvPS4_
Ndg:_Type_ToString_m3975981286
lZ:__ZN12TLSAllocatorI14StackAllocatorE8AllocateEji
m$:__ZN16ScriptingManager18GetMonoScriptCacheEi
gri:_ExpressionAssertion__ctor_m2554412824
Yob:__Z18Transfer_BlittableI14SafeBinaryReadLb1EyEvRK29SerializationCommandArgumentsR31RuntimeSerializationCommandInfo
kRd:_NullReferenceException__ctor_m3076065613
bqc:__ZN8JSONRead8TransferIfEEvRT_PKc17TransferMetaFlagsb
Wbf:_X509SubjectKeyIdentifierExtension_Decode_m1505409124
Xma:__ZL23AddGpuProgramParametersR20GpuProgramParametersRKNSt3__26vectorIN9ShaderLab20SerializedSubProgram15MatrixParameterENS1_9allocatorIS5_EEEERKNS2_INS4_15VectorParameterENS6_ISB_EEEEiiP16PropertyNamesSet
AAa:__ZN6prcoreL17RemapGenericFloatI18TexFormatARGBFloat17TexFormatRGBAHalfEEvPKNS_9InnerInfoE
Spf:_String_System_IConvertible_ToUInt16_m2888090399
jM:__ZN11AudioSource21ApplyCachedParametersE12SoundChannel
$Sd:_Assembly_InternalGetType_m3065345470
fR:__ZN13Simd4iFactoryIN6detail9FourTupleEEC2Eiiii
V3d:_ResourceSet__ctor_m3356376607
R6d:_PrimeGeneratorBase_get_PrimalityTest_m2487240563
Hth:__ZL56_ParameterInfo_t489405856_CustomAttributesCacheGeneratorP21CustomAttributesCache
B4a:__ZN15SerializeTraitsI33EnlightenTerrainChunksInformationE8TransferI14SafeBinaryReadEEvRS0_RT_
S5b:__ZNK32RendererMaterialAnimationBinding9BindValueER6ObjectRKN11UnityEngine9Animation14GenericBindingERNS3_10BoundCurveE
Sze:_Transform_1_Invoke_m1731820209_gshared
VYa:__Z13GetIAnimationv
Jya:__ZL18stbir__support_onef
jpf:_Single_CompareTo_m189772128
Orc:__Z26Transfer_UnityEngineObjectI9JSONWriteLb0EEvRK29SerializationCommandArgumentsR31RuntimeSerializationCommandInfo
Tte:_DefaultComparer_Compare_m4042058291_gshared
_bd:_Image_set_overrideSprite_m3213596394
h0a:__ZNSt3__26vectorIN4core12basic_stringIcNS1_20StringStorageDefaultIcEEEE13stl_allocatorIS5_L18MemLabelIdentifier1ELi16EEE6assignINS_11__wrap_iterIPS5_EEEENS_9enable_ifIXaasr21__is_forward_iteratorIT_EE5valuesr16is_constructibleIS5_NS_15iterator_traitsISF_E9referenceEEE5valueEvE4typeESF_SF_
COc:__ZNSt3__27__sort5IRNS_6__lessIN2UI14DepthSortEntryES3_EEPS3_EEjT0_S7_S7_S7_S7_T_
DJd:_FileLoadException_ToString_m2989457882
QAi:_AudioListener_ClearExtensionProperties_m3849891634
Wxc:_UNITY_FT_DivFix
L2h:_Array_InternalArray__get_Item_TisDecimal_t2948259380_m3511003792_gshared
Emf:_SecurityElement_IsValidAttributeValue_m948345692
Pwc:__ZN19ControllerHitReport15onControllerHitERKN5physx16PxControllersHitE
Ba:invoke_vdd
yn:FUNCTION_TABLE_fiii
QNd:_TextWriter_Write_m2252948084
e8b:__Z19RegisterModule_Corev
fMc:__ZZ29InitializeTextRenderingModulevEN27cleanupAfterLoadRegistrator7ForwardEv
ckb:__ZNSt3__26__sortIRPFbRK23TransformAccessReadOnlyS3_EPS1_EEvT0_S8_T_
kDf:_CCFixed_FromDateTime_m3894190577
FWb:__Z29PluginsIssueRenderingExtEvent26UnityRenderingExtEventTypePv
DEg:__Z116RuntimeInvoker_RuntimeObject_RuntimeObject_Int32_t2950945753_RuntimeObject_RuntimeObject_RuntimeObject_RuntimeObjectPFvvEPK10MethodInfoPvPS4_
jNe:_MessageFormatter_ReadMethodCall_m2327590823
T4b:__Z14RandomRotationP9Texture2DPhiiii
hOf:_Array_InternalArray__ICollection_Add_TisUInt16_t2177724958_m3981262878_gshared
hyf:_Decimal_GetBits_m453754410
E_f:_HashSet_1_Contains_m3173358704_gshared
Pyi:_ToggleEvent__ctor_m834619998
O8d:_PKCS1_Encode_v15_m2077073129
Mug:_RectOffset_get_left_m1232181034
KBa:__ZN4gles14UseGLSLProgramER15DeviceStateGLESjbij
CIj:_glDeleteProgram__wrapper
rfc:__Z50Register_UnityEngine_Camera_INTERNAL_get_pixelRectv
Sza:__ZN6prcoreL18BlitFloatToIntegerERK14ImageReferenceRS0_
exf:_DBNull_System_IConvertible_ToUInt32_m3784627971
oce:_ClientSessionCache_Add_m964342678
UFa:__ZN13dynamic_arrayI15ComputeShaderCBLj4EE6assignEPKS0_S3_
AU:__ZN11UnityEngine15CloudWebService14RestDownloader17OnCompleteContentEv
CYi:__ZN15dense_hashtableINSt3__24pairIK10KeyWrapperINS1_IPK14Il2CppAssemblyP11Il2CppClassEEEjEES9_17ReflectionMapHashIS8_EN14dense_hash_mapIS9_jSD_NS9_14EqualsComparerINS0_8equal_toIS8_EEEENS0_9allocatorISB_EEE9SelectKeyESI_SK_E15insert_noresizeERKSB_
pyg:_Transform_get_localScale_m129152068
Byf:_DivideByZeroException__ctor_m3496959969
Qa:invoke_viffi
dz:__ZN17AnimationPlayable28UpdateInternalStateRecursiveILi1ELb0EEEvPK35AnimationPlayableEvaluationConstant
ifj:__ZN6il2cpp2gcL10CleanupCCWEPvS1_
Ta:invoke_vifff
oHj:_glGetVertexAttribiv__wrapper
Ne:_emscripten_request_fullscreen
pei:_Predicate_1_Invoke_m851618236_gshared
LFb:__ZN20LocalFileSystemWebGL6DeleteER13FileEntryDatab
Pe:_emscripten_glDisableVertexAttribArray
XIf:_Array_InternalArray__ICollection_Remove_TisSingle_t1397266774_m3361324455_gshared
Um:FUNCTION_TABLE_iiiifiiii
Gga:__ZN4core8hash_mapINS_12basic_stringIcNS_20StringStorageDefaultIcEEEE13dynamic_arrayI4PPtrI6SpriteELj4EENS_4hashIS4_EENSt3__28equal_toIS4_EEE12delete_nodesEv
jc:invoke_fifffi
Ihh:_Collection_1_System_Collections_IList_Add_m2969482770_gshared
sJ:__ZN4FMOD5Sound15getNumSubSoundsEPi
ewa:__ZN4gles23ClearCurrentFramebufferEP7ApiGLESbbbRK10ColorRGBAffi
Ywe:_Enumerator_System_Collections_IDictionaryEnumerator_get_Entry_m3249874482_AdjustorThunk
uhi:_UnityEvent_1_Invoke_m3604335408_gshared
_e:_emscripten_glDeleteObjectARB
h$c:_EventSystem_RaycastComparer_m3685368675
Vf:_IMG_Load
xIg:__Z131RuntimeInvoker_Void_t1185182177_RuntimeObject_RuntimeObject_Int64_t3736567304_ObjectU26_t2146539884_SerializationInfoU26_t419328957PFvvEPK10MethodInfoPvPS4_
zjc:__Z53Register_UnityEngine_RenderTexture_Internal_GetHeightv
D7e:_PKCS12_RemoveCertificate_m1421555398
N_e:_Slider_FindSelectableOnLeft_m1667068522
TAa:__ZN6prcoreL17RemapGenericFloatI17TexFormatRGBAHalf18TexFormatARGBFloatEEvPKNS_9InnerInfoE
nnc:__Z14GetBuiltinSkini
XJe:_MethodDictionary_get_Item_m1201458851
H7:___cxx_global_var_init_18
il:_JS_SystemInfo_GetBrowserVersionString
Ejb:__ZN2UI13RectTransform23VirtualRedirectTransferER14SafeBinaryRead
MAe:_Enumerator_MoveNext_m3045873697_gshared
eka:__ZNSt3__26vectorIN9ShaderLab20SerializedSubProgramENS_9allocatorIS2_EEE6assignIPS2_EENS_9enable_ifIXaasr21__is_forward_iteratorIT_EE5valuesr16is_constructibleIS2_NS_15iterator_traitsIS9_E9referenceEEE5valueEvE4typeES9_S9_
_tc:__Z18Transfer_BlittableI8JSONReadLb0E8BitFieldEvRK29SerializationCommandArgumentsR31RuntimeSerializationCommandInfo
fmf:_SecurityPermission_set_Flags_m1503445204
y_f:_HashSet_1_CopyTo_m2849056227_gshared
Wyb:__ZL17Transfer_GUIStyleI18StreamedBinaryReadILb1EELb0EEvRK29SerializationCommandArgumentsR31RuntimeSerializationCommandInfo
a3e:_ModulusRing_Multiply_m343333088
Vha:__ZN9ShaderLab14SerializedPass8TransferI14SafeBinaryReadEEvRT_
foc:__Z71Register_UnityEngine_GUILayoutUtility_INTERNAL_CALL_Internal_MoveWindowv
XO:__ZN12AudioManager16SetListenerPauseEb
Rfb:__ZNSt3__26vectorIN30RuntimeInitializeOnLoadManager9ClassInfoE13stl_allocatorIS2_L18MemLabelIdentifier13ELi16EEE6assignINS_11__wrap_iterIPS2_EEEENS_9enable_ifIXaasr21__is_forward_iteratorIT_EE5valuesr16is_constructibleIS2_NS_15iterator_traitsISC_E9referenceEEE5valueEvE4typeESC_SC_
JJf:_SetPropertyUtility_SetStruct_TisSingle_t1397266774_m2805350785_gshared
F9i:__ZN6il2cpp2vm9Exception25RaiseOutOfMemoryExceptionERKNS_5utils10StringViewIDsEE
da:invoke_viiiiiiiiiii
yuj:___syscall_ret
$li:_DeriveBytes_set_Salt_m1400945044
q1c:_PointerEventData_set_worldNormal_m1888481930
Qri:_AnchorInfo__ctor_m46784903
Wae:_CipherSuiteCollection_get_Item_m4188309062
Ege:_SslHandshakeHash_HashFinal_m2573455475
THe:_SynchronizationAttribute_ReleaseLock_m1030353464
z7a:__ZN11ChannelInfo8TransferI19StreamedBinaryWriteILb0EEEEvRT_
Ikj:__ZN4utf88internal13validate_nextIPKcEENS0_9utf_errorERT_S5_Rj
aYh:__ZL53ToggleGroup_t123837990_CustomAttributesCacheGeneratorP21CustomAttributesCache
eOb:__ZN14qsort_internal13Partition3WayIP17RODataReplacementi19ROSorterReplacementEENSt3__24pairIT_S6_EES6_S6_T0_T1_
uRe:_InputField_CreateCursorVerts_m3585916868
zgc:__Z34Register_UnityEngine_Gradient_Initv
fHe:_Context_ToString_m1073616138
x6a:__ZN13ScreenManager23SetIsOrientationEnabledE18EnabledOrientationb
FOe:_InputField_EnforceTextHOverflow_m3400115777
ycb:__ZN9InputAxis8TransferI19StreamedBinaryWriteILb0EEEEvRT_
VDd:__Z33il2cpp_codegen_check_sub_overflowxx
sAj:dynCall_viififiii
sPe:_InputField_get_caretColor_m2973283772
c4h:_Resources_ConvertObjects_TisRuntimeObject_m1486780300_gshared
LAf:_Double_System_IConvertible_ToInt16_m3591921965_AdjustorThunk
Cci:_Comparison_1_Invoke_m2925518770_gshared
EQa:__ZN10GameObject23VirtualRedirectTransferER18StreamedBinaryReadILb0EE
Txi:_SymmetricTransform__ctor_m2693628991
eSd:_ObjectDisposedException__ctor_m1034312941
qg:_glFrontFace
Iug:_RectOffset__ctor_m3236153262
UUe:_MaskUtilities_IsDescendantOrSelf_m2247511982
aTb:__ZNSt3__26vectorI16ShadowCasterData13stl_allocatorIS1_L18MemLabelIdentifier2ELi16EEE21__push_back_slow_pathIKS1_EEvRT_
PMc:__Z51Register_UnityEngine_TextGenerator_GetLinesInternalv
iAe:_Enumerator_get_Current_m2250080680_AdjustorThunk
Eyi:_AesManaged_set_Key_m767972181
XCd:_Int16_System_IConvertible_ToBoolean_m1656400658_AdjustorThunk
Uqd:_Byte_System_IConvertible_ToInt64_m285584218
xta:__ZN13GfxDeviceGLES22SetScissorRectPlatformERK5RectTIiE
iAa:__ZN6prcoreL17RemapGenericFloatI17TexFormatRGBFloat18TexFormatRGBAFloatEEvPKNS_9InnerInfoE
BNf:_Array_InternalArray__ICollection_Add_TisDictionaryEntry_t3123975638_m665385049_gshared
bPd:_MissingMemberException__ctor_m2707802176
hXc:__ZN20UnityConnectSettings10InitializeEv
QHi:_Canvas_get_renderMode_m841659411
H4a:__ZN15SerializeTraitsI13dynamic_arrayI28EnlightenRendererInformationLj8EEE19ResizeSTLStyleArrayERS2_i
idd:_SerializationInfo_GetValue_m42271953
qG:__ZN9AudioClip11CreateSoundEv
$2i:__ZN14dense_hash_mapI10KeyWrapperINSt3__24pairIPK9FieldInfoP11Il2CppClassEEEj17ReflectionMapHashIS8_ENS9_14EqualsComparerINS1_8equal_toIS8_EEEENS1_9allocatorINS2_IKS9_jEEEEEC2EjRKSB_RKSF_
x_i:__ZNK15dense_hashtableINSt3__24pairIK10KeyWrapperINS1_IPK10MethodInfoP11Il2CppClassEEEjEES9_17ReflectionMapHashIS8_EN14dense_hash_mapIS9_jSD_NS9_14EqualsComparerINS0_8equal_toIS8_EEEENS0_9allocatorISB_EEE9SelectKeyESI_SK_E13find_positionERSA_
Esa:__ZN13GfxDeviceGLES20CreateComputeProgramEPKhj
CWc:__ZN11UnityEngine7Connect16PersistentValues13RestoreValuesER8JSONRead
OGf:_Guid_BaseToString_m3600006650
lOa:__ZN20ArchiveStorageReader31TryToReadDirectoryFromBlockDataEyPKvj
Lbj:__ZN6il2cpp2vmL11GetIdentityEP14Il2CppIUnknown
aoj:_GC_push_gc_structures
fee:_TlsServerCertificate_ProcessAsTls1_m819212276
l8h:_ReadOnlyCollection_1_System_Collections_Generic_ICollectionU3CTU3E_Clear_m2102011098_gshared
O1h:_Dictionary_2_Do_ICollectionCopyTo_TisRuntimeObject_m3942192587_gshared
aVi:__ZN6il2cpp6icalls8mscorlib6SystemL8IsPublicEPK9EventInfo
a7d:_PrimalityTests_RabinMillerTest_m2544317101
l6d:_Kernel_DwordDivMod_m1540317819
eah:_Enumerator_System_Collections_IEnumerator_get_Current_m1399273671_gshared
I_d:_TypeBuilder_GetPropertyImpl_m3104345782
T7a:__ZNSt3__213__stable_sortIRNS_4lessI4PPtrI11SpriteAtlasEEENS_11__wrap_iterIPS4_EEEEvT0_SA_T_NS_15iterator_traitsISA_E15difference_typeEPNSD_10value_typeEi
jHd:_Int64_ToString_m2085073918_AdjustorThunk
o$d:_FieldInfo_GetFieldOffset_m1356898082
MMf:_Array_InternalArray__IndexOf_TisTypeTag_t3541821701_m2988972362_gshared
Z8:__ZN8keywords6CreateEPKc
wKi:__ZL7log2_32j
S:Math_imul
Aee:_TlsServerKeyExchange_Update_m453798279
K5a:__ZN11PlayerPrefs6GetIntERKN4core12basic_stringIcNS0_20StringStorageDefaultIcEEEEi
bbe:_CipherSuiteCollection_System_Collections_IList_IndexOf_m1361500977
G$e:_Text_set_fontStyle_m648756124
xMc:__Z45TextGenerator_CUSTOM_INTERNAL_get_rectExtentsP12Il2CppObjectP5RectTIfE
utf:_DateTime__ctor_m2135476686_AdjustorThunk
JP:__ZN11AudioSource12SetAudioClipEP9AudioClip
wvg:_RectTransform_GetLocalCorners_m823861473
gvd:_SynchronizedArrayListWrapper_GetEnumerator_m1579424644
u_:__ZN18ScriptingArguments9AddObjectE18ScriptingObjectPtr
LQc:__Z39CanvasGroup_Get_Custom_PropInteractableP12Il2CppObject
ER:__ZN11UnityEngine15CloudWebService16SessionContainerD2Ev
MWc:__ZL38InitializeUnityConnectScriptingClassesv
nXb:__ZN13ProbeRenderer8ConvolveEbijjb
xxi:_GUIUtility_set_systemCopyBuffer_m608712289
ywa:__ZN17GenericDynamicVBOC2ER9GfxDevice13GfxBufferModejj
omc:__ZZN10GUIManager14InitGUIManagerEvEN41PreUpdateIMGUISendQueuedEventsRegistrator7ForwardEv
Zaf:_ServicePointManager_get_SecurityProtocol_m966397919
cDa:__ZN13dynamic_arrayIN18GlslGpuProgramGLES9GLProgramELj4EE6insertEPS1_jRKS1_
vDf:_CCGregorianCalendar_day_from_fixed_m1674702403
XS:__ZN11UnityEngine15CloudWebService17SessionEventQueue10PurgeItemsEj
TXb:__ZN6Camera16StandaloneRenderENS_10RenderFlagEP6ShaderRKN4core12basic_stringIcNS3_20StringStorageDefaultIcEEEE
Adf:_X509Chain_PrepareForNextCertificate_m3691934993
oyb:__Z18Transfer_BlittableI18StreamedBinaryReadILb1EELb1EtEvRK29SerializationCommandArgumentsR31RuntimeSerializationCommandInfo
OPh:__ZL58EventType_t3528516131_CustomAttributesCacheGenerator_keyUpP21CustomAttributesCache
Pvh:__ZL57X509Certificate_t713131622_CustomAttributesCacheGeneratorP21CustomAttributesCache
Lab:__ZN12BoneWeights48TransferI19StreamedBinaryWriteILb0EEEEvRT_
Jqa:__ZN9GfxDevice20DeallocRenderSurfaceEP17RenderSurfaceBase
ana:__ZN20GpuProgramParameters36UpdatePrepareValuesMaximumBufferSizeEv
S6h:_ReadOnlyCollection_1_System_Collections_IList_RemoveAt_m2129436005_gshared
T0e:_SimpleCollator_GetContraction_m2205549079
K7d:_ARC4Managed_GenerateKey_m1607343060
ROf:_Array_InternalArray__ICollection_CopyTo_TisDecimal_t2948259380_m2749946216_gshared
cSa:__ZN12BaseRenderer23RendererBecameInvisibleEv
kJc:__ZN20TextRenderingPrivate8FontImpl13CharacterInfo8TransferI18StreamedBinaryReadILb0EEEEvRT_
Dvb:__Z29Transfer_Blittable_ArrayFieldI24GenerateTypeTreeTransferfEvRT_R9ArrayInfoRK23StaticTransferFieldInfo
Bba:__ZNSt3__26__treeINS_12__value_typeIN4core12basic_stringIcNS2_20StringStorageDefaultIcEEEES6_EENS_19__map_value_compareIS6_S7_NS_4lessIS6_EELb1EEE13stl_allocatorIS7_L18MemLabelIdentifier13ELi16EEE7destroyEPNS_11__tree_nodeIS7_PvEE
qng:_UnityEvent_FindMethod_Impl_m2312362624
hZb:__ZN19CustomRenderTexture9AddParentE4PPtrIS_E
Y6:__ZN8Gradient8TransferI14SafeBinaryReadEEvRT_
bjg:_Vector3_GetHashCode_m2879461828
Sqi:_Parser_ParseSpecial_m1961501104
bpf:_Single_System_IConvertible_ToUInt64_m3299129161_AdjustorThunk
g0a:__ZNSt3__26vectorIN4core12basic_stringIcNS1_20StringStorageDefaultIcEEEE13stl_allocatorIS5_L18MemLabelIdentifier1ELi16EEE7reserveEj
Eaf:_IPv6Address_AsIPv4Int_m844941024
CSd:_Random__ctor_m3209279193
Xee:_RecordProtocol__cctor_m1280873827
T6f:_StringBuilder__ctor_m3504405255
d5d:_Marshal__cctor_m4007734770
Wmj:_GC_new_free_list_inner
L6e:_SymmetricTransform_Random_m2004892672
Bmj:_GC_err_printf
o9d:_RSAManaged_DecryptValue_m1804388365
Pie:_InternalEnumerator_1_System_Collections_IEnumerator_get_Current_m2980550840_AdjustorThunk
Ouc:__ZN8JSONRead8TransferI10RectOffsetEEvRT_PKc17TransferMetaFlagsb
FS:__ZN9JSONWrite8TransferIN11UnityEngine15CloudWebService14DataErrorEvent15FileErrorDetailEEEvRT_PKc17TransferMetaFlags
WFd:_Int32_Parse_m2087562008
ILf:_Array_compare_TisVector4_t3319028937_m1974066282_gshared
c2d:_MonoProperty_GetAccessors_m412928203
Sii:_TweenRunner_1_Start_m3757154622_gshared
wJ:__ZN12SoundManager20RegisterModifiedClipEP10SampleClip
pEe:_RemotingServices_GetClientChannelSinkChain_m1499550585
aTd:_Assembly_FillName_m1660001542
wth:__ZL56_EventBuilder_t2558055199_CustomAttributesCacheGeneratorP21CustomAttributesCache
qkf:_SHA384Managed_processBlock_m1272529332
aM:__ZN11AudioSource4PlayEd
Psd:_Char_ToString_m278452217_AdjustorThunk
DOi:__ZN15dense_hashtableI10KeyWrapperIPK17Il2CppGenericInstES4_N6il2cpp8metadata21Il2CppGenericInstHashEN14dense_hash_setIS4_S7_NS4_14EqualsComparerINS6_24Il2CppGenericInstCompareEEENSt3__29allocatorIS4_EEE8IdentityESB_SE_E13set_empty_keyERKS4_
eCg:__Z63RuntimeInvoker_Char_t3634460470_Int16_t2552820387_RuntimeObjectPFvvEPK10MethodInfoPvPS4_
IAd:_Convert_ToDouble_m2924063577
EUd:_CustomAttributeNamedArgument_ToString_m1488801416_AdjustorThunk
rBe:_ValueCollection_System_Collections_Generic_ICollectionU3CTValueU3E_Remove_m3673494156_gshared
I2a:__ZN7Cubemap23VirtualRedirectTransferER18StreamedBinaryReadILb0EE
Phc:__ZNSt3__27__sort4IRNS_6__lessI11KeyframeTplIfES3_EEPS3_EEjT0_S7_S7_S7_T_
NFc:_Read_CVT
QL:__ZN11AudioSource23VirtualRedirectTransferER19StreamedBinaryWriteILb0EE
V0e:_SimpleCollator_GetTailContraction_m2107754083
rub:__ZL26Transfer_SimpleNativeClassI24GenerateTypeTreeTransfer17AnimationCurveTplIfELb0EEvRK29SerializationCommandArgumentsR31RuntimeSerializationCommandInfo
Ovc:__ZN8JSONRead21TransferSTLStyleArrayI13dynamic_arrayI9BoundsIntLj4EEEEvRT_17TransferMetaFlags
P4a:__ZN24GenerateTypeTreeTransfer8TransferI13dynamic_arrayI33EnlightenTerrainChunksInformationLj4EEEEvRT_PKc17TransferMetaFlags
kuf:_DateTimeFormatInfo__ctor_m3106345035
Tbe:_TlsServerKeyExchange_verifySignature_m3412856769
SVf:_EqualityComparer_1_System_Collections_IEqualityComparer_GetHashCode_m4137147946_gshared
Yca:__ZN16LightmapSettings20DidChangeActiveSceneEP10UnitySceneS1_
b_h:__ZL59g_AssemblyU2DCSharp_Assembly_CustomAttributesCacheGeneratorP21CustomAttributesCache
oVi:__ZN6il2cpp5utils9PathUtils8BasenameIcEENSt3__212basic_stringIT_NS3_11char_traitsIS5_EENS3_9allocatorIS5_EEEERKSA_
bMe:_RemotingProxy__cctor_m4096951805
Tnc:__Z35Register_UnityEngine_Event_get_typev
Q9i:__ZN6il2cpp2vm9Exception23GetInvalidCastExceptionERKNS_5utils10StringViewIDsEE
ez:__ZN8Animator28BuildControllerPlayableCacheEv
bZ:__Z63ThreadAndSerializationSafeCheckGetMonoBehaviourBeingTransferredv
jAf:_StackTrace__ctor_m206492268
B1g:_List_1_set_Item_m4224739467_gshared
C6c:_ColorTween_set_startColor_m2562993758_AdjustorThunk
uVd:_ConstructorBuilder_get_Name_m2426555260
vhc:__Z37Register_UnityEngine_Input_GetAxisRawv
Tqi:_Parser_ParseCharacterClass_m4285351396
FBd:_Convert_ToSByte_m2653418303
Uxd:_SyncHashtable__ctor_m2449935938
OL:__ZN11AudioSource5ResetEv
Cjf:_RSAPKCS1SignatureFormatter_SetKey_m2935054088
ENb:__ZN12ImageFilters27SetSurfaceUseResolvedBufferEP13RenderTextureb
g8a:__ZN14Texture2DArray23VirtualRedirectTransferER18StreamedBinaryReadILb0EE
B8f:_UTF7Encoding_GetByteCount_m209415911
vjb:__ZN2UI13RectTransform13AwakeFromLoadE17AwakeFromLoadMode
zti:_RegularExpression_Compile_m2385682508
FDf:_CompareInfo__cctor_m1837489679
ASb:__ZN14qsort_internal30FindAndMovePivotToLastPositionIP20ShadowCasterSortDatai26ShadowCasterSortDataSorterEEvT_S4_T0_T1_
Pnb:__Z18Transfer_BlittableI14SafeBinaryReadLb1EiEvRK29SerializationCommandArgumentsR31RuntimeSerializationCommandInfo
Gdf:_X509ExtensionEnumerator_get_Current_m256207749
a8:__GLOBAL__sub_I_modules_profiler_public_0_cpp
Xhb:__ZN17PersistentManager13GetAllFileIDsERKN4core12basic_stringIcNS0_20StringStorageDefaultIcEEEER13dynamic_arrayIxLj8EE
nod:_Array_Sort_m182264525
MSe:_LayoutGroup_set_padding_m282562135
YTd:_Default_IsArrayAssignable_m953489228
_eg:_UInt16_ToString_m355311020_AdjustorThunk
pid:_RC2__ctor_m1146135664
Ek:_glGetStringi
psf:_DecoderExceptionFallback_CreateFallbackBuffer_m1133375601
Hdj:__ZNK15dense_hashtableI10KeyWrapperIP18Il2CppGenericClassES3_N6il2cpp8metadata22Il2CppGenericClassHashEN14dense_hash_setIS3_S6_NS3_14EqualsComparerINS5_25Il2CppGenericClassCompareEEENSt3__29allocatorIS3_EEE8IdentityESA_SD_E10test_emptyERK30dense_hashtable_const_iteratorIS3_S3_S6_SF_SA_SD_E
yxe:_Enumerator_get_CurrentKey_m889650866_gshared
wA:__ZN8Animator9WriteStepEy
Rwe:_Enumerator_VerifyCurrent_m829026141_gshared
X8b:__ZN16PropertyAccessorC2Ev
T5a:__ZNSt3__23mapIN4core12basic_stringIcNS1_20StringStorageDefaultIcEEEE9PrefValueNS_4lessIS5_EENS_9allocatorINS_4pairIKS5_S6_EEEEEixERSB_
r8b:__ZN15DirectorManager22ConstructPlayableGraphEv
Bch:_Collection_1_ConvertItem_m1743542180_gshared
EMc:__Z38Register_UnityEngine_Font_HasCharacterv
xWb:__Z35IntersectSpherePlaneBoundsOptimizedRKN4math7_float4EPS1_i
Jif:_RNGCryptoServiceProvider__cctor_m3587754670
vgj:__ZN6il2cpp2os5posix15PosixWaitObject13InterruptWaitEv
vca:__Z22CleanupLODGroupManagerPv
Pnc:__Z21Event_CUSTOM_PopEventP12Il2CppObject
ol:_glUniform3fv
Qsj:__ZNK6il2cpp8metadata24Il2CppGenericInstCompareclERK10KeyWrapperIPK17Il2CppGenericInstES8_
Veb:__ZNSt3__218__insertion_sort_3IRN15ResourceManager10Dependency6SorterEPS2_EEvT0_S6_T_
$df:_X509ChainElement_Set_m655180762
Yqg:_MonoBehaviour_StopCoroutine_m615723318
lRb:__ZNK16LightmapSettings31GetRealtimeLightmapDecodeValuesEv
QK:__ZN5audio5mixer12SetSuspendedERNS0_16AudioMixerMemoryEb
Pib:__ZN17PersistentManager21UnloadNonDirtyStreamsEv
hJg:__Z96RuntimeInvoker_Int32_t2950945753_RuntimeObject_Int32_t2950945753_RuntimeObject_Int32_t2950945753PFvvEPK10MethodInfoPvPS4_
$ti:_Uri_get_Parser_m3737125102
ZHi:_Canvas_get_overrideSorting_m2740418462
Zag:_Scheduler__ctor_m3313141270
h9a:__ZN12ImageFilters4BlitER17ShaderPassContextP7TextureP13RenderTextureiPK18SharedMaterialDataPKcP6ShaderiNS_9BlitFlagsE11CubemapFaceRK8Vector2fSH_
Pqf:_String_LastIndexOf_m3451222878
Poi:_Mark_get_Index_m3048692661
tYh:__ZL69CanvasScaler_t2767979955_CustomAttributesCacheGenerator_m_ScaleFactorP21CustomAttributesCache
yFe:_ConfigHandler_CheckPath_m3079311646
fT:__ZN11UnityEngine15CloudWebService10RestClientINS0_23WebRequestRestHeaderMapEED2Ev
Kl:_emscripten_glDepthMask
gEe:_RemotingServices_CreateClientProxy_m3886727610
Nxa:__ZN4crnd25static_huffman_data_model22prepare_decoder_tablesEv
afe:_RecordProtocol_GetMessage_m2086135164
Omc:__Z23GUIStatePopDisplayIndexv
bda:__Znaj
aJj:_emscripten_glEnableClientState__wrapper
L9:__ZN17MessageIdentifierC2EPKcNS_7OptionsEPKN5Unity4TypeES1_
Qqg:_Mesh_SetTriangles_m1523451247
Sof:_Single_System_IConvertible_ToSByte_m1208276900
Q_h:_Array_InternalArray__set_Item_TisVector4_t3319028937_m757305038_gshared
AHg:__Z105RuntimeInvoker_Void_t1185182177_RuntimeObject_RuntimeObject_RuntimeObject_RuntimeObject_Int32_t2950945753PFvvEPK10MethodInfoPvPS4_
aBe:_ValueCollection_System_Collections_Generic_ICollectionU3CTValueU3E_Add_m3298059628_gshared
BCg:__Z64RuntimeInvoker_RuntimeObject_Int16_t2552820387_Int16_t2552820387PFvvEPK10MethodInfoPvPS4_
vQ:__Z55Register_UnityEngine_AudioSource_get_spatializeInternalv
bLa:__ZN14SafeBinaryRead8TransferI14ConstantStringEEvRT_PKc17TransferMetaFlags
RLb:__ZNK6Camera16GetStereoEnabledEv
iMg:__Z72RuntimeInvoker_Int32_t2950945753_TimeSpan_t881159249_TimeSpan_t881159249PFvvEPK10MethodInfoPvPS4_
Bfe:_SendRecordAsyncResult_SetComplete_m153213906
Gna:__ZL24FindBelongingStructParamRPKcRNSt3__26vectorIN9ShaderLab20SerializedSubProgram14ConstantBufferENS2_9allocatorIS6_EEEE
u5b:__ZN12LightManager15InitializeClassEv
kbg:_WaitHandle__cctor_m4242752477
f$a:__ZN9ShaderLab11shaderprops16GetComputeBufferEPK19ShaderPropertySheetS3_NS_16FastPropertyNameE
Tkj:__ZN6il2cpp6icalls8mscorlib6System10Reflection10MethodBase31GetMethodFromHandleInternalTypeEii
K_:__ZN18ScriptingArgumentsC2Ev
xjg:_Vector3_op_Equality_m4231250055
xEj:_emscripten_glBlendFuncSeparate__wrapper
fJd:_FileSystemInfo__ctor_m3769019897
s3h:_Array_InternalArray__get_Item_TisContentType_t1787303396_m421427711_gshared
Qua:__Z17HasSampledTexture14GraphicsFormat13formatSupport
eNb:__ZNK25CameraStackRenderingState27GetStereoImageEffectTextureEb
Jhd:_HMACSHA384__ctor_m1677515580
Fif:_RIPEMD160Managed_J_m1336489154
sp:__ZN8Vector3f8TransferI14SafeBinaryReadEEvRT_
MSi:__ZN6il2cpp6icalls6System6System3Net7Sockets6Socket7ReceiveEiP11Il2CppArrayiiNS4_11SocketFlagsEPi
wo:FUNCTION_TABLE_ii
URa:__ZN10TagManager8TransferI18StreamedBinaryReadILb0EEEEvRT_
orc:__Z18Transfer_BlittableI9JSONWriteLb0E8BitFieldEvRK29SerializationCommandArgumentsR31RuntimeSerializationCommandInfo
eLd:_MemoryStream_set_Capacity_m1773624579
z5i:__ZNK15dense_hashtableINSt3__24pairIK10KeyWrapperINS1_IP11Il2CppClassjEEES4_EES6_N6il2cpp8metadata14ArrayClassHashEN14dense_hash_mapIS6_S4_SB_NS6_14EqualsComparerINSA_17ArrayClassCompareEEENS0_9allocatorIS8_EEE9SelectKeyESF_SH_E10test_emptyEj
Qia:__ZNSt3__26vectorIN9ShaderLab20SerializedSubProgram15StructParameterENS_9allocatorIS3_EEE8__appendEj
tb:invoke_diiii
dDj:b47
nOg:__Z95RuntimeInvoker_Void_t1185182177_RuntimeObject_RuntimeObject_SByte_t1669577662_SByte_t1669577662PFvvEPK10MethodInfoPvPS4_
AMa:__Z24CreateDirectoryRecursiveRKN4core12basic_stringIcNS_20StringStorageDefaultIcEEEE
RCj:b41
kla:__ZN9ShaderLab20SerializedSubProgram8TransferI18StreamedBinaryReadILb0EEEEvRT_
QCj:b40
tKh:__ZL54ContextMenu_t1295656858_CustomAttributesCacheGeneratorP21CustomAttributesCache
l9:__ZN13RuntimeStaticI21ScalableBufferManagerLb0EE13StaticDestroyEPv
kNc:__ZN2UI13CanvasManager9AddCanvasEPNS_6CanvasE
_8a:__ZN9Texture3D8TransferI19StreamedBinaryWriteILb0EEEEvRT_
JNb:__ZNK6Camera22CalculateRenderingPathEv
pBd:_Convert_ToInt64_m3758262873
fC:__ZN11UnityEngine9Animation37SetGenericRootTransformPropertyValuesERKNS0_30AnimatorGenericBindingConstantERKN7mecanim10ValueArrayER9Transformbb
_Da:__Z13ConvertMipmap14GraphicsFormatPKvS_Pviiii
Zsb:__ZL12InvokeMethodI17RemapPPtrTransferEvRK29SerializationCommandArgumentsR31RuntimeSerializationCommandInfo
I9e:_RemoteCertificateValidationCallback_Invoke_m3086073466
Prf:_StringComparer_Compare_m991165676
uDc:_tt_sbit_decoder_load_image
Eii:_U3CStartU3Ec__Iterator0_Dispose_m261027331_gshared
ZEa:__ZN4core8hash_mapIPK17RenderSurfaceBaseP13RenderTexture19PointerHashFunctionIS3_ENSt3__28equal_toIS3_EEE6insertERKNS8_4pairIKS3_S5_EE
Imc:__ZNSt3__24listIN10GUIManager12SortedScriptE11memory_poolIS2_EE6__sortI13OldSortScriptEENS_15__list_iteratorIS2_PvEESA_SA_jRT_
Bfh:_Collection_1_System_Collections_IList_Add_m3364892189_gshared
Y1g:_List_1_AddEnumerable_m3500350831_gshared
$8d:_PrivateKeyInfo_get_PrivateKey_m3647771102
TUc:__ZN18UnityConnectClient12CloseServiceEv
w8i:__ZN6il2cpp6icalls8mscorlib6System9ThreadingL11ThreadStartEPv
Vea:__ZN15DirectorManager12OnSampleTimeEv
DZd:_TypeBuilder_check_not_created_m3652863637
M2c:_StandaloneInputModule_UpdateModule_m450861257
TFi:_Font_add_textureRebuilt_m2164317336
mbi:_ReadOnlyCollection_1_System_Collections_IList_Insert_m2928873627_gshared
zXf:_EqualityComparer_1__cctor_m314889309_gshared
h6:__ZN12CachedReader10Align4ReadEv
Nmi:_X501__cctor_m2428304915
YHi:_Canvas_get_renderOrder_m1489855841
_Cg:__Z50RuntimeInvoker_Void_t1185182177_Single_t1397266774PFvvEPK10MethodInfoPvPS4_
svi:_Event_ToString_m1688862299
cKa:__ZNK9Behaviour22GetTypeVirtualInternalEv
uDf:_CCGregorianCalendar_month_from_fixed_m4268992710
zLf:_Array_compare_TisUICharInfo_t75501106_m1310495481_gshared
hXb:__Z21GetScriptingArraySize17ScriptingArrayPtr
IIc:__ZN20TextRenderingPrivate8FontImpl8TransferI14SafeBinaryReadEEvRT_
B9h:_ReadOnlyCollection_1_System_Collections_IList_Clear_m4022532825_gshared
b6f:_Encoding_get_ASCII_m3595602635
Fra:__ZN9GfxDevice17ImmediateTexCoordEifff
sWd:_DerivedType_GetCustomAttributes_m3536779709
Hyh:__ZL93Interlocked_t2273387594_CustomAttributesCacheGenerator_Interlocked_CompareExchange_m388540288P21CustomAttributesCache
F_d:_MethodBase_get_IsAbstract_m428833029
Atb:__Z35Transfer_Blittable_FixedBufferFieldI24GenerateTypeTreeTransferhEvRK29SerializationCommandArgumentsR31RuntimeSerializationCommandInfo
rCj:_emscripten_glUniform4f__wrapper
R1f:_Enumerator_MoveNext_m2595190390_AdjustorThunk
XMf:_Array_InternalArray__IndexOf_TisColor32_t2600501292_m3783551884_gshared
oY:__ZNK6Camera16GetProjectionFarEv
Nq:__Z24InverseTransformRotationRK23TransformAccessReadOnlyRKN4math7_float4E
Nni:_X509Chain_Build_m2469702749
VL:__ZN11AudioSource6UpdateEv
i1a:__ZNK14PlayableOutput11DerivesFromE17ScriptingClassPtr
v2a:__ZN7Texture34CreateFileTextureUploadInstructionE18TextureUploadFlagsj
j4e:_BitConverterLE_ULongFromBytes_m1677445591
BZd:_TypeBuilder_DefineConstructor_m2989882735
fPa:__ZN25SingleBlockMemoryFileDataC2E10MemLabelIdPvjb
nD:__ZN8Animator8TransferI14SafeBinaryReadEEvRT_
WVb:__ZN27IntermediateRendererManager24GetIntermediateRenderersEi
C1:__Z23AsyncReadForceCloseFileRKN4core12basic_stringIcNS_20StringStorageDefaultIcEEEE
Ut:__ZN17AnimationPlayable34CollectAnimatorControllerPlayablesER13dynamic_arrayIP26AnimatorControllerPlayableLj4EE
PO:__ZN16BaseVideoTexture19UpdateVideoTexturesEv
b1d:_MonoField_GetValue_m3124733531
eWa:__Z28BuildSingleStreamChannelInfo17ShaderChannelMaskRK20VertexChannelsLayoutS_S2_P11ChannelInfo
E6a:__ZN6Sprite23VirtualRedirectTransferER19StreamedBinaryWriteILb0EE
x$c:_EventTrigger_Execute_m2453060771
qci:_Comparison_1_Invoke_m517083441_gshared
AJg:__Z253RuntimeInvoker_Int32_t2950945753_RuntimeObject_Int32_t2950945753_Int32_t2950945753_RuntimeObject_Int32_t2950945753_UInt32U26_t3735378166_UInt32U26_t3735378166_RuntimeObject_DecoderFallbackBufferU26_t3866396827_ByteU5BU5DU26_t4057885439_SByte_t1669577662PFvvEPK10MethodInfoPvPS4_
zZi:__ZNK15dense_hashtableINSt3__24pairIK10KeyWrapperINS1_IPK9FieldInfoP11Il2CppClassEEEjEES9_17ReflectionMapHashIS8_EN14dense_hash_mapIS9_jSD_NS9_14EqualsComparerINS0_8equal_toIS8_EEEENS0_9allocatorISB_EEE9SelectKeyESI_SK_E5beginEv
Tna:__ZNK9ShaderLab7Program19HasMatchingVariantsERK13dynamic_arrayI16ShaderKeywordSetLj4EE
jB:__ZN15SerializeTraitsIN4math4trsXEE8TransferI8BlobSizeEEvRS1_RT_
zva:__ZN14DataBufferGLES11CopySubDataEPKS_jjj
fe:_emscripten_glVertexPointer
mPc:__ZN2UI13PrepareOutputERNS_7BatchesEjjNS_30AdditionalCanvasShaderChannelsE
BVi:__ZN6il2cpp2vm7Runtime47RaiseExecutionEngineExceptionIfMethodIsNotFoundEPK10MethodInfo
vpi:_PatternCompiler_GetMachineFactory_m3758869886
dTb:__Z17GetFrustumPortionPK8Vector3fffPS_
gbj:__ZN15dense_hashtableINSt3__24pairIK10KeyWrapperIP14Il2CppIUnknownEjEES5_N6il2cpp5utils11PointerHashIS3_EEN14dense_hash_mapIS5_jSB_NS5_14EqualsComparerINS0_8equal_toIS4_EEEENS0_9allocatorIS7_EEE9SelectKeyESG_SI_E14squash_deletedEv
O$c:_EventTrigger_OnCancel_m585099428
Ewi:_GUILayoutEntry_ApplyOptions_m1741659338
med:_RuntimeTypeHandle_Equals_m2857439487_AdjustorThunk
wpa:__ZNK9GfxDevice27GetPlatformAdjustedViewportEv
I6h:_ReadOnlyCollection_1_System_Collections_Generic_IListU3CTU3E_set_Item_m88350439_gshared
Adi:_Func_3_Invoke_m1194147890_gshared
esi:_Reference_Compile_m4195878675
xHi:_InputBuffer_remove_onCommandSent_m3139499669
W8h:_ReadOnlyCollection_1_System_Collections_ICollection_CopyTo_m2672196987_gshared
$8b:__ZN16StreamedResource8TransferI24GenerateTypeTreeTransferEEvRT_
_ug:_RectTransform_get_anchorMin_m2928307238
_sd:_ArrayList__ctor_m3828927650
Hta:__ZThn9568_N13GfxDeviceGLES26EnableScissorRectsPlatformEv
IGa:__ZN10Matrix3x3f15InvertTransposeEv
Qwi:_GUILayoutGroup_SetHorizontal_m996475327
Hwi:_GUILayoutEntry__cctor_m663865902
lLb:__Z11IsBatchmodev
u0f:_Enumerator_System_Collections_IEnumerator_get_Current_m713684915_gshared
zrb:__Z29Transfer_Blittable_ArrayFieldI14SafeBinaryRead8Vector3fEvRT_R9ArrayInfoRK23StaticTransferFieldInfo
xJc:__ZN20TextRenderingPrivate8FontImpl18ResetCachedTextureEv
dUi:__ZN6il2cpp6icalls8mscorlib6SystemL16GetFieldFromTypeINS_5utils10functional6FilterINSt3__212basic_stringIcNS7_11char_traitsIcEENS7_9allocatorIcEEEENS4_13VmStringUtils21CaseSensitiveComparerEEEEEP21Il2CppReflectionFieldP11Il2CppClassSK_iRKT_
Lkc:__Z27Screen_Get_Custom_PropWidthv
Enj:_GC_print_finalization_stats
vxi:_GUITargetAttribute_GetGUITargetAttrValue_m2954410352
Wec:__Z53Register_UnityEngine_Behaviour_get_isActiveAndEnabledv
vod:_SimpleEnumerator_get_Current_m72361444
hq:__ZNSt3__26vectorIN4core12basic_stringIcNS1_20StringStorageDefaultIcEEEENS_9allocatorIS5_EEE8__appendEj
cP:__ZN13ProduceHelperI10SampleClipLb0EE7ProduceE10MemLabelId18ObjectCreationMode
ieb:__ZN26PlayerSettingsSplashScreen8TransferI17RemapPPtrTransferEEvRT_
V3e:_ASN1_set_Value_m2803403806
kUi:__ZN6il2cpp6icalls8mscorlib6SystemL17CollectTypeFieldsINS_5utils10functional10TrueFilterEEEvP11Il2CppClassPKS7_iRNSt3__26vectorIP9FieldInfoNSB_9allocatorISE_EEEERKT_
H1b:__Z13GetTagManagerv
_ld:_Hashtable__ctor_m1815022027
Y8f:_UTF8Encoding_GetChars_m1433288684
nKi:__ZL10roundUp128PyS_
oR:__ZN11UnityEngine15CloudWebService17CloudJobSchedulerD0Ev
Yhe:_ArrayReadOnlyList_1_Contains_m381552673_gshared
Gcg:_TimeZone_ToUniversalTime_m2789507578
WCg:__Z96RuntimeInvoker_Boolean_t97287965_RuntimeObject_RuntimeObject_Int32_t2950945753_Int32_t2950945753PFvvEPK10MethodInfoPvPS4_
$Lf:_Array_IndexOf_TisUICharInfo_t75501106_m3198896198_gshared
INc:__ZNK2UI11CanvasGroup22GetTypeVirtualInternalEv
tde:_Context_get_Current_m2853615040
IHi:_Keyboard_WarnIfTerminalNotConneced_m1063217717
anc:__Z21CleanupGlobalGUIStatev
Idg:_Type_IsContextfulImpl_m3693603908
m1f:_Enumerator_VerifyState_m2873941769_gshared
OAb:__Z18Transfer_BlittableI18StreamedBinaryReadILb0EELb1EN4math12int3_storageEEvRK29SerializationCommandArgumentsR31RuntimeSerializationCommandInfo
fIa:__ZN22VertexDeclarationCache5ClearEv
Ufd:_CspParameters__ctor_m3852972821
i_b:__ZN17PersistentManager12SetPathRemapERKN4core12basic_stringIcNS0_20StringStorageDefaultIcEEEES6_
xw:__Z27ProcessRootMotionEmptyMixerP35AnimationPlayableEvaluationConstantP32AnimationPlayableEvaluationInputP33AnimationPlayableEvaluationOutput
GUb:__ZN6Camera24PrepareCullingParametersERK23CameraCullingParameters13RenderingPathR11CullResults
tbc:__Z12SetIUISystemP9IUISystem
Bgb:__ZN19RuntimeSceneManager22EndIntegrateMainThreadEP10UnitySceneNS_11LoadingModeE
t0h:_Array_Sort_TisUICharInfo_t75501106_m3474449559_gshared
$sb:__Z26Transfer_UnityEngineObjectI17RemapPPtrTransferLb0EEvRK29SerializationCommandArgumentsR31RuntimeSerializationCommandInfo
sqi:_QuickSearch_GetShiftDistance_m2542665852
T2h:_Array_InternalArray__get_Item_TisCustomAttributeTypedArgument_t2723150157_m2639399822_gshared
k2e:_BigInteger_GenerateRandom_m3141592944
uvb:__Z29Transfer_Blittable_ArrayFieldI24GenerateTypeTreeTransfer4AABBEvRT_R9ArrayInfoRK23StaticTransferFieldInfo
Phf:_Interval_Contains_m1454846757
dad:_Graphic_CacheCanvas_m1120385152
uuj:_emscripten_GetProcAddress
Ca:invoke_fiiifii
Qvj:_modff
DYa:__ZN20SphericalHarmonicsL219AddDirectionalLightERKN4math7_float3ERKNS0_7_float4E
Mea:__Z26ScheduleJobForEachInternalR8JobFencePFvPvjES1_iPFvS1_E11JobPriority
YKb:__ZZ23InitPlayerLoopCallbacksvEN41PostLateUpdateProfilerEndFrameRegistrator7ForwardEv
Nbc:__ZN9Scripting18RaiseMonoExceptionEPKcz
iNc:__ZN2UI13UIInstruction19ClearSharedMeshDataER8JobFence
P7b:__ZN10GameObject17WillHandleMessageERK17MessageIdentifier
Mmf:_StrongNamePublicKeyBlob_Equals_m3655422942
Jnf:_SecurityContext__ctor_m1730177197
hJi:_RectTransformUtility_GetTransposed_m3952754222
T5b:__ZN9ShaderLab16FastPropertyName15InitBy28BitHashEj
W0g:_List_1_System_Collections_IList_set_Item_m4182383657_gshared
cGg:__Z96RuntimeInvoker_Void_t1185182177_Int32_t2950945753_Single_t1397266774_RuntimeObject_RuntimeObjectPFvvEPK10MethodInfoPvPS4_
awe:_Enumerator_System_Collections_IDictionaryEnumerator_get_Key_m195047678_AdjustorThunk
XHi:_Canvas_get_pixelPerfect_m333060872
_9a:__ZN17PackedFloatVector12UnpackFloatsEPfiiii
Cz:__ZN17AnimationPlayable28UpdateInternalStateRecursiveILi3ELb0EEEvPK35AnimationPlayableEvaluationConstant
Fsa:__ZN13GfxDeviceGLES21DestroyComputeProgramER12ObjectHandleI18ComputeProgram_TagPvE
Rpi:_PatternCompiler_EmitIfDefined_m2075050865
Yxf:_Decimal_System_IConvertible_ToInt64_m1446427516_AdjustorThunk
zca:__ZN17UniqueIDGenerator16DestroyPureIndexEj
fRd:_NotImplementedException__ctor_m3095902440
Y$:__ZL21AppendNestedClassName17ScriptingClassPtrRN4core17string_with_labelILi1EEE
xia:__ZN14SafeBinaryRead21TransferSTLStyleArrayINSt3__26vectorIN9ShaderLab20SerializedSubProgram12UAVParameterENS1_9allocatorIS5_EEEEEEvRT_17TransferMetaFlags
WFi:_FontTextureRebuildCallback_Invoke_m3604797831
xS:__ZN24TextDOMTransferWriteBaseI9JSONWriteE12PushMetaFlagEi
Ith:__ZL59_PropertyBuilder_t1366136710_CustomAttributesCacheGeneratorP21CustomAttributesCache
kBa:__ZN6prcoreL26RemapGenericIntegerToFloatI17TexFormatARGB888815TexFormatRFloatEEvPKNS_9InnerInfoE
ETi:__ZN6il2cpp2vm10ThreadPool10InitializeEv
u4g:_List_1__ctor_m808270210_gshared
yXi:__ZN6il2cpp2vm17TypeNameParseInfoD2Ev
l_f:_PrimeHelper_ToPrime_m3704362632_gshared
WI:__ZN4FMOD7Channel7setModeEj
Gxf:_Decimal_System_IConvertible_ToType_m2919262279
tzg:_Vector2_get_right_m1027081661
xX:__ZNK8Renderer8GetLayerEv
bMd:_Stream_Close_m771352034
aue:__ZN21InterfaceFuncInvoker1Ii19TimeSpan_t881159249E6InvokeEjP11Il2CppClassP12Il2CppObjectS0_
qPb:__ZNK6Camera20GetReplacementShaderEv
u7g:_List_1_System_Collections_IList_Remove_m4226673807_gshared
Srj:__ZNSt3__26__treeINS_12__value_typeINS_12basic_stringIcNS_11char_traitsIcEENS_9allocatorIcEEEEPFvvEEENS_19__map_value_compareIS7_SA_NS_4lessIS7_EELb1EEENS5_ISA_EEE4findIS7_EENS_15__tree_iteratorISA_PNS_11__tree_nodeISA_PvEEiEERKT_
zya:__ZL23stbir__calculate_memoryP11stbir__info
Zgf:_Interpreter_Close_m126356671
t9a:__ZNK6Camera18GetRenderRectangleEv
P7a:__ZN13sorted_vectorIN4core12basic_stringIcNS0_20StringStorageDefaultIcEEEENSt3__24lessIS4_EE13stl_allocatorIS4_L18MemLabelIdentifier81ELi16EEE4findIS4_EENS5_11__wrap_iterIPS4_EERKT_
Kqi:_Parser_HandleExplicitNumericGroups_m1412234891
q3h:_Array_InternalArray__get_Item_TisRaycastHit2D_t2279581989_m2440275162_gshared
xUd:_CustomAttributeNamedArgument_Equals_m1414002036
huc:__ZL26Transfer_SimpleNativeClassI8JSONRead10RectOffsetLb1EEvRK29SerializationCommandArgumentsR31RuntimeSerializationCommandInfo
vpg:_Material_SetInt_m475299667
TQc:__Z44CanvasRenderer_CUSTOM_INTERNAL_CALL_SetColorP12Il2CppObjectRK10ColorRGBAf
NAe:_Enumerator_MoveNext_m3045873697_AdjustorThunk
K$f:_Enumerator_System_Collections_IEnumerator_Reset_m959124362_AdjustorThunk
hCf:_Enum_ToObject_m121831801
scd:_Image_get_hasBorder_m3423344180
Yqc:__Z18Transfer_BlittableI9JSONWriteLb1EsEvRK29SerializationCommandArgumentsR31RuntimeSerializationCommandInfo
ucc:__ZN9Transform16SetLocalRotationERK11Quaternionf
z9c:_FontData_set_richText_m993590067
HLb:__ZN13RenderManager37RenderCamerasWithScriptableRenderLoopEi
wbg:_TimeSpan__ctor_m3689759052
sB:__ZN7mecanim8skeleton25SkeletonPoseComputeLocalQEPKNS0_8SkeletonEPKNS0_13SkeletonPoseTIN4math4trsXEEEPS7_ii
U$g:__Z37RuntimeInvoker_Enumerator_t3123848928PFvvEPK10MethodInfoPvPS4_
nej:__ZN6il2cpp2os19ReleaseSocketHandleEj
aO:__ZN11AudioModule16GetDSPSampleRateEv
xIb:__ZN15InstancingProps11NewConstantERKN9ShaderLab16FastPropertyNameEj15ShaderParamTypehhjjP6Object
gPe:_InputField_get_characterValidation_m4196664041
Ocg:_Type_get_Attributes_m58528356
Kjd:_Array_GetUpperBound_m4018715963
uoi:_X509Store__ctor_m2736551756
ogj:__ZN6il2cpp2os5posix15PosixWaitObjectC2ENS2_4TypeE
DNb:__ZN6Camera21PostMultiCustomRenderENS_10RenderFlagEb
gQf:_Array_InternalArray__Insert_TisMonoResource_t4103430009_m1997865927_gshared
Ikf:_SHA512Managed_HashFinal_m2173184560
lIb:__ZN23ShaderVariantCollection13WarmupShadersEv
W3b:__ZN13ProduceHelperI9TransformLb0EE7ProduceE10MemLabelId18ObjectCreationMode
G$:__Z25GetCommonScriptingClassesv
Zgb:__Z27scripting_gc_collect_unsafei
B8d:_MD5SHA1_HashFinal_m4115488658
fO:__ZN11AudioModule20SuspendVideoTexturesEv
DNf:_Array_InternalArray__ICollection_Add_TisKeyValuePair_2_t71524366_m3468275433_gshared
cBi:_AudioSettings_InvokeOnAudioManagerUpdate_m4044425648
kQ:__Z59Register_UnityEngine_AudioExtensionManager_GetAudioListenerv
Nub:__Z26Transfer_UnityEngineObjectI24GenerateTypeTreeTransferLb0EEvRK29SerializationCommandArgumentsR31RuntimeSerializationCommandInfo
GAd:_Convert_ToDouble_m278900635
jAc:_UNITY_FT_GlyphLoader_CheckPoints
Vlg:_DebugLogHandler_LogException_m302830419
bRe:_InputField_LineDownCharacterPosition_m2798128425
Cxe:_Enumerator_System_Collections_IDictionaryEnumerator_get_Value_m684446183_AdjustorThunk
yUa:__ZN15SharedLightData7PrecalcEv
P1:__ZN10Matrix4x4fmLERKS_
Mtg:_Vector2__ctor_m3970636864
jyb:__Z35Transfer_Blittable_FixedBufferFieldI18StreamedBinaryReadILb1EEsEvRK29SerializationCommandArgumentsR31RuntimeSerializationCommandInfo
FCf:_Environment_InternalGetFolderPath_m468390978
ZNa:__ZN15ArchiveReadFileD0Ev
fUc:__ZN11UnityEngine15PlatformWrapper18GetOperatingSystemEv
rof:_SecurityFrame_ToString_m339310712
Luc:__ZN8GUIStyle8TransferI8JSONReadEEvRT_
n3c:_TouchInputModule_ProcessTouchPress_m3504077560
MZe:_Selectable_IsInteractable_m2611421038
Ozc:_FT_MSB
DGj:_emscripten_glReadPixels__wrapper
C_f:_HashSet_1_Add_m1971460364_gshared
gsj:__ZN6il2cpp6icalls8mscorlib4Mono8Security12Cryptography18KeyPairPersistence10_CanSecureEP12Il2CppString
MHf:_Array_InternalArray__ICollection_Contains_TisParameterModifier_t1461694466_m1000453323_gshared
sSf:_Dictionary_2_System_Collections_ICollection_CopyTo_m4047192178_gshared
fWi:__ZN6il2cpp2os4File11GetFileStatERKNSt3__212basic_stringIcNS2_11char_traitsIcEENS2_9allocatorIcEEEEPNS0_8FileStatEPi
jif:_RIPEMD160Managed_Initialize_m2173168986
G5b:__ZN9TransformC2E10MemLabelId18ObjectCreationMode
Roa:__ZN13GfxDeviceGLES14SetRasterStateEPK17DeviceRasterState
fTd:_Assembly_ToString_m2053237013
_pg:_Vector4_Equals_m1779210055
dCc:_otv_Coverage_get_count
S2d:_ParameterModifier_t1461694466_marshal_pinvoke_back
G2:__ZN14SafeBinaryRead11EndTransferEv
KYf:_EqualityComparer_1__cctor_m2741186979_gshared
zpb:__ZN14SafeBinaryRead8TransferI8MonoPPtrEEvRT_PKc17TransferMetaFlags
ZBf:_Enum_System_IConvertible_ToUInt16_m4216751959
pGa:__ZN21UniformBufferTFMethod13MapBoneBufferEj
uHi:_StringExtension_Anagram_m968226828
ZPf:_Array_InternalArray__Insert_TisInt32_t2950945753_m4073217122_gshared
Mif:_RNGCryptoServiceProvider_RngClose_m3915778345
Iyd:_SortedList_Remove_m2784369438
xxa:__ZN4crnd12crn_unpacker10unpack_dxnEPPhjjj
o0:__ZN14SerializedFileD2Ev
Jnc:__Z30Event_Get_Custom_PropModifiersP12Il2CppObject
hu:__ZN7mecanim9animation16CreateClipOutputEPKNS0_4ClipERNS_6memory9AllocatorE
IVe:_RawImage_get_mainTexture_m2396337033
uYi:__ZN6il2cpp2vm10Reflection17GetAssemblyObjectEPK14Il2CppAssembly
ZCb:__ZNSt3__218__stable_sort_moveIRN10vector_mapI17ScriptingClassPtrPKN5Unity4TypeENS_4lessIS2_EENS_9allocatorINS_4pairIS2_S6_EEEEE13value_compareENS_11__wrap_iterIPSB_EEEEvT0_SJ_T_NS_15iterator_traitsISJ_E15difference_typeEPNSM_10value_typeE
$ga:__ZN6Shader21AwakeFromLoadThreadedEv
mAa:__ZN6prcoreL17RemapGenericFloatI17TexFormatRGBFloat17TexFormatRGBAHalfEEvPKNS_9InnerInfoE
f2e:_BigInteger__ctor_m3991350270
gzg:_Vector2_GetHashCode_m3916089713_AdjustorThunk
stj:__ZN6il2cpp2os9SemaphoreC2Eii
Bpb:__ZNSt3__26vectorI8MonoPPtr13stl_allocatorIS1_L18MemLabelIdentifier1ELi16EEE8__appendEj
gOb:__ZN14qsort_internal30FindAndMovePivotToLastPositionIP17RODataReplacementi19ROSorterReplacementEEvT_S4_T0_T1_
AGa:__ZN15UniformTFMethod20IsBoneCountSupportedEi
$gg:_UnauthorizedAccessException__ctor_m246605039
$4b:__Z12BuildTextureIA4_tPFvP9Texture2DPS0_iiiiEES2_PKcii13TextureFormatRKT0_17TextureColorSpaceb
fAj:dynCall_viidi
W_:__ZN24ScriptingMethodFiltering17FilterOnSignatureENS_18MethodSearchFilterE
IZb:__ZN18ScreenManagerWebGL13SetLockCursorE14CursorLockMode
Iae:_CipherSuite_DecryptRecord_m1495386860
jni:_X509Certificate_VerifySignature_m3538124832
fMd:_StreamAsyncResult_SetComplete_m1102187093
Psi:_CharacterClass_GetIntervalCost_m4036989868
u3b:__ZN13MonoBehaviour19HandleNotificationsEPviR11MessageData
Jug:_RectOffset_Init_m2028508611
Vtj:__ZN6il2cpp2os9EventImpl5ResetEv
M9d:_Alert__ctor_m3135936936
vGd:_Int64_System_IConvertible_ToInt32_m772105781
aki:_TlsClientSettings__ctor_m3220697265
v0i:__ZNK15dense_hashtableINSt3__24pairIK10KeyWrapperINS1_IPK9EventInfoP11Il2CppClassEEEjEES9_17ReflectionMapHashIS8_EN14dense_hash_mapIS9_jSD_NS9_14EqualsComparerINS0_8equal_toIS8_EEEENS0_9allocatorISB_EEE9SelectKeyESI_SK_E23find_position_with_hashERSA_j
ADj:b58
KRf:_Dictionary_2_make_pair_m2250450206_gshared
F6f:_ForwardingDecoder_GetChars_m4228908854
shf:_InterpreterFactory_get_GroupCount_m2226373271
tDj:b53
gDj:b50
hDj:b51
yDj:b56
zDj:b57
wDj:b54
xDj:b55
$0e:_SimpleCollator_IsSafe_m310268646
Vjd:_X509Certificate_get_RawData_m2387471414
dFj:_glDetachShader__wrapper
Cod:_ArrayTypeMismatchException__ctor_m3375008173
Vye:_Transform_1_BeginInvoke_m1757796657_gshared
DWg:__Z88RuntimeInvoker_Int32_t2950945753_UIVertex_t4057497605_UIVertex_t4057497605_RuntimeObjectPFvvEPK10MethodInfoPvPS4_
i7b:__ZN10GameObject12CleanupClassEv
Fpa:__ZN9GfxDevice25SetShaderPropertiesSharedERK19ShaderPropertySheet
g4c:_BaseMeshEffect_get_graphic_m1852367505
Tvd:_CaseInsensitiveHashCodeProvider_GetHashCode_m2168170016
Erf:_String_CreateString_m3400201881
C6b:__ZL25InitializeDefaultMaterialv
rRc:__Z53Register_UnityEngine_CanvasRenderer_get_materialCountv
i_d:_PropertyBuilder_GetCustomAttributes_m3798356764
W2d:_PropertyInfo_get_MemberType_m2794839864
Yue:_Comparer_1_System_Collections_IComparer_Compare_m4179495191_gshared
kMa:__ZN17PersistentManager12UnloadStreamERKN4core12basic_stringIcNS0_20StringStorageDefaultIcEEEEb
YOa:__ZN10MemoryFile4ReadEyyPvPy
EQf:_Array_InternalArray__Insert_TisUICharInfo_t75501106_m2924156520_gshared
tNf:_MonoProperty_GetterAdapterFrame_TisRuntimeObject_TisRuntimeObject_m458718082_gshared
Y5a:__ZN13ScreenManager17RequestResolutionEiibi
C4i:_il2cpp_unity_liveness_calculation_from_statics
Qx:__ZNK26AnimatorControllerPlayable11DerivesFromE17ScriptingClassPtr
tse:_InternalEnumerator_1_System_Collections_IEnumerator_get_Current_m2649471526_gshared
a6:__ZN8Renderer8TransferI17RemapPPtrTransferEEvRT_
dpa:__ZN13GfxDeviceGLES26UpdateViewProjectionMatrixEv
Yve:_Enumerator_System_Collections_IDictionaryEnumerator_get_Entry_m522483686_gshared
a6e:_PrivateKeyInfo_RemoveLeadingZero_m3921889925
eag:_Thread_get_CurrentContext_m1695017876
GXb:__Z24LookRotationToQuaternionRK8Vector3fS1_P11Quaternionf
EXb:__ZN16ReflectionProbes9GetCameraEv
Tma:__ZL18IsGpuProgramUsable20ShaderGpuProgramTypePK6Shader
UPc:__ZN2UI6Canvas17SetSortingLayerIDEi
lgj:__ZN6il2cpp2vm11MethodStack23CleanupForCurrentThreadEv
P4h:_Collection_1_ConvertItem_m618594517_gshared
BCd:_Convert_ToUInt64_m388601487
uVa:__ZN20TierGraphicsSettings8TransferI24GenerateTypeTreeTransferEEvRT_
eQi:__ZN15dense_hashtableINSt3__24pairIK10KeyWrapperIN6il2cpp5utils13dynamic_arrayIPK10Il2CppTypeLj4EEEEPFvvEEESA_NS3_8metadata19Il2CppSignatureHashEN14dense_hash_mapISA_SD_SG_NSA_14EqualsComparerINSF_22Il2CppSignatureCompareEEENS0_9allocatorISE_EEE9SelectKeyESK_SM_E16reset_thresholdsEv
vqg:_Mesh_get_vertices_m3585684815
orb:__ZN14SafeBinaryRead21TransferSTLStyleArrayI13dynamic_arrayI4AABBLj4EEEEvRT_17TransferMetaFlags
Mxg:_TouchScreenKeyboard_get_text_m1797464608
OYb:__ZN26CustomRenderTextureManager25UpdateCustomRenderTextureEP19CustomRenderTexturei
Qfa:__ZNSt3__26__treeINS_12__value_typeIiN11TypeManager18TypeCallbackStructEEENS_19__map_value_compareIiS4_NS_4lessIiEELb1EEENS_9allocatorIS4_EEE7destroyEPNS_11__tree_nodeIS4_PvEE
UEb:__ZN13MonoBehaviour18TransferEngineDataI24GenerateTypeTreeTransferEE4PPtrI10MonoScriptERT_
S8b:__ZNK14PlayableOutput23GetSourcePlayableUnsafeEv
eTc:__ZN11UnityEngine7Connect17XRDeviceInfoEventD0Ev
Nuh:__ZL60SoapTypeAttribute_t1750930817_CustomAttributesCacheGeneratorP21CustomAttributesCache
NTd:_Binder_ConvertArgs_m2124461494
RV:__ZN21UnityDefaultAllocatorI17LowLevelAllocatorE10DeallocateEPv
ts:__ZN15PackedIntVector8TransferI14SafeBinaryReadEEvRT_
vzg:_Vector3__ctor_m3353183577_AdjustorThunk
hle:_InternalEnumerator_1_System_Collections_IEnumerator_get_Current_m1514266661_gshared
A8d:_MD5SHA1_Initialize_m675470944
oOf:_Array_InternalArray__ICollection_Add_TisKeyframe_t4206410242_m442111799_gshared
X4g:_List_1_CheckMatch_m3263549496_gshared
yH:__ZN13AudioListener8DoUpdateEv
gGd:_Int32_GetTypeCode_m1648562395_AdjustorThunk
Qzd:__Z13bankers_roundd
Zdb:__ZN14SafeBinaryRead8TransferI5RectTIfEEEvRT_PKc17TransferMetaFlags
ri:_emscripten_glGenFramebuffers
Kfa:__ZN17BaseObjectManager16StaticInitializeEPv
S4f:_List_1_CheckCollection_m2602703205_gshared
Erc:__Z18Transfer_BlittableI9JSONWriteLb0EyEvRK29SerializationCommandArgumentsR31RuntimeSerializationCommandInfo
r_a:__ZN13RenderTexture15ThreadedCleanupEv
Lcf:_X509BasicConstraintsExtension__ctor_m3721156175
I1a:__ZN12CubemapArray23VirtualRedirectTransferER14SafeBinaryRead
lu:__ZN21AnimationClipPlayable16ProcessHumanPassEPK35AnimationPlayableEvaluationConstantPK32AnimationPlayableEvaluationInputP33AnimationPlayableEvaluationOutput
HId:_Path_GetFileName_m1354558116
n4e:_BitConverterLE_ToDouble_m1601000678
bEj:_emscripten_glUniform3i__wrapper
rug:_Rect_Contains_m1232228501_AdjustorThunk
jic:__Z43RectTransform_CUSTOM_INTERNAL_set_sizeDeltaP12Il2CppObjectRK13Vector2fIcall
EGd:_Int64_System_IConvertible_ToType_m3223988955_AdjustorThunk
bcj:__ZN15dense_hashtableINSt3__24pairIK10KeyWrapperINS1_IPKcS4_EEEiEES6_24NamespaceAndNamePairHashN14dense_hash_mapIS6_iS9_NS6_14EqualsComparerI26NamespaceAndNamePairEqualsEENS0_9allocatorIS8_EEE9SelectKeyESD_SF_E6insertERKS8_
Z5:__ZN24GenerateTypeTreeTransfer18BeginArrayTransferEPKcS1_Ri17TransferMetaFlags
o3h:_Array_InternalArray__get_Item_TisPlayableBinding_t354260709_m3837494573_gshared
om:___syscall51
rmc:__Z26BeforeDomainReloadCallbackv
epi:_MatchCollection_get_FullList_m1829231879
sm:___syscall54
rnd:_Array_GetValue_m2528415604
zvg:_Transform_INTERNAL_CALL_TransformPoint_m4261269221
MGf:_Guid_AppendShort_m791023083
r5g:_List_1__ctor_m4212503576_gshared
aoa:__ZN9ShaderLab9SubShader19CreateFromSubShaderERKS0_
kAc:_cff_builder_add_point1
kdj:__ZN6il2cpp2vm5Image21GetCachedResourceDataEPK11Il2CppImageRKNSt3__212basic_stringIcNS5_11char_traitsIcEENS5_9allocatorIcEEEE
iob:__Z18Transfer_BlittableI14SafeBinaryReadLb0E10ColorRGBAfEvRK29SerializationCommandArgumentsR31RuntimeSerializationCommandInfo
za:invoke_iiiiiiiiii
MP:__ZN11AudioSource25GetNumExtensionPropertiesEv
APf:_Array_InternalArray__ICollection_CopyTo_TisUILineInfo_t4195266810_m104406798_gshared
Isd:_Char_ToLowerInvariant_m1926695830
Hlg:_Debug_LogErrorFormat_m3558239521
$9c:_Graphic_get_canvas_m3320066409
AQe:_InputField_ActivateInputFieldInternal_m3360893886
dG:__ZN4FMOD7SystemI11createSoundEPKcjP22FMOD_CREATESOUNDEXINFOPPNS_5SoundE
Q$b:__ZN10FileSystem19SetCurrentDirectoryERKN4core12basic_stringIcNS0_20StringStorageDefaultIcEEEE
Pkg:_Component_get_gameObject_m442555142
NOd:_Math_Log_m2526073084
Oec:__Z47Register_UnityEngine_Coroutine_ReleaseCoroutinev
jI:__ZN15AudioReverbZone13SetFMODValuesEv
IZ:__ZN14SafeBinaryRead4InitERK16TypeTreeIteratorxx24TransferInstructionFlags10MemLabelId
Vga:__ZL19StaticDestroyShaderPv
ae:_glRenderbufferStorageMultisample
B8b:__ZN8Playable4PlayEv
iyd:_SyncHashtable_Clone_m3726939774
$y:__ZN23AnimationPlayableOutput17SetTargetAnimatorEP8Animator
$sc:__ZN9JSONWrite8TransferI13dynamic_arrayIN4math12int3_storageELj4EEEEvRT_PKc17TransferMetaFlags
wQb:__ZN22MotionVectorRenderLoopD2Ev
Jlg:_Debug_LogException_m2207318968
xNf:_Array_InternalArray__ICollection_Add_TisClientCertificateType_t1004704908_m2622721177_gshared
Bs:__ZN17PackedFloatVector8TransferI18StreamedBinaryReadILb0EEEEvRT_
J2a:__ZN7Cubemap23VirtualRedirectTransferER17RemapPPtrTransfer
Okc:__Z37Register_UnityEngine_Screen_get_widthv
uui:_Uri_get_Authority_m3816772302
Q9b:__ZN22BlockMemoryCacheWriter11GetPathNameEv
ecf:_X509BasicConstraintsExtension__ctor_m1244152959
Dxg:_Touch_get_position_m3109777936
f2d:_ParameterInfo__ctor_m3269320476
Mff:_X509SubjectKeyIdentifierExtension_FromHexChars_m3244835916
cpf:_Single_CompareTo_m2785801815
Uli:_PKCS12_MAC_m3355614022
_o:stackAlloc
gfc:__Z44Camera_CUSTOM_INTERNAL_CALL_ScreenPointToRayP12Il2CppObjectRK8Vector3fR3Ray
iPa:__ZN25SingleBlockMemoryFileData4LockEPPv
IHj:_glProgramParameteri__wrapper
DZ:__ZN17PersistentManager23PostReadActivationQueueEiPK8TypeTreeb
Lgc:__Z32RectOffset_Get_Custom_PropBottomP12Il2CppObject
Dlg:_Debug_LogError_m2850623458
Bhh:_Collection_1_CheckWritable_m3225530705_gshared
gIj:_emscripten_glGetObjectParameterivARB__wrapper
awj:_stat
s4:__ZN9ShaderLab10SubProgram7CompileEv
zIb:__ZN15InstancingProps14CombineBuiltinEN10Instancing11BuiltinPropES1_S1_
b_d:_PropertyBuilder_get_CanRead_m3783190070
r0:__ZN14SerializedFile14SerializedTypeD2Ev
ENf:_Array_InternalArray__ICollection_Add_TisKeyValuePair_2_t3699644050_m4052349323_gshared
Vae:_CipherSuiteCollection_System_Collections_IList_get_Item_m2175128671
eSa:__ZN6CameraD2Ev
la:invoke_iiiiiiiiiiii
suf:_DateTime_System_IConvertible_ToType_m1242864300_AdjustorThunk
Dre:_InternalEnumerator_1_get_Current_m2446410893_AdjustorThunk
dWa:__Z29CalculateDefaultChannelsToAdd17ShaderChannelMaskS_
JRa:__ZN10TagManager13RegisterLayerEjRKN4core12basic_stringIcNS0_20StringStorageDefaultIcEEEE
mIa:__ZNSt3__26__treeI20DeviceBlendStateGLES14MemoryCompLessI16DeviceBlendStateENS_9allocatorIS1_EEE7destroyEPNS_11__tree_nodeIS1_PvEE
HIi:_CanvasRenderer_SetMaterial_m633746949
fL:__ZN10AudioMixer12RebindOutputEv
X5i:__ZNK15dense_hashtableINSt3__24pairIK10KeyWrapperIP11Il2CppClassES4_EES5_N6il2cpp8metadata16SZArrayClassHashEN14dense_hash_mapIS5_S4_SA_NS5_14EqualsComparerINS9_19SZArrayClassCompareEEENS0_9allocatorIS7_EEE9SelectKeyESE_SG_E5beginEv
ETe:_LayoutRebuilder_PerformLayoutControl_m4241054021
ILi:__ZN6il2cpp2vm17SetupFieldsLockedEP11Il2CppClassRKNS_2os12FastAutoLockE
lHb:__ZNK9GfxDevice20IsViewportFullscreenEv
$Ca:__ZN18GlslGpuProgramGLES13SwitchProgramEj
WPa:__ZN20ArchiveStorageReaderC2E10MemLabelId
uCg:__Z132RuntimeInvoker_Int32_t2950945753_RuntimeObject_Int32_t2950945753_Int32_t2950945753_RuntimeObject_Int32_t2950945753_Int32_t2950945753PFvvEPK10MethodInfoPvPS4_
Bmb:__ZN16MemoryFileSystem4NameEv
Bof:_Single_System_IConvertible_ToBoolean_m1716619219_AdjustorThunk
Jkc:__Z13SetCopyBufferRKN4core12basic_stringIcNS_20StringStorageDefaultIcEEEE
ski:_TlsException__ctor_m818940807
hkd:_X509CertificateEnumerator_System_Collections_IEnumerator_get_Current_m418791713
JKc:_UNITY_FT_New_Size
cdc:__Z42ScriptingGetComponentsOfTypeFromGameObjectRK26ScriptingGetComponentsArgs
zLh:__ZL73ArgumentCache_t2187958399_CustomAttributesCacheGenerator_m_ObjectArgumentP21CustomAttributesCache
W0h:_Array_swap_TisRaycastResult_t3360306849_TisRaycastResult_t3360306849_m3400922624_gshared
HAi:_AudioListener_ReadExtensionName_m929423100
Tfd:_CspParameters__ctor_m2741097571
R0a:__ZNSt3__27__sort4IRPFbRKNS_4pairIN9ShaderLab16FastPropertyNameEN18UnityPropertySheet11UnityTexEnvEEES8_EPS6_EEjT0_SD_SD_SD_T_
izc:_cf2_hintmap_build
nxg:_Texture_get_width_m888163864
rIc:_Line_Up
Yzb:__Z29Transfer_Blittable_ArrayFieldI18StreamedBinaryReadILb1EExEvRT_R9ArrayInfoRK23StaticTransferFieldInfo
he:_emscripten_glBufferSubData
arf:_String_ReplaceUnchecked_m1381393810
fue:_DefaultComparer_Compare_m3278268937_gshared
Rp:__Z17CalculateGlobalRS23TransformAccessReadOnly
Fqj:__ZNSt3__210__list_impIPN6il2cpp5utils10MemoryPool6RegionENS_9allocatorIS5_EEE5clearEv
krb:__ZN14SafeBinaryRead21TransferSTLStyleArrayI13dynamic_arrayI9BoundsIntLj4EEEEvRT_17TransferMetaFlags
Tib:__ZN22MemoryCacherReadBlocks14LockCacheBlockEjPPhS1_
hXi:__ZN6il2cpp2vm14TypeNameParser17ParseAssemblyNameEv
o9a:__ZNK9GfxDevice26GetSinglePassStereoEyeMaskEv
Slg:_DebugLogHandler_Internal_Log_m4175774469
Nkj:__ZN4utf88internal15increase_safelyIPKcEENS0_9utf_errorERT_S5_
JLi:__ZN6il2cpp2vmL21SetupPropertiesLockedEP11Il2CppClassRKNS_2os12FastAutoLockE
YJc:__ZN20TextRenderingPrivate8FontImpl16CacheFontForTextEPtiifjPK13dynamic_arrayINS_16TextFormatChangeELj4EE
Tsd:_CharEnumerator_get_Current_m525608209
Q_c:__Z21ArrayElementTypeCheckP11Il2CppArrayPv
NGj:_emscripten_glTexSubImage2D__wrapper
kAf:_StackTrace_init_frames_m641783388
ycf:_PublicKey_DecodeRSA_m1824703659
Uxj:__ZNSt3__212basic_stringIcNS_11char_traitsIcEENS_9allocatorIcEEE6appendEjc
PCb:__Z13TransferFieldI18StreamedBinaryReadILb0EELb0E16Converter_StringEvRK23StaticTransferFieldInfoR31RuntimeSerializationCommandInfoRT1_
xSc:__Z42Register_UnityEngine_Canvas_get_rootCanvasv
Ptd:_ArrayListWrapper_set_Item_m3849584877
Qe:_TTF_RenderText_Solid
m3f:_List_1__ctor_m3947764094_gshared
lti:_Parser_IsIgnorePatternWhitespace_m2107132682
K9e:_HttpRequestCreator_Create_m400548686
bXc:__ZN11UnityEngine7Connect16PersistentValuesC2Ev
Kai:_ReadOnlyCollection_1_System_Collections_IList_Insert_m134149130_gshared
irc:__Z18Transfer_BlittableI9JSONWriteLb0E5RectTIiEEvRK29SerializationCommandArgumentsR31RuntimeSerializationCommandInfo
j2e:_BigInteger_get_Rng_m4216817480
ryc:_cf2_getStdVW
CIf:_Array_InternalArray__ICollection_Remove_TisDateTime_t3738529785_m2250893026_gshared
rDa:__Z15IsIEEE754Format14GraphicsFormat
etb:__Z19TransferField_ArrayI17RemapPPtrTransfer27Converter_UnityEngineObjectEvRK23StaticTransferFieldInfoR31RuntimeSerializationCommandInfoRT0_
Za:invoke_iifiii
Gwd:_KeyNotFoundException__ctor_m541499307
YJf:_SetPropertyUtility_SetStruct_TisSpriteState_t1362986479_m665096788_gshared
QCg:__Z61RuntimeInvoker_Single_t1397266774_RuntimeObject_RuntimeObjectPFvvEPK10MethodInfoPvPS4_
IIf:_Array_InternalArray__ICollection_Remove_TisIntPtr_t_m3807208150_gshared
zPg:__Z71RuntimeInvoker_Void_t1185182177_Vector3_t3722313464_Vector3_t3722313464PFvvEPK10MethodInfoPvPS4_
loe:_InternalEnumerator_1_get_Current_m2316281569_AdjustorThunk
vtf:_DateTime__ctor_m1095105629
_qa:__ZN13GfxDeviceGLES15UploadTexture2DE9TextureID16TextureDimensionPKhiii14GraphicsFormati18TextureUploadFlags16TextureUsageMode
$ui:_Event_Cleanup_m2477919477
bK:__ZN4FMOD6System9createDSPEP20FMOD_DSP_DESCRIPTIONPPNS_3DSPE
Yyh:__ZL87Thread_t2300836069_CustomAttributesCacheGenerator_Thread_GetCompressedStack_m2923422412P21CustomAttributesCache
cge:_SslClientStream_get_ClientCertificates_m998716871
bG:__ZN4FMOD8ChannelI11EndCallbackEv
mnc:__ZN8GUIStyle14SetDefaultFontEPN13TextRendering4FontE
q5a:__ZN15QualitySettings23VirtualRedirectTransferER24GenerateTypeTreeTransfer
GNe:_ObjectReader_ReadValue_m3145979203
X4c:_CanvasScaler_OnDisable_m3424669401
TWh:__ZL68Scrollbar_t1494447233_CustomAttributesCacheGenerator_m_NumberOfStepsP21CustomAttributesCache
tOi:__ZN30dense_hashtable_const_iteratorINSt3__24pairIK10KeyWrapperIPK19Il2CppGenericMethodEPK26Il2CppGenericMethodIndicesEES6_N6il2cpp8metadata23Il2CppGenericMethodHashEN14dense_hash_mapIS6_SA_SE_NS6_14EqualsComparerINSD_26Il2CppGenericMethodCompareEEENS0_9allocatorISB_EEE9SelectKeyESI_SK_EppEv
Xxc:_UNITY_FT_Request_Metrics
Yaj:__ZN6il2cpp6icalls8mscorlib6System10Reflection10MonoMethod29get_IsGenericMethodDefinitionEP22Il2CppReflectionMethod
r7i:__ZN6il2cpp2vm6Thread21AllocThreadStaticDataEi
STd:_Default_SelectMethod_m469311730
wog:_Input_get_mousePosition_m1616496925
Qn:FUNCTION_TABLE_difi
Jjj:__ZN30dense_hashtable_const_iteratorINSt3__24pairIK10KeyWrapperIPK19Il2CppGenericMethodEP10MethodInfoEES6_N6il2cpp8metadata23Il2CppGenericMethodHashEN14dense_hash_mapIS6_S9_SD_NS6_14EqualsComparerINSC_26Il2CppGenericMethodCompareEEENS0_9allocatorISA_EEE9SelectKeyESH_SJ_EppEv
Yfg:_UInt32_ToString_m2066897296_AdjustorThunk
ZO:__Z13RegisterClassI13AudioListenerEvv
pjb:__ZN24GenerateTypeTreeTransfer19TransferSTLStyleMapINSt3__23mapI4PPtrI6ShaderEN4core12basic_stringIcNS6_20StringStorageDefaultIcEEEENS1_4lessIS5_EENS1_9allocatorINS1_4pairIKS5_SA_EEEEEEEEvRT_17TransferMetaFlags
Xwd:_Enumerator_Reset_m4274366540
Hqc:__Z18Transfer_BlittableI9JSONWriteLb0E8Vector3fEvRK29SerializationCommandArgumentsR31RuntimeSerializationCommandInfo
Pf:_emscripten_glUniform4i
fCc:_otv_FeatureList_validate
$e:_emscripten_glUniform4f
yj:___unlock
nBc:_otv_validate
k_b:__ZN13sorted_vectorINSt3__24pairIN4core12basic_stringIcNS2_20StringStorageDefaultIcEEEES6_EEN10vector_mapIS6_S6_27compare_tstring_insensitiveIS6_E13stl_allocatorIS7_L18MemLabelIdentifier38ELi16EEE13value_compareESD_E9erase_oneIS6_EEjRKT_
bmf:_X509Certificate_Equals_m3784196370
f9g:_List_1__ctor_m3376067838_gshared
vM:__ZN20SoundChannelInstance19setReverbPropertiesEP29FMOD_REVERB_CHANNELPROPERTIES
s1f:_Enumerator_MoveNext_m1446151600_gshared
Rjf:_SHA1Internal_ProcessFinalBlock_m1403775421
qkc:__Z40Register_UnityEngine_Transform_IsChildOfv
QLe:_RemotingServices_GetOrCreateClientIdentity_m648299611
Fte:_InternalEnumerator_1_get_Current_m2356858238_AdjustorThunk
Wfc:__Z45Register_UnityEngine_Display_GetSystemExtImplv
q6e:_RSAManaged_ImportParameters_m1844641996
dwe:_Enumerator_System_Collections_IDictionaryEnumerator_get_Value_m3325938730_AdjustorThunk
lv:__ZN7mecanim9animation23TransformValuesFromClipEiiiRKNS_10ValueArrayERKNS0_10ClipOutputERKNS0_12ClipBindingsERS1_RNS_14ValueArrayMaskEb
LBe:_ValueCollection_System_Collections_ICollection_get_SyncRoot_m1114275063_gshared
tKi:__ZL17log2withScale_128yyi
CGf:_Guid_Equals_m1866984197
DOc:__ZNSt3__218__insertion_sort_3IRNS_6__lessIN2UI14DepthSortEntryES3_EEPS3_EEvT0_S7_T_
zSd:_PlatformNotSupportedException__ctor_m1787918017
Ida:__ZN13RuntimeStaticI15DirectorManagerLb0EE16StaticInitializeEPv
Q7h:_ReadOnlyCollection_1_System_Collections_ICollection_CopyTo_m2643246984_gshared
Lcb:__ZN11TimeManager6UpdateEv
i2f:_Enumerator_System_Collections_IEnumerator_get_Current_m209407522_gshared
Q4c:_CanvasScaler_get_fallbackScreenDPI_m2811935689
luf:_DateTimeFormatInfo_ReadOnly_m890935083
Nlj:__ZN6il2cpp2vm3CCW9CreateCCWEP12Il2CppObject
hwj:_fflush
I3:__ZN17LightProbeContext4InitERK16LightmapSettingsRK14RenderSettings
DTb:__ZN18DeferredRenderLoop14RenderLightingER21ActiveLightingContextP13RenderTexture9TextureIDPS3_iRK8Vector4fRK14LightingLayersR10MinMaxAABBb12ObjectHandleI17RenderSurface_TagP17RenderSurfaceBaseE
jwg:_SceneManager_Internal_ActiveSceneChanged_m3676176255
KAf:_Double_System_IConvertible_ToInt16_m3591921965
z8a:__ZN9Texture3DD2Ev
hih:_Collection_1_set_Item_m4280581817_gshared
gAd:_Convert_ToChar_m2796006345
DQf:_Array_InternalArray__Insert_TisContentType_t1787303396_m3566390691_gshared
iud:_ArrayListWrapper_GetEnumerator_m2336495952
VVb:__Z34ProcessIndexListIsNodeVisibleStep2RK22SceneCullingParametersPK9SceneNodePK4AABBR9IndexList
cFb:__ZN10MonoScriptD2Ev
nHa:__ZN19ConstantBuffersGLES8UpdateCBE5CbKeyPKvj
lAi:_AudioSource_get_spatializeInternal_m2117549793
ghc:__Z39Input_CUSTOM_INTERNAL_get_mousePositionP8Vector3f
nnd:_SimpleEnumerator__ctor_m353509656
UDc:_tt_cmap13_char_next
$Rh:__ZL117EventSystem_t1003666588_CustomAttributesCacheGenerator_EventSystem_t1003666588____lastSelectedGameObject_PropertyInfoP21CustomAttributesCache
Zna:__ZN9ShaderLab4Pass16SetupPassOptionsEv
dh:_JS_Sound_ReleaseInstance
Xpa:__ZN13GfxDeviceGLES19DrawBuffersIndirectEP9GfxBufferPK18VertexStreamSourceiP17VertexDeclaration17ShaderChannelMask16GfxPrimitiveType15ComputeBufferIDj
oGf:_Guid_CheckArray_m921056615
HFe:_ConfigHandler_ReadLifetine_m208994800
leg:_UInt16_System_IConvertible_ToByte_m3185614807_AdjustorThunk
Xtg:_Rect_get_max_m350137314_AdjustorThunk
Cm:FUNCTION_TABLE_diddi
E7i:__ZN6il2cpp6icalls8mscorlib6System5Array8FastCopyEP11Il2CppArrayiS5_ii
Aic:__Z26Material_CUSTOM_SetIntImplP12Il2CppObjectii
Ygc:__Z42Register_UnityEngine_RectOffset_get_bottomv
Kvj:_newlocale
lrb:__ZN9BoundsInt8TransferI14SafeBinaryReadEEvRT_
REj:_emscripten_glUniform1f__wrapper
Qzj:dynCall_di
Dmg:_BaseInvokableCall_AllowInvoke_m878393606
oqc:__Z28RegisterModule_JSONSerializev
Jjb:__ZN2UI13RectTransform8TransferI14SafeBinaryReadEEvRT_
Arc:__Z35Transfer_Blittable_FixedBufferFieldI9JSONWriteaEvRK29SerializationCommandArgumentsR31RuntimeSerializationCommandInfo
Wig:_Behaviour_get_enabled_m753527255
nbc:__Z20IsHumanControllingUsv
XAe:_Enumerator_MoveNext_m181298207_gshared
GW:__ZNK20DynamicHeapAllocatorI17LowLevelAllocatorE10GetPtrSizeEPKv
Oph:__ZL51TextInfo_t3810425522_CustomAttributesCacheGeneratorP21CustomAttributesCache
zMa:__ZN10systeminfo21GetPersistentDataPathEv
Kpa:__ZN13GfxDeviceGLES17DestroyGpuProgramEPK10GpuProgram
D_h:_Array_InternalArray__set_Item_TisRaycastResult_t3360306849_m730888808_gshared
Hnb:__Z44InitializeTransferFunctionScriptingTraitsForI18StreamedBinaryReadILb0EEEvR31TransferFunctionScriptingTraits
yAe:_Enumerator_System_Collections_IEnumerator_Reset_m53411943_gshared
ZRb:__ZNSt3__218__insertion_sort_3IR23CompareReflectionProbesP31RuntimeReflectionProbeBlendInfoEEvT0_S5_T_
otb:__ZN12NativeBufferI27Converter_SimpleNativeClassI8GradientEE15SetupForWritingER9ArrayInfo
R2e:_Kernel_RightShift_m2207393597
qga:__ZNSt3__213__stable_sortIRNS_4lessIN4core12basic_stringIcNS2_20StringStorageDefaultIcEEEEEENS_11__wrap_iterIPS6_EEEEvT0_SC_T_NS_15iterator_traitsISC_E15difference_typeEPNSF_10value_typeEi
YZh:__ZL48Shadow_t773074319_CustomAttributesCacheGeneratorP21CustomAttributesCache
k8:__ZN12_GLOBAL__N_113StaticDestroyEPv
CJj:_glUnmapBuffer__wrapper
gvc:__ZN8JSONRead21TransferSTLStyleArrayINSt3__26vectorI8Gradient13stl_allocatorIS3_L18MemLabelIdentifier1ELi16EEEEEEvRT_17TransferMetaFlags
gdb:__ZNSt3__218__insertion_sort_3IRNS_6__lessINS_4pairIPKN5Unity4TypeE7Hash128EES8_EEPS8_EEvT0_SC_T_
EPe:_InputField_set_onValueChanged_m3658917578
Yub:__ZN10RectOffset8TransferI24GenerateTypeTreeTransferEEvRT_
THd:_BinaryReader__ctor_m2266204403
Hae:__ZN21InterfaceFuncInvoker5IiP22ByteU5BU5D_t4116647657iiS1_iE6InvokeEjP11Il2CppClassP12Il2CppObjectS1_iiS1_i
$$f:_Enumerator_VerifyState_m3047769867_AdjustorThunk
iub:__Z18Transfer_BlittableI24GenerateTypeTreeTransferLb1E5RectTIiEEvRK29SerializationCommandArgumentsR31RuntimeSerializationCommandInfo
bnc:__ZN16GUIKeyboardStateD2Ev
nOc:__ZN2UI13CanvasManager19RemoveDirtyRendererEPNS_6CanvasEPNS_14CanvasRendererE
Muj:_isspace
nMe:_BinaryFormatter__ctor_m2620705134
TTc:__ZN11UnityEngine15PlatformWrapper25GetGraphicsRendererStringEv
r8f:_UTF7Encoding_InternalGetBytes_m797138468
nV:__ZN11UnityEngine15CloudWebService17WebFileDownloaderINS0_20WebRequestRestClientENS0_23WebRequestRestHeaderMapEED2Ev
Qb:invoke_vi
Lkd:_SmallXmlParser_HandleWhitespaces_m549588711
Psc:__ZN9JSONWrite8TransferI13dynamic_arrayI9BoundsIntLj4EEEEvRT_PKc17TransferMetaFlags
Ob:invoke_vd
pb:invoke_vf
api:_Regex_get_RightToLeft_m2317867572
r3:__ZNK10GameObject8IsActiveEv
Dfc:__Z34Component_Get_Custom_PropTransformP12Il2CppObject
GQh:__ZL67g_UnityEngine_PhysicsModule_Assembly_CustomAttributesCacheGeneratorP21CustomAttributesCache
QCa:__ZN18GfxFramebufferGLES23SetupDefaultFramebufferEPP17RenderSurfaceBaseS2_N2gl6HandleILNS3_10ObjectTypeE9EEE
H7c:_DefaultControls_CreateDropdown_m3286664171
u6a:__ZN13ScreenManager18RequestOrientationE17ScreenOrientation
fMi:__ZN6il2cpp2vm5Class12SetupMethodsEP11Il2CppClass
Dcc:__Z39DeleteLastPathNameComponentWithAnySlashRKN4core12basic_stringIcNS_20StringStorageDefaultIcEEEE
mmc:__ZN10GUIManager14InitGUIManagerEv
Neg:_UInt16_Equals_m642257745
Tmd:_Array_System_Collections_IList_IndexOf_m3301661616
pTd:_AssemblyFileVersionAttribute__ctor_m3720707642
j4d:_RuntimeResourceSet_CloneDisposableObjectIfPossible_m2725520898
voc:__Z37Register_UnityEngine_GUIStyle_Cleanupv
Ma:invoke_iiifii
a_e:_SliderEvent__ctor_m3149452941
djd:_DeriveBytes__cctor_m1212925033
pad:_Graphic_OnDisable_m1097930217
WUi:__ZN6il2cpp6icalls8mscorlib6System8MonoType13IsPointerImplEP20Il2CppReflectionType
Qi:_emscripten_glFramebufferRenderbuffer
IUb:__ZN19CullingGroupManager17CullAndSendEventsERK22SceneCullingParametersiRK13CullingOutputRK8JobFence
gRa:__ZN9Transform30EnsureTransformHierarchyExistsEv
Lcg:_Type_FilterName_impl_m2651733559
Hnd:_Array_GetValue_m116098292
xec:__Z46Register_UnityEngine_Application_get_isPlayingv
_Zb:__ZNSt3__26vectorINS_4pairIN4core12basic_stringIcNS2_20StringStorageDefaultIcEEEEPK17MessageIdentifierEENS_9allocatorISA_EEE12__move_rangeEPSA_SE_SE_
hOb:__ZN14qsort_internal17MedianOfThreeSwapIP17RODataReplacement19ROSorterReplacementEEvT_S4_S4_T0_
bqf:_String_Split_m3646115398
Xug:_RectOffset_ToString_m2007443979
XKi:__ZNK15dense_hashtableINSt3__24pairIK10KeyWrapperIPK22Il2CppGenericParameterEP11Il2CppClassEES6_N6il2cpp5utils11PointerHashIS4_EEN14dense_hash_mapIS6_S9_SE_NS6_14EqualsComparerINS0_8equal_toIS5_EEEENS0_9allocatorISA_EEE9SelectKeyESJ_SL_E3endEv
zcc:__ZN17TransformInternal36OnScaleChangedCalculateTransformTypeE15TransformAccess
lNa:__ZN17ArchiveFileSystem10ToAbsoluteEPKc
FUc:__ZN19UnityConnectService15GetPlayerUserIdEv
NMf:_Array_InternalArray__IndexOf_TisSByte_t1669577662_m4156538463_gshared
ir:__ZN7mecanim6CRCKeyENS_7eStringE
hac:__ZL12SetPrefValueRKN4core12basic_stringIcNS_20StringStorageDefaultIcEEEERK9PrefValue
b9a:__ZN19ShaderPropertySheet20ReservePropertyCountEj
tkj:__ZN6il2cpp5utils11StringUtils6PrintfEPKcz
l6i:__ZNSt3__26vectorIN6il2cpp8metadata18GenericArrayMethodENS_9allocatorIS3_EEE7reserveEj
Dma:__ZN15NameToObjectMapI6ShaderNSt3__23mapI4PPtrIS0_EN4core12basic_stringIcNS5_20StringStorageDefaultIcEEEENS1_4lessIS4_EENS1_9allocatorINS1_4pairIKS4_S9_EEEEEENS1_8multimapIS9_S4_NSA_IS9_EENSC_INSD_IKS9_S4_EEEEEEE4FindERSK_
g2a:__ZN24GenerateTypeTreeTransfer21TransferResourceImageE19ActiveResourceImagePKcR13StreamingInfoPvjiPKN5Unity4TypeE
G0h:_Array_Sort_TisVector3_t3722313464_m1030213405_gshared
Nfj:__ZN6il2cpp2vm6Object5CloneEP12Il2CppObject
esj:__ZN6il2cpp6icalls8mscorlib6System9Threading5Mutex20CreateMutex_internalEbP12Il2CppStringPb
YIj:_emscripten_glLinkProgram__wrapper
clg:_Coroutine_Finalize_m1957108547
Rxi:_KeyBuilder_Key_m2503211157
JXa:__ZNSt3__212__deque_baseI18ReflectionProbeJobNS_9allocatorIS1_EEED2Ev
Ez:__ZN11UnityEngine9Animation27DestroyAnimationSetBindingsEPNS0_20AnimationSetBindingsERN7mecanim6memory9AllocatorE
mia:__ZN15dense_hashtableINSt3__24pairIKiN4core17string_with_labelILi1EEEEEi18SInt32HashFunctionN14dense_hash_mapIiS5_S7_NS0_8equal_toIiEE13stl_allocatorIS6_L18MemLabelIdentifier1ELi16EEE9SelectKeyESA_SD_E13set_empty_keyERKS6_
Skg:_Component_GetComponentInChildren_m388868270
NZf:_GenericEqualityComparer_1_Equals_m1705889345_gshared
mE:__ZN8Animator12CleanupClassEv
evc:__Z13TransferFieldI8JSONReadLb0E27Converter_SimpleNativeClassI10RectOffsetEEvRK23StaticTransferFieldInfoR31RuntimeSerializationCommandInfoRT1_
G9e:_FtpWebRequest__cctor_m699542155
ndj:__GLOBAL__sub_I_GenericMetadata_cpp
F8e:_NameObjectCollectionBase_GetEnumerator_m3677320185
wVb:__Z24CalculateSpotLightBoundsffRK10Matrix4x4fR15SpotLightBounds
NDe:_Dictionary_2_TryGetValue_m3495031886_gshared
AZa:__ZNK13RenderTexture21GetShadowSamplingModeEv
wR:__ZN23CloudWebServicesManager23VirtualRedirectTransferER14SafeBinaryRead
H7e:_PKCS12_AddCertificate_m3857004455
KEb:__Z19ShouldTransferFieldR32SerializationCommandQueueBuilder17ScriptingClassPtriR18TransferField_InfoRK20CoreScriptingClasses
tnf:_SecurityElement_IsValidText_m1346599242
NHa:__ZN26SinglePassStereoSupportExt21SetStereoMatrixCommonE21MonoOrStereoscopicEye24BuiltinShaderMatrixParamRK10Matrix4x4f
LK:__ZN5audio5mixer22UpdateAudioMixerMemoryERKNS0_18AudioMixerConstantERNS0_16AudioMixerMemoryEfPN4FMOD6SystemEf
ixc:__ZL21InitializeCachedStripPv
uRf:_Dictionary_2_System_Collections_Generic_ICollectionU3CSystem_Collections_Generic_KeyValuePairU3CTKeyU2CTValueU3EU3E_Add_m3652125112_gshared
z8i:__ZN6il2cpp6icalls8mscorlib6System9Threading6Thread23GetCachedCurrentCultureEP12Il2CppThread
iY:__ZNK6Camera22GetWorldToCameraMatrixEv
$yj:runPostSets
bgj:__ZN6il2cpp2vm12GenericClass11IsValueTypeEP18Il2CppGenericClass
FDb:__ZN13MonoBehaviour7SetNameEPKc
WJe:_MethodDictionary_IsOverridenKey_m946843558
gKd:_FileStream_BeginRead_m2419864669
Hii:_U3CStartU3Ec__Iterator0_MoveNext_m4270440387_gshared
PPi:__ZN10KeyWrapperIN6il2cpp5utils13dynamic_arrayIPK10Il2CppTypeLj4EEEEC2ERKS7_
AIb:__ZN17InstancingBatcher22FindCBUpperBoundKonstsEv
Y7:__GLOBAL__sub_I_runtime_shaders_shaderimpl_0_cpp
Egb:__ZN18AwakeFromLoadQueue5ClearEv
EKd:_FileStream_SetLength_m99749826
ZTb:__ZNSt3__27__sort5IR15ReflProbeSorterPP15ReflectionProbeEEjT0_S6_S6_S6_S6_T_
vea:__ZN8Playable10DisconnectEPS_i
uk:_glGenTransformFeedbacks
bMa:__ZN13LoadOperationD2Ev
qDd:_Int16_System_IConvertible_ToType_m3672347013
Cdg:_Type_GetProperty_m4206634422
sld:_AttrListImpl_GetValue_m3657391095
vHb:__Z21PlayerStartFirstSceneb
N9g:_List_1_CheckIndex_m3933537097_gshared
S0a:__ZNSt3__27__sort5IRPFbRKNS_4pairIN9ShaderLab16FastPropertyNameEN18UnityPropertySheet11UnityTexEnvEEES8_EPS6_EEjT0_SD_SD_SD_SD_T_
bva:__ZNK7ApiGLES18GetExtensionStringEv
m9g:_List_1_System_Collections_IList_IndexOf_m2444653486_gshared
SEj:_emscripten_glVertexAttrib1f__wrapper
Kkb:__ZNK12HandlerChain4SizeERK13FileEntryData
Yo:FUNCTION_TABLE_iiiiiiiii
n8h:_ReadOnlyCollection_1_System_Collections_Generic_ICollectionU3CTU3E_Remove_m4177779688_gshared
ysd:_Char_IsLetter_m3996985877
Dah:_Queue_1_Peek_m2302800625_gshared
Blh:__ZL51Delegate_t1188392813_CustomAttributesCacheGeneratorP21CustomAttributesCache
dnj:_GC_allochblk
Ogb:__Z15UnloadGameScenev
tPf:_Array_InternalArray__ICollection_CopyTo_TisKeyframe_t4206410242_m2132255743_gshared
xJj:_glCheckFramebufferStatus__wrapper
Xbd:_Image__ctor_m2551076292
ECe:_Dictionary_2_System_Collections_ICollection_CopyTo_m3143696177_gshared
PEg:__Z103RuntimeInvoker_Void_t1185182177_Int32_t2950945753_Int32_t2950945753_Int32_t2950945753_SByte_t1669577662PFvvEPK10MethodInfoPvPS4_
Ukc:__Z36Renderer_Get_Custom_PropSortingOrderP12Il2CppObject
RZi:__ZNK15dense_hashtableINSt3__24pairIK10KeyWrapperIPK10Il2CppTypeEjEES6_N6il2cpp8metadata14Il2CppTypeHashEN14dense_hash_mapIS6_jSB_NS6_14EqualsComparerINSA_26Il2CppTypeEqualityComparerEEENS0_9allocatorIS8_EEE9SelectKeyESF_SH_E13find_positionERS7_
qZa:__ZN7Texture5ResetEv
Ktb:__Z18Transfer_BlittableI24GenerateTypeTreeTransferLb0E8Vector2fEvRK29SerializationCommandArgumentsR31RuntimeSerializationCommandInfo
ZGe:_Context_get_HasDynamicSinks_m3952434387
H6f:_Latin1Encoding_GetByteCount_m1145650505
ztb:__Z18Transfer_BlittableI24GenerateTypeTreeTransferLb1EhEvRK29SerializationCommandArgumentsR31RuntimeSerializationCommandInfo
Nmc:__ZN8GUIState18CycleKeyboardFocusERNSt3__26vectorIP6IDListNS0_9allocatorIS3_EEEEb
tAb:__Z13TransferFieldI18StreamedBinaryReadILb1EELb0E16Converter_StringEvRK23StaticTransferFieldInfoR31RuntimeSerializationCommandInfoRT1_
eec:__ZNK16TypeTreeIterator10ByteOffsetEv
jAj:dynCall_iiifii
rda:__ZnwjRKSt9nothrow_t
OC:__ZN8Animator11ClearObjectEv
Wdi:_Nullable_1_GetHashCode_m4232053575_gshared
mmd:_ApplicationException__ctor_m2557611022
L$a:__ZN14SafeBinaryRead19TransferSTLStyleMapINSt3__23mapI39DeprecatedFastPropertyNameSerializationN18UnityPropertySheet11UnityTexEnvENS1_4lessIS3_EENS1_9allocatorINS1_4pairIKS3_S5_EEEEEEEEvRT_17TransferMetaFlags
R6g:_List_1_CheckMatch_m579516778_gshared
wqd:_Buffer_ByteLengthInternal_m1388208719
VOf:_Array_InternalArray__ICollection_CopyTo_TisInt64_t3736567304_m2845057751_gshared
$dc:__Z35UnregisterSerializationCacheBuilderPFv17ScriptingClassPtrR23CachedSerializationDataRbE
IGd:_Int64_System_IConvertible_ToUInt32_m109903525_AdjustorThunk
$3:__Z30GetBuiltinVectorParamArraySize24BuiltinShaderVectorParam
zPf:_Array_InternalArray__ICollection_CopyTo_TisUICharInfo_t75501106_m4268526610_gshared
jZa:__ZN13RenderTextureC2E10MemLabelId18ObjectCreationMode
GDd:_Int32_GetFormatException_m519586683
dyh:__ZL46StringBuilder_t_CustomAttributesCacheGeneratorP21CustomAttributesCache
E$f:_Enumerator_MoveNext_m1131351993_gshared
GSd:_RankException__ctor_m2226473861
x3h:_Array_InternalArray__get_Item_TisVector2_t2156229523_m2502961026_gshared
z6:__ZN21RendererUpdateManager11AddRendererER8Renderer
I2b:__Z13RegisterClassI15ResourceManagerEvv
bBi:_AudioConfigurationChangeHandler_Invoke_m1233557945
qob:__Z35Transfer_Blittable_FixedBufferFieldI14SafeBinaryReadsEvRK29SerializationCommandArgumentsR31RuntimeSerializationCommandInfo
eab:__ZN14SafeBinaryRead21TransferSTLStyleArrayI13dynamic_arrayIfLj4EEEEvRT_17TransferMetaFlags
kAd:_Convert_ToDateTime_m3802186295
ukj:__ZN6il2cpp5utils11StringUtils11Utf16ToUtf8EPKDs
nfb:__ZN18StreamedBinaryReadILb0EE21TransferSTLStyleArrayINSt3__26vectorIN15ResourceManager10DependencyE13stl_allocatorIS5_L18MemLabelIdentifier52ELi16EEEEEEvRT_17TransferMetaFlags
Ggg:_UInt64_CompareTo_m1614517204_AdjustorThunk
iUc:__ZN11UnityEngine15PlatformWrapper20IsRootedOrJailbrokenEv
eLb:__ZZ23InitPlayerLoopCallbacksvEN52PreLateUpdateScriptRunBehaviourLateUpdateRegistrator7ForwardEv
rVb:__Z33IntersectAABBPlaneBoundsOptimizedRK4AABBPKN4math7_float4Ei
$pa:__ZN9GfxDevice19EndGeometryJobFrameEv
Nvi:_GUILayoutUtility_Layout_m1159951704
NOe:_InputField_get_shouldActivateOnSelect_m3055465770
ttb:__ZN27Converter_SimpleNativeClassI17AnimationCurveTplIfEE17ScriptingToNativeER18ScriptingObjectPtrPS1_
Kcg:_Type__cctor_m2371893800
Rsj:__ZN6il2cpp8metadata24Il2CppGenericInstCompare7CompareERK10KeyWrapperIPK17Il2CppGenericInstES8_
qOi:__ZNK15dense_hashtableINSt3__24pairIK10KeyWrapperIPK19Il2CppGenericMethodEPK26Il2CppGenericMethodIndicesEES6_N6il2cpp8metadata23Il2CppGenericMethodHashEN14dense_hash_mapIS6_SA_SE_NS6_14EqualsComparerINSD_26Il2CppGenericMethodCompareEEENS0_9allocatorISB_EEE9SelectKeyESI_SK_E5beginEv
T$c:_ExecuteEvents_Execute_m3049310229
xt:__ZN27AnimationLayerMixerPlayable21UpdateLayerParametersEv
bw:__ZN7mecanim9animation16CopyMotionOutputEPKNS0_18AnimationNodeStateEPS1_bbRKNS_6bitsetILj83EEE
R0b:__ZNK17AnimationCurveTplIfE8EvaluateEfPNS0_5CacheE
iKb:__Z31ManagerContextInitializeClassesv
w8h:_ReadOnlyCollection_1_System_Collections_IList_Contains_m2650112051_gshared
fHf:_Array_get_swapper_TisVector3_t3722313464_m1221246401_gshared
wFc:_UNITY_FT_List_Finalize
kPb:__Z20LightAttenuateApproxRKfS0_
p7:__ZN9Scripting30SetCachedPtrOnScriptingWrapperE18ScriptingObjectPtrP6Object
fhf:_RepeatContext_get_IsMinimum_m3640286252
pOe:_ObjectRecord_ChainFixup_m1889316362
MUa:__ZN18BlockRangeInternal16PopLastNodeIndexEP10BlockRangeji
Plj:__ZN6il2cpp2vm13CachedCCWBaseINS0_13ManagedObjectEE6AddRefEv
g3c:_TouchInputModule_UpdateModule_m2582897964
A9a:__ZN4MeshD0Ev
vZc:__ZL42RequestRecreateEyeTexturesBeforeNextUpdatev
HEa:__ZNK6Camera20IsCurrentlyRenderingEv
kv:__ZN21AnimationClipPlayable23ProcessRootMotionNoClipEPK35AnimationPlayableEvaluationConstantPK32AnimationPlayableEvaluationInputP33AnimationPlayableEvaluationOutput
aRc:__Z36CanvasRenderer_CUSTOM_SetPopMaterialP12Il2CppObjectS0_i
Hrc:__Z18Transfer_BlittableI9JSONWriteLb0EdEvRK29SerializationCommandArgumentsR31RuntimeSerializationCommandInfo
Lpf:_String_System_IConvertible_ToDouble_m3740733360
FSa:__ZN6Camera8TransferI19StreamedBinaryWriteILb0EEEEvRT_
axf:_DBNull_System_IConvertible_ToSByte_m3533624679
fvj:_wctomb
osd:_Char_CompareTo_m42489266
xYg:__Z67RuntimeInvoker_Void_t1185182177_Int32_t2950945753_Double_t594665363PFvvEPK10MethodInfoPvPS4_
jfc:__Z27Camera_CUSTOM_GetAllCamerasP11Il2CppArray
Wc:___cxa_rethrow
L2d:_ParameterInfo_GetCustomAttributes_m2376494592
ktc:__Z18Transfer_BlittableI8JSONReadLb1EhEvRK29SerializationCommandArgumentsR31RuntimeSerializationCommandInfo
had:_Graphic_get_canvasRenderer_m315509948
Reh:_Collection_1_System_Collections_IList_Contains_m3397768605_gshared
gQg:__Z90RuntimeInvoker_Void_t1185182177_Int64_t3736567304_Int32_t2950945753_RuntimeObject_IntPtr_tPFvvEPK10MethodInfoPvPS4_
YEj:_glBindRenderbuffer__wrapper
F1h:_Dictionary_2_Do_CopyTo_TisInt32_t2950945753_TisInt32_t2950945753_m3384108308_gshared
UEf:_CultureInfo_construct_internal_locale_from_name_m3254739477
Hfe:_RSASslSignatureDeformatter_VerifySignature_m1061897602
g6e:_RSAManaged_remove_KeyGenerated_m2046909903
nid:_RandomNumberGenerator_Create_m4162970280
eQf:_Array_InternalArray__Insert_TisLabelFixup_t858502054_m171542753_gshared
Zse:_InternalEnumerator_1_System_Collections_IEnumerator_get_Current_m3539708496_AdjustorThunk
ylb:__ZN20LocalFileSystemPosix4ReadER13FileEntryDatayyPvPy
ISb:__ZNSt3__211__sift_downIRN23ForwardShaderRenderLoop18RenderObjectSorterILb0EEEP21ForwardRenderPassDataEEvT0_S7_T_NS_15iterator_traitsIS7_E15difference_typeES7_
emf:_SecurityPermission__ctor_m1462427327
xBj:dynCall_iiiiiiffiiiiiiiiiffffiiii
VDb:__ZN13MonoBehaviour5DoGUIENS_13GUILayoutTypeEii
NEe:_ChannelData_get_ClientProviders_m594662942
rqi:_QuickSearch_GetChar_m1297698557
TKa:__ZNK12TLSAllocatorI14StackAllocatorE8ContainsEPKv
Ncb:__ZN11TimeManager8TransferI18StreamedBinaryReadILb0EEEEvRT_
fBg:__Z68RuntimeInvoker_Boolean_t97287965_Int16_t2552820387_SByte_t1669577662PFvvEPK10MethodInfoPvPS4_
zvf:_DateTime__ParseEnum_m253019513
oCd:_Convert_ToUInt32_m2194577773
O6:__ZN15dense_hashtableINSt3__24pairIKyP17VertexDeclarationEEy14GfxGenericHashIyEN14GfxDoubleCacheIyS4_S7_NS0_8equal_toIyEEN31GfxDoubleCacheConcurrencyPolicy11LocklessGetE42GfxDoubleCacheDefaultEmptyDeletedGeneratorIyEE9SelectKeyESA_13stl_allocatorIS5_L18MemLabelIdentifier24ELi16EEE12resize_deltaEjj
pxd:_Hashtable_Remove_m4032631466
puc:__Z18Transfer_BlittableI8JSONReadLb1EyEvRK29SerializationCommandArgumentsR31RuntimeSerializationCommandInfo
U1a:__ZN7Texture25ReloadFromStorageIfNeededEPvb
hMf:_Array_InternalArray__IndexOf_TisBoolean_t97287965_m1161209222_gshared
Irj:__ZN6il2cpp2os12Cryptography24OpenCryptographyProviderEv
Wud:_SynchronizedArrayListWrapper_Clear_m2191301493
yGc:_Update_Max
N7i:__ZN6il2cpp6icalls8mscorlib6SystemL15ThrowNoWideningEv
a1b:__ZNK23TransformChangeDispatch24GetChangeMaskForInterestENS_12InterestTypeE
C8b:__ZN8Playable5PauseEv
Wjc:__Z45Transform_CUSTOM_INTERNAL_CALL_TransformPointP12Il2CppObjectRK8Vector3fRS1_
eYd:_GenericTypeParameterBuilder_InvokeMember_m1647304778
Ubd:_HorizontalOrVerticalLayoutGroup_set_childControlWidth_m3261460516
a0a:__ZNSt3__26__treeINS_12__value_typeI39DeprecatedFastPropertyNameSerializationfEENS_19__map_value_compareIS2_S3_NS_4lessIS2_EELb1EEENS_9allocatorIS3_EEE7destroyEPNS_11__tree_nodeIS3_PvEE
sEc:_tt_cmap4_char_index
P3c:_AspectRatioFitter_GetParentSize_m3159144324
oof:_SecurityFrame_get_Assembly_m2874566710
cah:_Enumerator_System_Collections_IEnumerator_Reset_m1487823313_gshared
Ukb:__ZNK12HandlerChain8IsHiddenERK13FileEntryData
Jsb:__ZL26Transfer_SimpleNativeClassI17RemapPPtrTransfer10RectOffsetLb0EEvRK29SerializationCommandArgumentsR31RuntimeSerializationCommandInfo
sLc:__Z14ValidateFormatR13dynamic_arrayIN20TextRenderingPrivate16TextFormatChangeELj4EE
fGd:_Int32_ToString_m2507389746_AdjustorThunk
jzf:_Decimal_op_Explicit_m438967917
PJi:_AnimatorControllerPlayable_SetHandle_m2260644454_AdjustorThunk
Gja:__ZNSt3__26vectorIN9ShaderLab20SerializedSubProgram13BufferBindingENS_9allocatorIS3_EEEC2ERKS6_
yPe:_InputField_set_selectionColor_m2084640295
X3:__ZNK9ShaderLab20ShaderBlendStateDesc15ToGfxBlendStateEPK19ShaderPropertySheetS3_R13GfxBlendState
iz:__ZN11UnityEngine9AnimationL22GenericBindingCallbackEPvS1_i
dGc:_Compute_Point_Displacement
foa:__ZN9ShaderLab9IntShaderC2Ev
bVi:__ZN6il2cpp6icalls8mscorlib6SystemL9IsPrivateEPK9EventInfo
zrj:__ZN6il2cpp6icalls8mscorlib6System10Reflection4Emit11TypeBuilder20setup_internal_classEP27Il2CppReflectionTypeBuilderS7_
Sac:__Z18TransformPoints3x4RK10Matrix4x4fPK8Vector3fjPS2_ji
GMf:_Array_InternalArray__IndexOf_TisILTokenInfo_t2325775114_m2602704009_gshared
w7f:_StringBuilder_AppendFormat_m3255666490
vSd:_OverflowException__ctor_m4029085969
V_d:_TypeBuilder_GetGenericArguments_m2872156836
HKi:__ZN13Il2CppHashMapIPK22Il2CppGenericParameterP11Il2CppClassN6il2cpp5utils11PointerHashIS1_EENSt3__28equal_toIS2_EENS9_9allocatorINS9_4pairIK10KeyWrapperIS2_ES4_EEEEEC2EjRKS8_RKSB_
v5e:_KeyPairPersistence_Remove_m1876145547
BMa:__Z15CreateDirectoryRKN4core12basic_stringIcNS_20StringStorageDefaultIcEEEE
yYa:__Z21CalculateGlobalMatrix23TransformAccessReadOnly
W_d:_TypeBuilder_GetGenericTypeDefinition_m1632720438
uHf:_Array_InternalArray__ICollection_Contains_TisLink_t544317964_m163190451_gshared
qwf:_DateTimeOffset_System_IComparable_CompareTo_m176229495_AdjustorThunk
fpg:_ManagedStreamHelpers_ValidateLoadFromStream_m580138133
Scb:__ZNK13BuildSettings22GetTypeVirtualInternalEv
T7g:_List_1_CheckIndex_m2250397830_gshared
G2b:__Z13RegisterClassI14RenderSettingsEvv
z:tempBigIntI
Ehf:_Interval_get_Empty_m3617514670
bTd:_Assembly_GetName_m981771927
zx:__ZN7mecanim12statemachine24CreateStateMachineOutputEPKNS0_20StateMachineConstantEjRNS_6memory9AllocatorE
$fj:__ZN6il2cpp2vm12GenericClass8GetClassEP18Il2CppGenericClass
Aqa:__ZNK9GfxDevice27GetActiveRenderSurfaceWidthEv
PTh:__ZL114StandaloneInputModule_t2760469101_CustomAttributesCacheGenerator_StandaloneInputModule_ForceAutoSelect_m2837047882P21CustomAttributesCache
VTc:__ZN11UnityEngine15PlatformWrapper28GetCleanGraphicsFixedVersionEv
ZUe:_MaskableGraphic_RecalculateClipping_m1772937317
sOd:_UnmanagedMemoryStream_SetLength_m3752964620
ZXi:__ZN6il2cpp2vm4Type7GetTypeEPK10Il2CppType
DKc:_open_face_PS_from_sfnt_stream
Tne:_InternalEnumerator_1_get_Current_m165106323_AdjustorThunk
g8f:_UTF32Encoding_GetByteCount_m3610769032
tAa:__ZN6prcoreL17RemapGenericFloatI18TexFormatRGBAFloat17TexFormatRGBAHalfEEvPKNS_9InnerInfoE
ILb:__Z16FindCameraStacksRKNSt3__24listI4PPtrI6CameraENS_9allocatorIS3_EEEERNS_6vectorI11CameraStackNS4_ISA_EEEE
jpi:_MatchCollection_CopyTo_m3807326147
r4a:__ZN10GISettings8TransferI14SafeBinaryReadEEvRT_
un:FUNCTION_TABLE_vifff
YXh:__ZL54Text_t1901882714_CustomAttributesCacheGenerator_m_TextP21CustomAttributesCache
cid:_MD5CryptoServiceProvider__ctor_m3271163125
dZb:__ZN19CustomRenderTexture12ClearGPUDataEv
zZa:__ZN13RenderTexture13ApplySettingsEv
qNe:_ObjectReader_RegisterObject_m1853376334
HZd:_ModuleBuilderTokenGenerator_GetToken_m2588853565
Ipd:_Boolean_System_IConvertible_ToDecimal_m3176932461_AdjustorThunk
Ue:_JS_Sound_SetListenerPosition
mn:FUNCTION_TABLE_fiffi
KYe:_ScrollRect_OnInitializePotentialDrag_m3139711961
q8h:_ReadOnlyCollection_1_System_Collections_Generic_IListU3CTU3E_set_Item_m711370667_gshared
bUd:_Default_check_arguments_with_score_m3467814020
BGj:_glGetActiveUniform__wrapper
WMd:_StreamWriter_LowLevelWrite_m1081676583
Rda:__ZZN15DirectorManager15InitializeClassEvEN45FixedUpdateDirectorFixedSampleTimeRegistrator7ForwardEv
Kib:__ZNK8Material16MarkDependenciesER27GarbageCollectorThreadState
h_e:_Slider_set_handleRect_m1101657556
Ewf:_DateTimeOffset_ToString_m3985341516_AdjustorThunk
Krc:__ZL17Transfer_GUIStyleI9JSONWriteLb0EEvRK29SerializationCommandArgumentsR31RuntimeSerializationCommandInfo
cQb:__Z28GetHaloVertexPositionsStereoP8Vector3fRKS_S2_f
iBa:__ZN6prcoreL27StretchGenericFloatBilinearI15TexFormatRGHalfEEvPKNS_9InnerInfoE
U7:__GLOBAL__sub_I_runtime_misc_0_cpp
aGf:_SortKey_GetHashCode_m3547067087
_Ab:__Z18Transfer_BlittableI18StreamedBinaryReadILb0EELb1E9BoundsIntEvRK29SerializationCommandArgumentsR31RuntimeSerializationCommandInfo
UXh:__ZL71SpriteState_t1362986479_CustomAttributesCacheGenerator_m_DisabledSpriteP21CustomAttributesCache
zcf:_PublicKey_DecodeDSA_m3490622362
yic:__Z49Register_UnityEngine_Resources_GetBuiltinResourcev
zdg:_Type_GetMethod_m1479779718
fEc:_tt_cmap10_char_index
tki:_TlsException__ctor_m3242533711
u7d:_BitConverterLE_GetUIntBytes_m795219058
nyd:_SortedList__ctor_m3676552745
jLi:__ZN15dense_hashtableINSt3__24pairIK10KeyWrapperIPK22Il2CppGenericParameterEP11Il2CppClassEES6_N6il2cpp5utils11PointerHashIS4_EEN14dense_hash_mapIS6_S9_SE_NS6_14EqualsComparerINS0_8equal_toIS5_EEEENS0_9allocatorISA_EEE9SelectKeyESJ_SL_E3endEv
fqb:__Z35Transfer_Blittable_SingleValueFieldI14SafeBinaryReadjEvRT_R17GeneralMonoObjectRK23StaticTransferFieldInfo
QP:__ZN11AudioSource24ClearExtensionPropertiesE12PropertyName
C_h:_Array_InternalArray__set_Item_TisColor32_t2600501292_m1891325855_gshared
Mla:__ZN9ShaderLab22SerializedBindChannels8TransferI19StreamedBinaryWriteILb0EEEEvRT_
Vqb:__ZN15SerializeTraitsI5RectTIiEE8TransferI14SafeBinaryReadEEvRS1_RT_
pnc:__ZN5IMGUI20MoveWindowFromLayoutER8GUIStateiRK5RectTIfE
LAc:_UNITY_FT_Stream_ReadUShort
ahc:__Z51Register_UnityEngine_GUILayer_INTERNAL_CALL_HitTestv
Rha:__ZNSt3__26__treeINS_12__value_typeIN4core12basic_stringIcNS2_20StringStorageDefaultIcEEEES6_EENS_19__map_value_compareIS6_S7_NS_4lessIS6_EELb1EEE13stl_allocatorIS7_L18MemLabelIdentifier1ELi16EEE7destroyEPNS_11__tree_nodeIS7_PvEE
iwa:__Z13IsDepthFormat14GraphicsFormat
deb:__ZN12AspectRatios8TransferI24GenerateTypeTreeTransferEEvRT_
kQd:_MonoType_GetFields_m4176012508
Iwc:__Z12FormatBufferPciPKcz
ftf:_CurrentSystemTimeZone_GetTimeZoneData_m2641861607
YWf:_EqualityComparer_1_System_Collections_IEqualityComparer_GetHashCode_m3423304513_gshared
wLi:__ZN6il2cpp2vm5Class13GetArrayClassEP11Il2CppClassj
A2c:_StandaloneInputModule_set_inputActionsPerSecond_m4057208843
HHb:__ZN19RuntimeSceneManager18LoadSceneAsyncIntoER10UnitySceneRKN4core12basic_stringIcNS2_20StringStorageDefaultIcEEEENS_11LoadingModeEb
drc:__Z35Transfer_Blittable_FixedBufferFieldI9JSONWritetEvRK29SerializationCommandArgumentsR31RuntimeSerializationCommandInfo
wnc:__ZN11IMGUIModule12AddGUIScriptER8ListNodeI13MonoBehaviourE
nb:invoke_difi
Kvi:_GUILayoutUtility_BeginWindow_m2240221150
wFj:_glDeleteSamplers__wrapper
U7e:_HybridDictionary_set_Item_m2997363718
ZLa:__ZNSt3__26__treeIiNS_4lessIiEE13stl_allocatorIiL18MemLabelIdentifier1ELi16EEE7destroyEPNS_11__tree_nodeIiPvEE
vte:_InternalEnumerator_1_get_Current_m1477715453_AdjustorThunk
ygg:_UInt64_System_IConvertible_ToUInt32_m2784653358
Pva:__ZN21GLESGpuProgramApplier11ApplyVectorERKN20GpuProgramParameters14ValueParameterEPK8Vector4ft
NUb:__Z17PrepareSceneNodesP11CullResults
wed:_SByte_System_IConvertible_ToDecimal_m2548745278
Lxc:_cff_size_done
mVb:__ZN29ExtractProjectionPlanesHelperILb1EE5ApplyERK10Matrix4x4fP5Plane
l7b:__ZN13ProduceHelperI7CubemapLb0EE7ProduceE10MemLabelId18ObjectCreationMode
vZb:__ZN6Camera34UpdatePreviousViewProjectionMatrixEv
Gma:__ZN9ShaderLab11ShaderState25RemoveUnsupportedProgramsEPK6Shader
qMc:__Z28Font_Get_Custom_PropMaterialP12Il2CppObject
Apg:_Mathf_Abs_m3281243566
vNd:_SynchronizedWriter_WriteLine_m1552352268
Vbc:__Z26scripting_class_has_parent17ScriptingClassPtrS_
Tba:__ZN13RuntimeStaticI21AssetReferenceStorageLb0EE16StaticInitializeEPv
HVc:__ZNSt3__26__treeINS_12__value_typeIN4core12basic_stringIcNS2_20StringStorageDefaultIcEEEEN11UnityEngine7Connect19RemoteSettingsValueEEENS_19__map_value_compareIS6_SA_NS_4lessIS6_EELb1EEE13stl_allocatorISA_L18MemLabelIdentifier6ELi16EEE16__construct_nodeERKNS_4pairIKS6_S9_EE
lFd:_Int32_System_IConvertible_ToByte_m3832391412_AdjustorThunk
AQ:__Z71Register_UnityEngine_AudioSource_INTERNAL_CALL_ClearExtensionPropertiesv
yC:__ZNK8Animator20IsInMatchTargetStateEv
Fpe:_InternalEnumerator_1_System_Collections_IEnumerator_get_Current_m4088805473_gshared
boc:__Z36Register_UnityEngine_GUI_set_changedv
gHe:_Context_GetServerContextSinkChain_m3154465897
Cwi:_GUIStyle_get_fixedHeight_m2868324709
rBd:_Convert_ToInt64_m2075293963
_rj:__GLOBAL__sub_I_Il2CppCodeRegistration_cpp
Ww:__ZN27AnimationLayerMixerPlayable18SetInputConnectionEP8Playablei
Fw:__ZN7mecanim28TransformValueArrayBlendNodeEiiiRKNS_10ValueArrayERKNS_14ValueArrayMaskERS0_RS3_RNS_16ValueArrayWeightEf
j8c:_Dropdown_set_value_m1048320169
BVa:__ZN20TierGraphicsSettings8TransferI18StreamedBinaryReadILb0EEEEvRT_
KFd:_Int32_System_IConvertible_ToUInt64_m2502338186_AdjustorThunk
Afa:__Z33CleanupCubemapGPUUtilityMaterialsPv
S$a:__ZN14SafeBinaryRead8TransferINSt3__24pairIN9ShaderLab16FastPropertyNameE10ColorRGBAfEEEEvRT_PKc17TransferMetaFlags
jKi:__ZL9rshift128PyS_
V0f:_Enumerator_VerifyState_m169680537_AdjustorThunk
U2i:__ZN14dense_hash_mapI10KeyWrapperINSt3__24pairIPK12PropertyInfoP11Il2CppClassEEEj17ReflectionMapHashIS8_ENS9_14EqualsComparerINS1_8equal_toIS8_EEEENS1_9allocatorINS2_IKS9_jEEEEE13set_empty_keyERSH_
Ng:_glRenderbufferStorage
ecj:__ZNK15dense_hashtableINSt3__24pairIK10KeyWrapperINS1_IPKcS4_EEEiEES6_24NamespaceAndNamePairHashN14dense_hash_mapIS6_iS9_NS6_14EqualsComparerI26NamespaceAndNamePairEqualsEENS0_9allocatorIS8_EEE9SelectKeyESD_SF_E13find_positionERS7_
Ghc:__Z45Register_UnityEngine_Input_get_touchSupportedv
ZTc:__ZN11UnityEngine15PlatformWrapper28GetTextureFormatSupportFlagsEv
MCc:_sfnt_is_postscript
n_b:__ZNSt3__26vectorINS_4pairIN4core12basic_stringIcNS2_20StringStorageDefaultIcEEEES6_EE13stl_allocatorIS7_L18MemLabelIdentifier38ELi16EEE26__swap_out_circular_bufferERNS_14__split_bufferIS7_RSA_EEPS7_
Mti:_Uri_EscapeString_m3864445955
yyc:_cf2_setError
R9a:__ZN14SafeBinaryRead21TransferSTLStyleArrayI13dynamic_arrayI12BoneWeights4Lj16EEEEvRT_17TransferMetaFlags
Gwe:_Enumerator_MoveNext_m465222849_AdjustorThunk
FKb:__ZZ23InitPlayerLoopCallbacksvEN35PreUpdateSendMouseEventsRegistrator7ForwardEv
JEa:__ZNK6Camera25GetNormalizedViewportRectEP13RenderTextureb
k8c:_Dropdown_Awake_m3140021404
_g:_glDisable
WZa:__ZN13RenderTexture8TransferI24GenerateTypeTreeTransferEEvRT_
kzg:_Vector2_get_sqrMagnitude_m837837635
Pkj:__ZN6il2cpp5utils11StringUtils15StringDuplicateEPKDsj
qE:__ZZN8Animator15InitializeClassEvEN37FunctorImpl_417kDidModifyOverrideClip4CallEPviR11MessageData
Ari:_Regex_Match_m4145799399
Dv:__ZN17AnimationPlayable17ProcessRootMotionEP35AnimationPlayableEvaluationConstantP32AnimationPlayableEvaluationInputP33AnimationPlayableEvaluationOutput
Vqf:_String_IsNullOrEmpty_m2969720369
fAe:_Enumerator_MoveNext_m2602845255_gshared
NGi:_TextGenerator_GetPreferredHeight_m3514897836
u2e:_BigInteger_LowestSetBit_m3082714978
jKj:b118
kKj:b119
DLb:__ZNK8Material12GetPassCountEv
ijf:_RSAParameters_t1728406613_marshal_pinvoke
Nhf:_Interval_IsDisjoint_m1532171337_AdjustorThunk
dKj:b112
dzj:_bitshift64Ashr
fKj:b114
gKj:b115
hKj:b116
iKj:b117
AAj:dynCall_diii
ZTe:_LayoutUtility_GetFlexibleWidth_m22831835
aNe:_BinaryFormatter__ctor_m971003555
Jie:_ArrayReadOnlyList_1_ReadOnlyError_m865416608_gshared
dwd:_CollectionBase_System_Collections_IList_get_Item_m3743372945
Ixa:__ZN4crnd12crn_unpacker22decode_alpha_endpointsEv
wah:_Queue_1__ctor_m2068090025_gshared
TVb:__Z23CullDynamicObjectsUmbraPK4AABBPKN5Umbra15OcclusionBufferER9IndexList
tEc:_tt_cmap4_char_next
a_:__ZN4core8hash_mapIi17ThreadedAwakeDataNS_4hashIiEENSt3__28equal_toIiEEE4growEi
SBg:__Z50RuntimeInvoker_Boolean_t97287965_Int16_t2552820387PFvvEPK10MethodInfoPvPS4_
AAd:_Convert_ToDecimal_m1233667008
$Z:__ZN4core8hash_mapIi17ThreadedAwakeDataNS_4hashIiEENSt3__28equal_toIiEEE4growEv
y7:__GLOBAL__sub_I_runtime_assetbundles_1_cpp
II:__ZN4FMOD7Channel11setPositionEjj
Sh:_glBindSampler
Lae:_ClientContext_get_ClientHelloProtocol_m1654639078
Wh:_glGetVertexAttribiv
wAe:_Enumerator_System_Collections_IEnumerator_get_Current_m1975949486_gshared
Spi:_PatternCompiler_EmitSub_m193323684
KNc:__ZN2UI11CanvasGroup23VirtualRedirectTransferER18StreamedBinaryReadILb0EE
jGd:_Int64_System_IConvertible_ToByte_m375085029
Puc:__ZN8JSONRead8TransferIbEEvRT_PKc17TransferMetaFlagsb
qcg:_TimeSpan_ToString_m1128692466
Ayi:_AesManaged_CreateEncryptor_m2294080233
qvi:_Event_GetHashCode_m3559153592
tma:__ZN9ShaderLab9SubShaderD2Ev
Nmj:_GC_promote_black_lists
jAd:_Convert_ToChar_m3757390865
Dvc:__Z29Transfer_Blittable_ArrayFieldI8JSONRead8Vector4fEvRT_R9ArrayInfoRK23StaticTransferFieldInfo
Sn:FUNCTION_TABLE_vf
PTd:_Binder_GetDerivedLevel_m3216810447
qo:FUNCTION_TABLE_vd
S8:__ZN13RuntimeStaticI37UnityShaderCompilerExtPluginConfigureLb0EE16StaticInitializeEPv
sVc:__ZN11UnityEngine7Connect17DeviceStatusEvent20SetDeviceAspectRatioEf
x7f:_StringBuilder_AppendFormat_m2403596038
Qgd:_DSASignatureDeformatter_SetHashAlgorithm_m3186995552
$5h:_ReadOnlyCollection_1_System_Collections_Generic_ICollectionU3CTU3E_Clear_m2772202961_gshared
Ssc:__ZN9JSONWrite8TransferI13dynamic_arrayI4AABBLj4EEEEvRT_PKc17TransferMetaFlags
RE:__ZNK8Animator17HasBoundPlayablesEv
e4d:_ResourceSet_ReadResources_m3663669011
_9f:_SynchronizationContext_SetSynchronizationContext_m1249070039
G7g:_List_1_AddEnumerable_m1267044261_gshared
TDc:_tt_cmap13_char_index
tVi:__ZN6il2cpp2vm7Runtime9SetConfigEPKc
Epc:__ZN5Unity9rapidjson12PrettyWriterI16TempBufferWriterNS0_4UTF8IcEES4_13JSONAllocatorE10StartArrayEv
ta:invoke_iiifiii
pvg:_RectTransform_INTERNAL_get_pivot_m2970933031
Egi:_UnityAction_1_Invoke_m927447181_gshared
L9i:__ZN6il2cpp2vm9Exception11FromNameMsgEPK11Il2CppImagePKcS6_S6_
cn:FUNCTION_TABLE_fiiifii
Uea:__Z14GetTimeManagerv
Kkg:_Color32_op_Implicit_m213813866
Rug:_RectOffset_set_top_m713260669
GXc:__ZN19TransportJavaScript7CleanupEv
IPa:__Z12GUIDToStringRK9UnityGUIDPc
Rba:__ZN15FileSystemEntry4LockE12FileLockModeP12FileAccessor
iIj:_emscripten_glDrawArrays__wrapper
TFd:_Int32_Equals_m2976157357
ROg:__Z110RuntimeInvoker_Int32_t2950945753_Int32_t2950945753_Int32_t2950945753_Int32U26_t1369213839_Int32U26_t1369213839PFvvEPK10MethodInfoPvPS4_
fM:__ZN11AudioSource22UnmuteActiveVideoSinksEv
rki:_TlsException__ctor_m3717683709
Mkj:__ZN4utf88internal20is_overlong_sequenceIiEEbjT_
oPi:__ZN6il2cpp2vm13MetadataCache8RegisterEPK22Il2CppCodeRegistrationPK26Il2CppMetadataRegistrationPK20Il2CppCodeGenOptions
mRa:__Z9SetLocalR15TransformAccessRKN4math7_float4Ey
QRb:__Z30SetupBakedOcclusionForGeometrybRK26SharedLightmapSettingsDataRK15LightmapIndicesR17ShaderPassContext
Ofc:__Z41Register_UnityEngine_Cursor_get_lockStatev
mRb:__Z14SetupLightmapsRK8Vector4fS1_R17ShaderPassContext
s1i:__ZN14dense_hash_mapI10KeyWrapperIPK14Il2CppAssemblyEPK22Il2CppMonoAssemblyNameN6il2cpp5utils11PointerHashIS2_EENS4_14EqualsComparerINSt3__28equal_toIS3_EEEENSD_9allocatorINSD_4pairIKS4_S7_EEEEE13set_empty_keyERSJ_
P_a:__ZL20InitializeGUIShadersv
zGf:_Guid_CompareTo_m243656946
k1b:__Z20DestroyObjectDelayedP6Objectf
AW:__ZN20DynamicHeapAllocatorI17LowLevelAllocatorED0Ev
i4b:__ZN11TimeManagerC2E10MemLabelId18ObjectCreationMode
KOb:__ZN9DepthPassD2Ev
AH:__ZN11AudioFilter6GetDSPEv
hjf:_RSACryptoServiceProvider_OnKeyGenerated_m863837376
cXe:_Scrollbar_OnDrag_m4289602768
Eaa:__ZN19RuntimeSceneManager14CanUnloadSceneEP10UnityScene
MOb:__Z22ExtractRenderNodeQueueRK11CullResults15ExtractionFlagsR15RenderNodeQueue
FG:__ZN24AudioScriptBufferManagerC2Ev
cKc:__ZNSt3__26vectorIh13stl_allocatorIhL18MemLabelIdentifier1ELi16EEE8__appendEj
zre:_InternalEnumerator_1_System_Collections_IEnumerator_get_Current_m3854084659_AdjustorThunk
QOe:_OnValidateInput_Invoke_m1009124904
Mhe:_U3CGetEnumeratorU3Ec__Iterator0_System_Collections_IEnumerator_get_Current_m283764921_gshared
eKc:__ZN20TextRenderingPrivate8FontImpl16ResetPackingDataEv
CDf:_CultureInfo_get_IcuName_m2258611679
Cqc:__Z18Transfer_BlittableI9JSONWriteLb0EfEvRK29SerializationCommandArgumentsR31RuntimeSerializationCommandInfo
Vwa:__Z21GetAsyncUploadManagerv
Jj:_emscripten_glDetachShader
Evg:_Vector2_op_Subtraction_m73004381
Jwa:__ZN17GenericDynamicVBO20ReleaseChunkInternalERK21DynamicVBOChunkHandlejj
pMc:__ZL27CleanupModule_TextRenderingv
Gvj:_fmodl
F6e:_SymmetricTransform_OFB_m3842617151
MHb:__ZN19RuntimeSceneManager11CreateSceneEv
nkg:_Color__ctor_m286683560
zpi:_PatternCompiler_Emit_m1540115729
DCc:_ps_get_standard_strings
PRb:__Z27SetupBakedOcclusionForLightbRK15SharedLightDataR17ShaderPassContext
qsj:__ZN6il2cpp2os5Mutex6UnlockEv
i5f:_EncoderFallbackException__ctor_m1051987327
C2e:_BigInteger_ToString_m3278248272
Ixf:_Decimal_System_IConvertible_ToBoolean_m1123794670
AWg:__Z98RuntimeInvoker_Int32_t2950945753_RaycastResult_t3360306849_RaycastResult_t3360306849_RuntimeObjectPFvvEPK10MethodInfoPvPS4_
Vaa:__Z17CommitBatchDeleteR11BatchDelete
iUe:_Mask__ctor_m1269055150
ezh:__ZL99WaitHandle_t1743403487_CustomAttributesCacheGenerator_WaitHandle_t1743403487____Handle_PropertyInfoP21CustomAttributesCache
ybf:_WebRequest_AddPrefix_m3187775913
gMb:__Z18RenderImageFiltersR10RenderLoopb
YQc:__Z43CanvasRenderer_Get_Custom_PropMaterialCountP12Il2CppObject
_Rb:__ZNSt3__227__insertion_sort_incompleteIR23CompareReflectionProbesP31RuntimeReflectionProbeBlendInfoEEbT0_S5_T_
g4g:_List_1_Remove_m1457733883_gshared
Yvc:__ZN8JSONRead21TransferSTLStyleArrayI13dynamic_arrayI11QuaternionfLj4EEEEvRT_17TransferMetaFlags
D0d:_MonoEventInfo_GetEventInfo_m873645389
q8d:_MD4Managed_Encode_m386285215
ica:__ZN10InputEventD2Ev
LZ:__ZL23OutOfBoundsReadingErrorPKN5Unity4TypeEiiR6Object
NYc:__ZN22UnityWebRequestManagerD2Ev
evi:_Event_get_character_m1666742088
lvj:_isalpha
fAd:_Convert_ToChar_m1442101407
Age:_SslClientStream_OnLocalPrivateKeySelection_m1934775249
Gwf:_DateTimeOffset_get_Offset_m2040541042_AdjustorThunk
pTi:__ZN6il2cpp2vmL17IsSocketAsyncCallEP14Il2CppDelegate
Sxd:_Slot_t3975888750_marshal_pinvoke_back
kkj:__ZN6il2cpp2vm6String6NewLenEPKcj
a5:__Z25GetBuiltinTexEnvParamNamei
GFb:__ZN17PersistentManager9AddStreamEv
_k:_time
r6c:_ContentSizeFitter_set_verticalFit_m1831566876
Flf:_TripleDESCryptoServiceProvider_CreateDecryptor_m740960117
NSg:__Z122RuntimeInvoker_Void_t1185182177_Color_t2555686324_Single_t1397266774_SByte_t1669577662_SByte_t1669577662_SByte_t1669577662PFvvEPK10MethodInfoPvPS4_
spg:_Material_EnableKeyword_m329692301
lzc:_cf2_stack_free
Bkf:_SHA512Managed_HashCore_m2377807474
TGd:_Int64_Parse_m3309897583
hEf:_CompareInfo_IndexOf_m667936183
rv:__ZN7mecanim9animation19EvaluateFloatValuesEPKNS0_18ClipMuscleConstantEPKNS_18ValueArrayConstantEPKNS0_12ClipBindingsEPKNS0_10ClipOutputEPNS0_18AnimationNodeStateEfbb
cD:__ZN8Animator31ClearInternalControllerPlayableEv
UHa:__ZN26SinglePassStereoSupportExt18AfterSetViewMatrixEv
$ig:_Bounds__ctor_m1937678907_AdjustorThunk
Iwg:_SetupCoroutine_InvokeMember_m2661944898
n_f:_HashSet_1__ctor_m620629637_gshared
$bf:_X509EnhancedKeyUsageExtension_ToString_m350388564
eZi:__ZN15dense_hashtableINSt3__24pairIK10KeyWrapperINS1_IPK9FieldInfoP11Il2CppClassEEEjEES9_17ReflectionMapHashIS8_EN14dense_hash_mapIS9_jSD_NS9_14EqualsComparerINS0_8equal_toIS8_EEEENS0_9allocatorISB_EEE9SelectKeyESI_SK_E4findERSA_
Jud:_SimpleEnumerator_MoveNext_m3113120129
LHb:__ZN13LoadOperationC2E10MemLabelId
SOe:_InputField_SendOnValueChanged_m2560301445
uXb:__ZN13RenderTexture19SetAutoGenerateMipsEb
pya:__Z20GetTextureFormatInfo13TextureFormat
k9e:_TypeConverterAttribute_Equals_m1580461255
u9d:_RSAManaged_ToXmlString_m2369501989
cy:__ZN26AnimatorControllerPlayable8GetFloatEiRf
Ttf:_DateTime_System_IConvertible_ToSingle_m2193708681_AdjustorThunk
Mhf:_Interval_get_Size_m4163671410_AdjustorThunk
aOc:__ZN2UI14CanvasRenderer13AwakeFromLoadE17AwakeFromLoadMode
Fkh:__ZL64String_t_CustomAttributesCacheGenerator_String_Split_m3580120853P21CustomAttributesCache
Iqj:__ZN6il2cpp5utils10MemoryPool6MallocEj
ZF:__ZN11SoundHandle8InstanceD2Ev
Q3d:_ResourceEnumerator_Reset_m3754276504
wfa:__ZN31CanvasBatchIntermediateRenderer13StaticDestroyEPv
l$:__ZNSt3__23mapIiP15MonoScriptCacheNS_4lessIiEE13stl_allocatorINS_4pairIKiS2_EEL18MemLabelIdentifier78ELi16EEEixERS7_
bTa:__Z26scripting_method_get_class18ScriptingMethodPtr
VFj:_emscripten_glBindProgramARB__wrapper
Lfc:__Z41Register_UnityEngine_CullingGroup_Disposev
Wpi:_PatternCompiler_EmitRepeat_m697083858
H2a:__ZN7Cubemap23VirtualRedirectTransferER19StreamedBinaryWriteILb0EE
tOa:__ZN25MultiBlocksMemoryFileData5WriteEyyPKv
t3d:_ResourceReader_Read7BitEncodedInt_m3568166465
G7c:_DefaultControls_CreateInputField_m1003102365
rIi:_CanvasGroup_set_alpha_m4032573
bnd:_Array_get_LongLength_m978104875
ZBa:__ZL17ProgramUniform2fvPK7ApiGLESjiihPKv
PGj:b83
_Jc:__ZN20TextRenderingPrivate8FontImpl21HasCharacterInTextureEjijfPj
fkb:__ZNSt3__227__insertion_sort_incompleteIRPFbRK23TransformAccessReadOnlyS3_EPS1_EEbT0_S8_T_
Cyg:_Transform_SetAsFirstSibling_m253439912
uuf:_DateTime_System_IConvertible_ToUInt16_m4182197229_AdjustorThunk
Fhf:_Interval_get_IsDiscontiguous_m3016063288
Qge:_SslStreamBase_get_CheckCertRevocationStatus_m2739906607
Hwj:_htonl
Zta:__Z20GetBufferManagerGLESv
OGj:b82
Lkf:_SHA512Managed_Sigma1_m922902398
WBb:__ZN18StreamedBinaryReadILb0EE21TransferSTLStyleArrayI31ArrayOfManagedObjectsTransfererEEvRT_17TransferMetaFlags
Bua:__ZNSt3__26__treeI22DeviceStencilStateGLES14MemoryCompLessI18DeviceStencilStateENS_9allocatorIS1_EEE12__find_equalIS1_EERPNS_16__tree_node_baseIPvEESD_RKT_
Ntc:__Z18Transfer_BlittableI8JSONReadLb0EtEvRK29SerializationCommandArgumentsR31RuntimeSerializationCommandInfo
FZ:__Z16GenerateTypeTreeRK6ObjectR8TypeTree24TransferInstructionFlags
ZEf:_CultureInfo_CreateCulture_m1493441763
xlf:_TripleDES_IsWeakKey_m2147489852
Qy:__ZN34AnimationStateMachineMixerPlayable13EndTransitionEv
iI:__ZN12AudioManager21FixMasterGroupRoutingEv
p9a:__ZNK19ShaderPropertySheet11HasPropertyERKN9ShaderLab16FastPropertyNameE
RAj:dynCall_viffffii
aC:__ZN15AllocatorTraitsIN8Animator11AnimatorJobELb0EE13CopyConstructEPS1_RKS1_10MemLabelId
yVg:__Z81RuntimeInvoker_Boolean_t97287965_NavigationU26_t1807167253_Navigation_t3049316579PFvvEPK10MethodInfoPvPS4_
$Hj:_emscripten_glUniform1fv__wrapper
Bbd:_GridLayoutGroup_SetLayoutHorizontal_m2838109254
J7c:_Dropdown_RefreshShownValue_m2806045241
lob:__Z18Transfer_BlittableI14SafeBinaryReadLb1E4AABBEvRK29SerializationCommandArgumentsR31RuntimeSerializationCommandInfo
ygj:__ZN6il2cpp6icalls8mscorlib6System4Enum12get_hashcodeEP12Il2CppObject
Lpj:_GC_set_no_dls
M5c:_ColorBlock_set_normalColor_m254595671_AdjustorThunk
guj:__ZN6il2cpp8metadata26Il2CppGenericMethodCompare6EqualsEPK19Il2CppGenericMethodS4_
Cqe:_InternalEnumerator_1_get_Current_m1007906068_gshared
jNi:__ZN15dense_hashtableINSt3__24pairIK10KeyWrapperIPK11Il2CppClassEPKcEES6_N6il2cpp5utils11PointerHashIS3_EEN14dense_hash_mapIS6_S9_SE_NS6_14EqualsComparerINS0_8equal_toIS5_EEEENS0_9allocatorISA_EEE9SelectKeyESJ_SL_E15set_deleted_keyERKSA_
Lud:_SimpleEnumerator_Reset_m1520014659
NG:__ZN9AudioClip7WWWOpenEPKciPjPPvS4_
cob:__Z18Transfer_BlittableI14SafeBinaryReadLb0E8Vector2fEvRK29SerializationCommandArgumentsR31RuntimeSerializationCommandInfo
Mce:_Context_set_ProtocolNegotiated_m2904861662
ccj:__ZN15dense_hashtableINSt3__24pairIK10KeyWrapperINS1_IPKcS4_EEEiEES6_24NamespaceAndNamePairHashN14dense_hash_mapIS6_iS9_NS6_14EqualsComparerI26NamespaceAndNamePairEqualsEENS0_9allocatorIS8_EEE9SelectKeyESD_SF_E12resize_deltaEjj
MLe:_RemotingServices_GetRemoteObject_m2117098022
IIi:_CanvasRenderer_SetTexture_m1600559835
VWc:__ZN13dynamic_arrayIiLj4EE6insertEPiPKiS3_
Lhh:_Collection_1_System_Collections_IList_IndexOf_m4256072926_gshared
cFg:__Z132RuntimeInvoker_Boolean_t97287965_RuntimeObject_Int32_t2950945753_Int32_t2950945753_RuntimeObject_Int32_t2950945753_Int32_t2950945753PFvvEPK10MethodInfoPvPS4_
Ahc:__Z53Register_UnityEngine_Input_INTERNAL_get_mousePositionv
Sta:__ZN7ApiGLES12DrawElementsE16GfxPrimitiveTypePKvjjjj
W5e:_EncryptedPrivateKeyInfo_get_Salt_m3453455261
Bvf:_DateTime__ParseNumber_m1240316250
Vof:_Single_System_IConvertible_ToSingle_m1939829239_AdjustorThunk
Sme:_InternalEnumerator_1_get_Current_m3839250771_gshared
nkc:__Z66Register_UnityEngine_Transform_INTERNAL_CALL_InverseTransformPointv
BEf:_CultureInfo_get_TextInfo_m2342840448
QMf:_Array_InternalArray__IndexOf_TisMark_t3471605523_m2905388260_gshared
fd:_SDL_GetTicks
a$i:__ZN15dense_hashtableINSt3__24pairIK10KeyWrapperINS1_IPK11Il2CppImageP11Il2CppClassEEEjEES9_17ReflectionMapHashIS8_EN14dense_hash_mapIS9_jSD_NS9_14EqualsComparerINS0_8equal_toIS8_EEEENS0_9allocatorISB_EEE9SelectKeyESI_SK_E6insertERKSB_
yVb:__Z21CreateShadowCullerJobP30CreateUmbraShadowCullerJobData
t9h:_ReadOnlyCollection_1_System_Collections_Generic_ICollectionU3CTU3E_Remove_m4072504734_gshared
RBa:__ZL18ProgramUniform2uivPK7ApiGLESjiihPKv
v4c:_U3COnFinishSubmitU3Ec__Iterator0_MoveNext_m2729496168
BHj:_glUniform4iv__wrapper
ySb:__Z33GenerateShadowCasterPartsSortDataRK16ShadowCasterDatajRK15RenderNodeQueueRKNSt3__26vectorI20ShadowCasterPartData13stl_allocatorIS7_L18MemLabelIdentifier2ELi16EEEERK10Matrix4x4fRjP20ShadowCasterSortData
UKb:__ZZ23InitPlayerLoopCallbacksvEN51PostLateUpdateTriggerEndOfFrameCallbacksRegistrator7ForwardEv
Vbg:_TimeSpan_Compare_m753151303
jrb:__Z29Transfer_Blittable_ArrayFieldI14SafeBinaryRead9BoundsIntEvRT_R9ArrayInfoRK23StaticTransferFieldInfo
syc:_cf2_computeDarkening
uJi:_AnimationLayerMixerPlayable__ctor_m860721801_AdjustorThunk
W1d:_MonoPropertyInfo_get_property_info_m1599555644
ngd:_DESTransform_CipherFunct_m3527261721
hnj:_GC_expand_hp_inner
Vdj:__ZNK15dense_hashtableI10KeyWrapperIP18Il2CppGenericClassES3_N6il2cpp8metadata22Il2CppGenericClassHashEN14dense_hash_setIS3_S6_NS3_14EqualsComparerINS5_25Il2CppGenericClassCompareEEENSt3__29allocatorIS3_EEE8IdentityESA_SD_E12test_deletedEj
Nkc:__Z25Screen_Get_Custom_PropDpiv
ung:_UnityEventBase_RebuildPersistentCallsIfNeeded_m216788690
Bkj:__ZN4utf812find_invalidIPKcEET_S3_S3_
MQe:_InputField_OnEndDrag_m4127187089
Sbi:_ReadOnlyCollection_1_System_Collections_IList_RemoveAt_m2555465054_gshared
Snh:__ZL72RuntimeCompatibilityAttribute_t1169614002_CustomAttributesCacheGeneratorP21CustomAttributesCache
_zf:_StackFrame__ctor_m343464319
uT:__ZN11UnityEngine15CloudWebService20WebRequestRestClient7PrepareEv
d1d:_MonoField_CheckGeneric_m453069507
NJc:__ZN20TextRenderingPrivate19NativeTextGenerator23FixLineHorizontalOffsetEiii
Rud:_SynchronizedArrayListWrapper_get_IsFixedSize_m3396437476
ENe:_ObjectReader_ReadArrayOfString_m3550800559
kPd:_MonoCustomAttrs_GetCustomAttributesInternal_m648304078
aA:__ZN7mecanim9animation19DestroyAnimationSetEPNS0_12AnimationSetERNS_6memory9AllocatorE
BCj:_emscripten_glDepthRange__wrapper
k0:__ZN14SerializedFile7ReleaseEv
mmb:__ZN16MemoryFileSystem4OpenER13FileEntryData14FilePermission16FileAutoBehavior
cEf:_CompareInfo_GetSortKey_m1915852346
cHc:_ft_var_load_avar
lfa:__ZN13RuntimeStaticI13RendererSceneLb0EE13StaticDestroyEPv
Qte:_DefaultComparer_Compare_m1297750557_gshared
CW:__ZN20DynamicHeapAllocatorI17LowLevelAllocatorE10ReallocateEPvji
qub:__Z18Transfer_BlittableI24GenerateTypeTreeTransferLb1E12PropertyNameEvRK29SerializationCommandArgumentsR31RuntimeSerializationCommandInfo
bzi:_Toggle_OnEnable_m1421694809
_cb:__ZN14SafeBinaryRead21TransferSTLStyleArrayI10vector_mapIPKN5Unity4TypeE7Hash128NSt3__24lessIS5_EENS7_9allocatorINS7_4pairIS5_S6_EEEEEEEvRT_17TransferMetaFlags
MG:__ZN9AudioClip18GetQueuedAudioDataEPPvj
cMc:__ZN20TextRenderingPrivate21TextMeshGeneratorImpl14GarbageCollectEv
sac:__ZNK9Texture2D17CheckHasPixelDataEv
AHi:_InputBuffer_DeleteCharacters_m244939457
dwb:__Z18Transfer_BlittableI19StreamedBinaryWriteILb0EELb0E9BoundsIntEvRK29SerializationCommandArgumentsR31RuntimeSerializationCommandInfo
tOb:__Z18SetShadowsKeywordsR17ShaderPassContext9LightType10ShadowType16ShadowProjectionbb
Fad:_Graphic_GetPixelAdjustedRect_m3729397999
T2i:__ZN14dense_hash_mapI10KeyWrapperINSt3__24pairIPK12PropertyInfoP11Il2CppClassEEEj17ReflectionMapHashIS8_ENS9_14EqualsComparerINS1_8equal_toIS8_EEEENS1_9allocatorINS2_IKS9_jEEEEEC2EjRKSB_RKSF_
y6b:__ZN17CollisionMeshDataC2Ev
aDe:_Dictionary_2_ToTValue_m692436965_gshared
f5d:_Marshal_Copy_m1222846562
i4a:__ZN16LightmapSettings23VirtualRedirectTransferER19StreamedBinaryWriteILb0EE
XKb:__ZZ23InitPlayerLoopCallbacksvEN47PostLateUpdateMemoryFrameMaintenanceRegistrator7ForwardEv
Uta:__ZN7ApiGLES20SetVertexArrayAttribEjj12VertexFormathjPKv
vo:FUNCTION_TABLE_viiififii
Unj:_GC_push_next_marked
Ihb:__ZN18IDCollectorFunctor18GenerateInstanceIDEi17TransferMetaFlags
H3h:_GameObject_GetComponent_TisRuntimeObject_m2049753423_gshared
jGi:_TextGenerationSettings_Equals_m3618607189_AdjustorThunk
J8e:_NameObjectCollectionBase_BaseAdd_m3437748750
mdg:_Type_internal_from_handle_m3156085815
I7h:_ReadOnlyCollection_1_System_Collections_Generic_ICollectionU3CTU3E_Add_m69722965_gshared
wD:__ZN8Animator8TransferI19StreamedBinaryWriteILb0EEEEvRT_
H1:__ZNSt3__27__sort4IRNS_6__lessI14ObjectLoadDataS2_EEPS2_EEjT0_S6_S6_S6_T_
aNb:__ZNK25CameraStackRenderingState16GetCurrentCameraEv
ZXe:_ScrollRect_get_rectTransform_m2442061719
w8b:__Z22PlayableValidityChecksRK9HPlayableb
Eeb:__ZN15ResourceManagerD2Ev
Afc:__Z41Register_UnityEngine_Camera_GetAllCamerasv
Kmg:_InvokableCall__ctor_m2158562079
kri:_Assertion__ctor_m2128950829
cWc:__ZN28PerformanceReportingSettings8TransferI14SafeBinaryReadEEvRT_
$ib:__ZN15CacheWriterBase18GetAddressOfMemoryEv
ljd:_Buffer_BlockCopy_m2884209081
Vtc:__Z18Transfer_BlittableI8JSONReadLb1E5RectTIiEEvRK29SerializationCommandArgumentsR31RuntimeSerializationCommandInfo
n8i:__ZN6il2cpp2vm22EmbeddedResourceRecordC2ERKS1_
qIb:__ZL20DrawVBOChunkWithPassP6ShaderPN9ShaderLab4PassER17ShaderPassContextR10DynamicVBORK21DynamicVBOChunkHandle
$dh:_Collection_1__ctor_m825528237_gshared
C2a:__ZN9Texture2D13AwakeFromLoadE17AwakeFromLoadMode
MJf:_SetPropertyUtility_SetStruct_TisColorBlock_t2139031574_m1748367426_gshared
irg:_PlayerConnection_get_instance_m1750121257
Sfj:__ZN6il2cpp2vm3RCW14QueryInterfaceILb0EEEP14Il2CppIUnknownP15Il2CppComObjectRK10Il2CppGuid
Hni:_X509Store_get_Certificates_m56224934
Xza:__ZN6prcoreL17RemapGenericFloatI15TexFormatRFloat18TexFormatARGBFloatEEvPKNS_9InnerInfoE
GIg:__Z85RuntimeInvoker_Void_t1185182177_Int64_t3736567304_Int32_t2950945753_Int64_t3736567304PFvvEPK10MethodInfoPvPS4_
eae:_CipherSuite__ctor_m2440635082
mjf:_RSAPKCS1KeyExchangeFormatter_SetRSAKey_m1477802943
fnf:_EvidenceEnumerator_get_Current_m1264365535
$Wc:__ZN11UnityEngine15PlatformWrapper20GetPlayerPrefsUInt64ERKN4core12basic_stringIcNS1_20StringStorageDefaultIcEEEEy
e5d:_Marshal_copy_from_unmanaged_m2834266824
cBj:dynCall_iiiifii
cSb:__ZN20ReflectionProbeCacheC2ER13BatchRendererR15RenderLoopStats
lug:_Rect_set_xMax_m1720695099_AdjustorThunk
sLg:__Z59RuntimeInvoker_Int32_t2950945753_DateTimeOffset_t3229287507PFvvEPK10MethodInfoPvPS4_
klb:__ZNK12HandlerChain6ExistsERK13FileEntryData
hDf:_Calendar__ctor_m106290643
OSb:__Z30FindDirectAttenuationFromProbeP18ForwardLightsBlockbiRK10RenderNodeRK23FindForwardLightsParamsf
Lac:__ZNSt3__26vectorIj13stl_allocatorIjL18MemLabelIdentifier1ELi16EEE6assignIPKjEENS_9enable_ifIXaasr21__is_forward_iteratorIT_EE5valuesr16is_constructibleIjNS_15iterator_traitsIS9_E9referenceEEE5valueEvE4typeES9_S9_
lcb:__ZN12InputManager23VirtualRedirectTransferER24GenerateTypeTreeTransfer
pkb:__ZN9Transform23VirtualRedirectTransferER24GenerateTypeTreeTransfer
jmc:__ZN12GUIClipState10BeginOnGUIER10InputEvent
Cna:__ZNSt3__26vectorIN9ShaderLab20SerializedSubProgram12UAVParameterENS_9allocatorIS3_EEE21__push_back_slow_pathIKS3_EEvRT_
XMg:__Z87RuntimeInvoker_RuntimeObject_Byte_t1134296376_RuntimeObject_RuntimeObject_RuntimeObjectPFvvEPK10MethodInfoPvPS4_
Pbe:_HandshakeMessage_Process_m810828609
xFc:_UNITY_tt_size_ready_bytecode
xIc:__ZN13TextRendering4FontD2Ev
$sg:_Quaternion_Inverse_m1311579081
eLc:_UNITY_FT_Stream_Open
svb:__Z29Transfer_Blittable_ArrayFieldI24GenerateTypeTreeTransfer9BoundsIntEvRT_R9ArrayInfoRK23StaticTransferFieldInfo
lbd:_GraphicRegistry__cctor_m1805310505
ejg:_Bounds_Equals_m3920299735
cXa:__ZN8keywords18KeywordSetToStringERK16ShaderKeywordSetRN4core12basic_stringIcNS3_20StringStorageDefaultIcEEEE
uYd:_GenericTypeParameterBuilder_GetGenericArguments_m2988765390
vBc:_otv_MATH_validate
QHg:__Z77RuntimeInvoker_Void_t1185182177_Int64_t3736567304_ResourceInfoU26_t1611441338PFvvEPK10MethodInfoPvPS4_
mF:__ZN4FMOD3DSP12setParameterEif
bGb:__ZN13MemoryManager16StaticInitializeEv
DEf:_CultureInfo_Equals_m1360976324
lf:___cxa_free_exception
OLh:__ZL69PersistentCall_t3407714124_CustomAttributesCacheGenerator_m_CallStateP21CustomAttributesCache
qJ:__ZN4FMOD22FakeModChannelCallbackEPv
XZc:_BaseInput_get_compositionString_m1887614380
rf:_emscripten_glValidateProgram
QVa:__ZN4Mesh10CreateMeshEv
Mid:_RijndaelManagedTransform__ctor_m1033522223
_uf:_DateTime_CompareTo_m3889078633
Vyc:_cf2_stack_clear
hEd:_NumberFormatter_set_CurrentCulture_m1358228087
vXb:__ZN7Texture13SetAnisoLevelEi
IR:__ZNSt3__26__treeINS_12__value_typeIN4core12basic_stringIcNS2_20StringStorageDefaultIcEEEEjEENS_19__map_value_compareIS6_S7_NS_4lessIS6_EELb1EEE13stl_allocatorIS7_L18MemLabelIdentifier88ELi16EEE7destroyEPNS_11__tree_nodeIS7_PvEE
M6:__ZN19EndOfFrameCallbacks7EnqueueEP18EndOfFrameCallbackb
Log:_Input_set_compositionCursorPos_m1909373301
VKc:_raccess_guess_vfat
FJg:__Z78RuntimeInvoker_IntPtr_t_SByte_t1669577662_RuntimeObject_BooleanU26_t4125257963PFvvEPK10MethodInfoPvPS4_
dSc:__Z44Canvas_CUSTOM_GetETC1SupportedCanvasMaterialv
Tyf:_Decimal_decimalSetExponent_m3707787243
o9:__ZN33InstancedMeshIntermediateRenderer13StaticDestroyEPv
cbj:__ZN14dense_hash_mapI10KeyWrapperIP14Il2CppIUnknownEjN6il2cpp5utils11PointerHashIS1_EENS3_14EqualsComparerINSt3__28equal_toIS2_EEEENS9_9allocatorINS9_4pairIKS3_jEEEEE13set_empty_keyERSF_
Jva:__ZN15dense_hashtableINSt3__24pairIK9TextureIDiEES2_14GfxGenericHashIS2_EN14GfxDoubleCacheIS2_iS6_NS0_8equal_toIS2_EEN31GfxDoubleCacheConcurrencyPolicy11LocklessGetE42GfxDoubleCacheDefaultEmptyDeletedGeneratorIS2_EE9SelectKeyES9_13stl_allocatorIS4_L18MemLabelIdentifier24ELi16EEE12resize_deltaEjj
QTa:__Z21DestroyShadowMapCacheP14ShadowMapCache
yx:__ZN7mecanim9animation25CreateControllerWorkspaceEPKNS0_18ControllerConstantERNS_6memory9AllocatorE
V2h:_Array_InternalArray__get_Item_TisLabelFixup_t858502054_m3276643490_gshared
r2i:__ZN15dense_hashtableINSt3__24pairIK10KeyWrapperIPK10Il2CppTypeEjEES6_N6il2cpp8metadata14Il2CppTypeHashEN14dense_hash_mapIS6_jSB_NS6_14EqualsComparerINSA_26Il2CppTypeEqualityComparerEEENS0_9allocatorIS8_EEE9SelectKeyESF_SH_E14squash_deletedEv
l9i:__ZN6il2cpp2vm13LivenessState5ResetEv
dqc:__ZN9JSONWrite8TransferI11KeyframeTplIfEEEvRT_PKc17TransferMetaFlags
yyd:_SortedList_GetImpl_m3689246167
k7h:_ReadOnlyCollection_1_System_Collections_Generic_IListU3CTU3E_set_Item_m3209059215_gshared
Uwa:__ZN24BuiltinShaderParamValuesC2Ev
Tli:_PKCS12_Decode_m163534693
sqc:__ZL41CreateJSONTransferFunctionScriptingTraitsv
hha:__ZN6Shader23VirtualRedirectTransferER14SafeBinaryRead
Oxc:_cff_glyph_load
oAg:_WaitForSecondsRealtime_get_keepWaiting_m846832224
zji:_ObjectPool_1_get_countActive_m807006650_gshared
dEb:__Z23GetLateBehaviourManagerv
DGg:__Z33RuntimeInvoker_Single_t1397266774PFvvEPK10MethodInfoPvPS4_
rqb:__ZN14SafeBinaryRead21TransferSTLStyleArrayINSt3__26vectorI8Gradient13stl_allocatorIS3_L18MemLabelIdentifier1ELi16EEEEEEvRT_17TransferMetaFlags
VX:__ZN10MemoryPool10DeallocateEPv
xmc:__ZN8GUIState8SetEventERK10InputEvent
fRg:__Z80RuntimeInvoker_Void_t1185182177_ScriptableRenderContext_t274343796_RuntimeObjectPFvvEPK10MethodInfoPvPS4_
IAj:dynCall_vif
JAj:dynCall_vid
IBd:_Convert_ToSByte_m4075629912
KAj:dynCall_vii
s5e:_KeyPairPersistence_FromXml_m746585742
isf:_Decoder__ctor_m4046021500
LBb:__Z18Transfer_BlittableI18StreamedBinaryReadILb0EELb0EdEvRK29SerializationCommandArgumentsR31RuntimeSerializationCommandInfo
w4c:_ColorBlock_get_fadeDuration_m121071467
iUi:__ZN6il2cpp6icalls8mscorlib6System8MonoType18GetFields_internalEP20Il2CppReflectionTypeiS5_
s2:__ZN5Unity9Component16CheckConsistencyEv
N1d:_MonoMethod_get_ContainsGenericParameters_m3860345224
T4:__ZN19ShaderPropertySheet37CreateTextureAuxPropertyUninitializedEN9ShaderLab16FastPropertyNameES1_PKc
Hwb:__ZL26Transfer_SimpleNativeClassI19StreamedBinaryWriteILb0EE10RectOffsetLb1EEvRK29SerializationCommandArgumentsR31RuntimeSerializationCommandInfo
nVc:__ZN11UnityEngine7Connect17DeviceStatusEventD2Ev
BKj:b128
MZi:__ZN15dense_hashtableINSt3__24pairIK10KeyWrapperIPK10Il2CppTypeEjEES6_N6il2cpp8metadata14Il2CppTypeHashEN14dense_hash_mapIS6_jSB_NS6_14EqualsComparerINSA_26Il2CppTypeEqualityComparerEEENS0_9allocatorIS8_EEE9SelectKeyESF_SH_E3endEv
hsa:__ZN13GfxDeviceGLES17SetGpuProgramNameEP10GpuProgramPKc
HT:__ZNK11UnityEngine15CloudWebService25WebRequestDownloadHandler11GetProgressEv
HWa:__Z43IsVertexFormatCompatibleWithDynamicBatchingRK14VertexDataInfo
YNf:_Array_InternalArray__ICollection_Add_TisMonoResource_t4103430009_m2699164149_gshared
wSi:__ZN6il2cpp2vm13MetadataCache28GetMethodDefinitionFromIndexEi
djj:__ZN6il2cpp2os20FileErrnoToErrorCodeEi
N$a:__ZN14SafeBinaryRead19TransferSTLStyleMapINSt3__23mapI39DeprecatedFastPropertyNameSerialization10ColorRGBAfNS1_4lessIS3_EENS1_9allocatorINS1_4pairIKS3_S4_EEEEEEEEvRT_17TransferMetaFlags
vxf:_Decimal_ThrowAtPos_m1170269346
eHh:__ZL98GameObject_t1113636619_CustomAttributesCacheGenerator_GameObject_SendMessage_m3720186693____value1P21CustomAttributesCache
ah:_atexit
JZe:_Selectable_set_image_m3625164794
Wqe:_InternalEnumerator_1_get_Current_m1232221964_gshared
abi:_ReadOnlyCollection_1_System_Collections_Generic_IListU3CTU3E_Insert_m1818924748_gshared
U0i:__ZN6il2cpp2vmL31GetObjectForMissingDefaultValueEj
K3c:_AspectRatioFitter__ctor_m2468506840
kTc:__ZN11UnityEngine15PlatformWrapper30GetVRPlayAreaBoundaryDimensionEv
Smi:_X509Certificate_get_Hash_m410033711
Zja:__ZN9ShaderLab14SerializedPassC2ERKS0_
Bqc:__Z35Transfer_Blittable_FixedBufferFieldI9JSONWritehEvRK29SerializationCommandArgumentsR31RuntimeSerializationCommandInfo
l:STACKTOP
$Ac:_cff_get_name_index
z4a:__ZN21EnlightenSceneMapping16BuildRemapTablesEv
w9b:__ZN17TransformInternal27UpdateDeepChildCountUpwardsER18TransformHierarchyii
W$c:_ExecuteEvents_Execute_m3613826831
y7c:_Image_set_type_m2038193736
A:tempBigIntD
TWb:__ZNK25CameraStackRenderingState25CalculateCameraTargetTypeEv
n_d:_PropertyBuilder_GetSetMethod_m128670376
y:tempBigIntR
x:tempBigIntS
w:tempBigIntP
rn:FUNCTION_TABLE_viffi
pLd:_MemoryStream_SetLength_m974389318
L1:__ZN6Object18RegisterInstanceIDEPS_
Xtb:__Z18Transfer_BlittableI24GenerateTypeTreeTransferLb1EsEvRK29SerializationCommandArgumentsR31RuntimeSerializationCommandInfo
ofj:__ZN15dense_hashtableINSt3__24pairIK10KeyWrapperIP12Il2CppObjectEN6il2cpp2gc9CachedCCWEEES5_NS7_5utils11PointerHashIS3_EEN14dense_hash_mapIS5_S9_SD_NS5_14EqualsComparerINS0_8equal_toIS4_EEEENS0_9allocatorISA_EEE9SelectKeyESI_SK_E11set_deletedER30dense_hashtable_const_iteratorISA_S5_SD_SM_SI_SK_E
npa:__ZNK9GfxDevice18GetWorldViewMatrixEv
VTg:__Z70RuntimeInvoker_Single_t1397266774_Single_t1397266774_Int32_t2950945753PFvvEPK10MethodInfoPvPS4_
rNb:__Z20LookRotationToMatrixRK8Vector3fS1_P10Matrix3x3f
dCd:_Convert_ToUInt16_m3902921832
WSd:_Assembly_GetTypes_m1724781913
brh:__ZL54TypeBuilder_t1073948154_CustomAttributesCacheGeneratorP21CustomAttributesCache
zlj:__ZN6il2cpp6icalls8mscorlib6System7Convert17Base64ToByteArrayEPDsib
Lub:__ZL12InvokeMethodI24GenerateTypeTreeTransferEvRK29SerializationCommandArgumentsR31RuntimeSerializationCommandInfo
L2f:_List_1_AddEnumerable_m376418521_gshared
aNg:__Z79RuntimeInvoker_Void_t1185182177_Byte_t1134296376_Byte_t1134296376_RuntimeObjectPFvvEPK10MethodInfoPvPS4_
DPi:__ZNSt3__218__insertion_sort_3IRN6il2cpp5utils11collections13ArrayValueMapIPK10Il2CppType17Il2CppInteropData26InteropDataToTypeConverterNS1_8metadata14Il2CppTypeLessENSA_26Il2CppTypeEqualityComparerEE12SortComparerEPS8_EEvT0_SH_T_
rpa:__ZNK9GfxDevice25GetDeviceProjectionMatrixEv
ma:invoke_iidiii
bub:__Z18Transfer_BlittableI24GenerateTypeTreeTransferLb1EtEvRK29SerializationCommandArgumentsR31RuntimeSerializationCommandInfo
HP:__ZN12AudioManager33GetCurrentAmbisonicDefinitionNameE31UnityAudioEffectDefinitionFlags
Lcc:__ZN11UTF16StringC2EPKc10MemLabelId
Ybc:__ZN10systeminfo24GetRuntimePlatformStringEv
mJd:_MonoIO_DeleteFile_m3839141322
KQ:__ZN5physx14PxLightCpuTask15removeReferenceEv
Ogj:__ZN6il2cpp6icalls8mscorlib6System6String22RedirectToCreateStringEv
Qqh:__ZL99ILGenerator_t1388622344_CustomAttributesCacheGenerator_ILGenerator_Mono_GetCurrentOffset_m993338688P21CustomAttributesCache
xTe:_LayoutRebuilder_ReapplyDrivenProperties_m2581469389
Vsg:_PropertyName_op_Implicit_m1633828199
h5:__ZN9ShaderLab6TexEnvC2ERKNS_25SerializedTexturePropertyE
lRe:_InputField_Append_m687033660
jRa:__ZN9Transform32SetLocalScaleWithoutNotificationERKN4math7_float3Ey
Z_a:__ZN19ShaderPropertySheet38CopyTextureWithAuxiliaryPropertiesFromERKN9ShaderLab16FastPropertyNameERKS_
LJc:__ZN20TextRenderingPrivate19NativeTextGeneratorD2Ev
$Si:__ZN6il2cpp2vm19SocketPollingThread14DequeueRequestEv
Lij:__ZL10RevealLinkPv
stf:_DateTime__ctor_m12900168_AdjustorThunk
yce:_ClientSessionCache_FromContext_m343076119
Gi:___cxa_end_catch
rlf:_ToBase64Transform_TransformBlock_m2497349397
_8e:_NameValueCollection_Add_m2418530856
RKe:_ReturnMessage_get_MethodSignature_m399735125
lSc:__Z43Register_UnityEngine_Canvas_set_scaleFactorv
i1e:_SortKeyBuffer_AppendLevel5_m3963841125
sti:_PositionAssertion_Compile_m2500980346
oud:_ArrayListWrapper_ToArray_m3192696690
WKc:_raccess_guess_linux_cap
bQ:__Z36AudioSource_Get_Custom_PropIsPlayingP12Il2CppObject
XBb:__Z19TransferField_ArrayI18StreamedBinaryReadILb0EE27Converter_UnityEngineObjectEvRK23StaticTransferFieldInfoR31RuntimeSerializationCommandInfoRT0_
Ood:_Attribute_GetCustomAttribute_m4034845276
wpc:__ZNK5Unity9rapidjson12GenericValueINS0_4UTF8IcEE13JSONAllocatorE6AcceptINS0_12PrettyWriterI16TempBufferWriterS3_S3_S4_EEEEbRT_
baa:__Z33InitializeBuiltinShaderParamNamesv
Kdg:_Type_GetConstructor_m2219014380
t5c:_CanvasUpdateRegistry_SortLayoutList_m471948466
S2:__ZNK16TypeTreeIterator4TypeEv
XJb:__ZN10FileSystem25MountDataFolderFileSystemERKN4core12basic_stringIcNS0_20StringStorageDefaultIcEEEES6_
njd:_ArgumentOutOfRangeException__ctor_m282481429
Svi:_GUILayoutUtility_Internal_MoveWindow_m3463958180
pj:_glGetUniformLocation
Kqa:__ZN13GfxDeviceGLES32CreateColorRenderSurfacePlatformEP17RenderSurfaceBase19RenderTextureFormat
tG:__ZN12AudioManager24CreateFMODSoundFromMovieEP9AudioClip
vRi:__ZN6il2cpp2vm13MetadataCache24GetGenericInstanceMethodEPK10MethodInfoPK20Il2CppGenericContext
rnj:_GC_hblk_fl_from_blocks
U0d:_MonoField_GetParentType_m2478933781
_0:__Z24ConvertSeparatorsToUnityPc
k0i:__ZN6il2cpp2gc19AppendOnlyGCHashMapINSt3__24pairIPK9EventInfoP11Il2CppClassEEP21Il2CppReflectionEvent17ReflectionMapHashIS9_ENS2_8equal_toIS9_EEE3AddERKS9_SB_
Ybh:_Collection_1_System_Collections_ICollection_CopyTo_m46221116_gshared
_6i:__ZN6il2cpp2vm6Thread20FreeThreadStaticDataEP12Il2CppThread
gMf:_Array_InternalArray__IndexOf_TisClientCertificateType_t1004704908_m3457772631_gshared
CAg:__Z28RuntimeInvoker_RuntimeObjectPFvvEPK10MethodInfoPvPS4_
jzc:_cf2_glyphpath_finalize
exh:__ZL56SecurityAction_t569814076_CustomAttributesCacheGeneratorP21CustomAttributesCache
Xlf:_X509Certificate_GetPublicKey_m4184729161
Std:_ArrayListWrapper_set_Capacity_m2373297383
GQe:_Text_get_cachedTextGenerator_m2506989875
fBj:dynCall_viififi
z$f:_Enumerator_System_Collections_IEnumerator_Reset_m502339360_AdjustorThunk
Moh:__ZL58DictionaryEntry_t3123975638_CustomAttributesCacheGeneratorP21CustomAttributesCache
wGi:_TextGenerator_GetVerticesInternal_m3222977969
c6g:_List_1_RemoveAt_m4279084788_gshared
LEc:_UNITY_FT_Stream_Free
N6i:__ZN15dense_hashtableINSt3__24pairIK10KeyWrapperINS1_IP11Il2CppClassjEEES4_EES6_N6il2cpp8metadata14ArrayClassHashEN14dense_hash_mapIS6_S4_SB_NS6_14EqualsComparerINSA_17ArrayClassCompareEEENS0_9allocatorIS8_EEE9SelectKeyESF_SH_E12maybe_shrinkEv
Kfd:_CryptoConfig_EncodeLongNumber_m4127306320
PSg:__Z87RuntimeInvoker_Void_t1185182177_Single_t1397266774_Single_t1397266774_SByte_t1669577662PFvvEPK10MethodInfoPvPS4_
Dae:_CipherSuite_createEncryptionCipher_m2533565116
QR:__ZN11UnityEngine15CloudWebService14DataDispatcher25OnDataBlockConsumedStaticEPv
a5g:_List_1_CheckIndex_m3044940639_gshared
sAg:_GenericStack__ctor_m933681517
hAb:__Z29Transfer_Blittable_ArrayFieldI18StreamedBinaryReadILb1EE11QuaternionfEvRT_R9ArrayInfoRK23StaticTransferFieldInfo
HOd:_Math_Max_m482125436
_De:_ActivatedServiceTypeEntry_ToString_m1591455874
nnf:_SecurityElement_ToXml_m3664345083
iQf:_Array_InternalArray__Insert_TisParameterModifier_t1461694466_m3664994573_gshared
H:Math_pow
xqg:_Mesh_get_tangents_m3279676290
Aia:__Z14resize_trimmedINSt3__26vectorIN9ShaderLab20SerializedSubProgram16SamplerParameterENS0_9allocatorIS4_EEEEEvRT_j
wsg:_PlayableHandle_GetPlayableType_Injected_m686992718
VZe:_Shadow_set_effectColor_m3910676693
Zxj:__ZNSt3__212basic_stringIcNS_11char_traitsIcEENS_9allocatorIcEEE6insertEjPKcj
uqc:__Z44InitializeTransferFunctionScriptingTraitsForI8JSONReadEvR31TransferFunctionScriptingTraits
LIb:__ZNSt3__27__sort4IRNS_4lessIN22BuiltinResourceManager8ResourceEEEPS3_EEjT0_S7_S7_S7_T_
p8e:_ListDictionary_Add_m3918308031
dfj:__ZNK15dense_hashtableINSt3__24pairIK10KeyWrapperIP12Il2CppObjectEN6il2cpp2gc9CachedCCWEEES5_NS7_5utils11PointerHashIS3_EEN14dense_hash_mapIS5_S9_SD_NS5_14EqualsComparerINS0_8equal_toIS4_EEEENS0_9allocatorISA_EEE9SelectKeyESI_SK_E23find_position_with_hashERS6_j
nQe:_Selectable_OnDisable_m3225138518
sGc:_UNITY_tt_face_get_location
Iyi:_AesManaged_CreateEncryptor_m1611897367
src:__ZL26Transfer_SimpleNativeClassI9JSONWrite17AnimationCurveTplIfELb0EEvRK29SerializationCommandArgumentsR31RuntimeSerializationCommandInfo
kYb:__ZN10GameObject34AddFirstTransformComponentInternalEP9Transform
Nfc:__Z31Cursor_Get_Custom_PropLockStatev
w8:__ZNSt3__26__treeINS_12__value_typeINS_4pairIPcS3_EENS_3setIS3_15compare_tstringIPKcENS_9allocatorIS3_EEEEEENS_19__map_value_compareIS4_SD_20smaller_tstring_pairIS8_ELb1EEENSA_ISD_EEE7destroyEPNS_11__tree_nodeISD_PvEE
TM:__ZN12AudioManager29GetCurrentAmbisonicDefinitionE31UnityAudioEffectDefinitionFlags
mgc:__Z52Register_UnityEngine_GameObject_GetComponentInParentv
jdb:__ZN15SerializeTraitsINSt3__24pairIPKN5Unity4TypeE7Hash128EEE8TransferI14SafeBinaryReadEEvRS7_RT_
Omj:_GC_number_stack_black_listed
Xyf:_Decimal_ToString_m4018746482_AdjustorThunk
xVb:__Z37GenerateCombinedDynamicVisibleListJobP11CullResults
PDe:_Dictionary_2_ToTKey_m2055624458_gshared
m6a:__ZNK13ScreenManager21GetCursorInsideWindowEv
oUd:_CustomAttributeData_GetCustomAttributes_m1033457578
n5d:_SafeHandle_DangerousAddRef_m614714386
xSb:__Z20IntersectAABBFrustumRK4AABBPK5Planej
NYe:_ScrollRect_OnDrag_m688583138
c7b:__ZN13RenderManager15InitializeClassEv
Kqb:__ZN15SerializeTraitsI12PropertyNameE8TransferI14SafeBinaryReadEEvRS0_RT_
f5h:_ReadOnlyCollection_1_System_Collections_IList_IndexOf_m3120991897_gshared
hJe:_Header__ctor_m1921907550
P_e:_Slider_FindSelectableOnUp_m4062600878
bsd:_Convert_ToSByte_m1350241137
ppg:_Material_SetIntImpl_m724477324
z7:__GLOBAL__sub_I_runtime_baseclasses_2_cpp
Bsc:__ZN9JSONWrite8TransferI11ColorRGBA32EEvRT_PKc17TransferMetaFlags
hvc:__Z22TransferField_NonArrayI8JSONRead27Converter_SimpleNativeClassI8GradientEEvRK23StaticTransferFieldInfoR31RuntimeSerializationCommandInfoRT0_
fFb:__ZN10MonoScript13AwakeFromLoadE17AwakeFromLoadMode
Chf:_Interval__ctor_m4022869013
$pd:_Boolean_System_IConvertible_ToUInt16_m3465173538
SPa:__ZN10MemoryFile21CreateFileSystemEntryE10MemLabelId14FilePermissionPvjb
FFa:__ZNK18GfxFramebufferGLES15DiscardContentsER12ObjectHandleI17RenderSurface_TagP17RenderSurfaceBaseE
F7d:_ARC4Managed_KeySetup_m2449315676
qSi:__ZN6il2cpp2vm13MetadataCache27GetEventDefinitionFromIndexEi
vCd:_Convert_ToUInt64_m92315402
Irc:__Z18Transfer_BlittableI9JSONWriteLb1EdEvRK29SerializationCommandArgumentsR31RuntimeSerializationCommandInfo
iFj:_glGetIntegerv__wrapper
tne:_InternalEnumerator_1_System_Collections_IEnumerator_get_Current_m435848551_gshared
q3:__ZN10GameObject28FinalizeAddComponentInternalEPN5Unity9ComponentE
DVh:__ZL57Image_t2670269651_CustomAttributesCacheGenerator_m_SpriteP21CustomAttributesCache
C3a:__ZN9Texture2DD2Ev
YAi:_AudioExtensionManager_GetReadyToPlay_m1557263244
SBd:_Convert_ToSingle_m164367433
W2h:_Array_InternalArray__get_Item_TisILTokenInfo_t2325775114_m3110830457_gshared
zAd:_Convert_ToDecimal_m1284410333
gkg:_Camera_INTERNAL_CALL_RaycastTry2D_m3172975827
Xvf:_DateTime_CheckStyle_m1392838900
Skd:_SmallXmlParser_ReadUntil_m2715581630
x8e:_NameObjectCollectionBase__ctor_m2090733912
tgf:_Group__cctor_m2230627219
zHf:_Array_InternalArray__ICollection_Contains_TisDouble_t594665363_m1696010878_gshared
Jo:FUNCTION_TABLE_viiiffi
q9d:_RSAManaged_EncryptValue_m4149543654
Pq:__ZN13dynamic_arrayIhLj1EE18resize_initializedEjRKh12ResizePolicy
wda:__ZN27IntermediateRendererManagerD2Ev
Rhb:__ZN17PersistentManager27GetLoadErrorMessageFromPathERKN4core12basic_stringIcNS0_20StringStorageDefaultIcEEEE
Jli:_NetscapeCertTypeExtension_ToString_m1800688476
cm:_glGenRenderbuffers
R8i:__ZN6il2cpp6icalls8mscorlib6System2IO6MonoIO19GetCurrentDirectoryEPi
Tvg:_Renderer_get_sortingOrder_m344607889
kTb:__Z21IntersectSegmentPlaneRK8Vector3fS1_RK5PlanePS_
UIg:__Z81RuntimeInvoker_Void_t1185182177_Int64_t3736567304_RuntimeObject_Int32_t2950945753PFvvEPK10MethodInfoPvPS4_
WZh:__ZL50Outline_t2536100125_CustomAttributesCacheGeneratorP21CustomAttributesCache
Ldb:__ZN14PlayerSettings23VirtualRedirectTransferER17RemapPPtrTransfer
wui:_Uri_get_IsFile_m2450018824
Mba:__ZN14CachingManager7DisposeEv
JM:__ZN12AudioManager31GetCurrentSpatializerDefinitionEv
X7e:_HybridDictionary_Add_m912320053
obb:__ZN12MeshRenderer16UpdateCachedMeshEv
Sxi:_KeyBuilder_IV_m3340234014
qqb:__Z19TransferField_ArrayI14SafeBinaryRead27Converter_SimpleNativeClassI8GradientEEvRK23StaticTransferFieldInfoR31RuntimeSerializationCommandInfoRT0_
WTf:_DefaultComparer_Equals_m1163494476_gshared
sIf:_Array_InternalArray__ICollection_Remove_TisDictionaryEntry_t3123975638_m3699186409_gshared
XRd:_Object_Equals_m1397037629
Xy:__ZNK27StateMachineBehaviourPlayer25FireStateMachineBehaviourEiiN7mecanim12statemachine19StateMachineMessageE
Fig:_AsyncOperation_t1445031843_marshal_pinvoke_back
_7:__GLOBAL__sub_I_runtime_utilities_4_cpp
Otg:_Rect_get_center_m138276653
PXb:__ZN6Camera15SetOrthographicEb
SAc:_UNITY_FT_Stream_GetUShort
ypa:__ZN13GfxDeviceGLES14DisableScissorEv
OMg:__Z240RuntimeInvoker_RuntimeObject_Int16_t2552820387_RuntimeObject_Int32_t2950945753_Int32_t2950945753_Int32_t2950945753_SByte_t1669577662_SByte_t1669577662_SByte_t1669577662_SByte_t1669577662_Int16_t2552820387_SByte_t1669577662_SByte_t1669577662PFvvEPK10MethodInfoPvPS4_
ljg:_Bounds_get_size_m1178783246_AdjustorThunk
pHc:_tt_get_var_blend
$Fg:__Z64RuntimeInvoker_Double_t594665363_RuntimeObject_Int32_t2950945753PFvvEPK10MethodInfoPvPS4_
Rke:_InternalEnumerator_1_System_Collections_IEnumerator_get_Current_m2141782011_AdjustorThunk
zyf:_Decimal_decimalMult_m3812462972
Zee:_RecordProtocol_BeginSendRecord_m615249746
Cc:_glVertexAttrib4f
j2f:_Enumerator_System_Collections_IEnumerator_get_Current_m209407522_AdjustorThunk
cmg:_Display_get_systemHeight_m730809466
u3f:_List_1_System_Collections_IList_Insert_m4074493513_gshared
YIc:__ZNSt3__26vectorINS_4pairINS1_IttEEfEENS_9allocatorIS3_EEE8__appendEj
sui:_Uri_GetOpaqueWiseSchemeDelimiter_m1909471550
qoj:_GC_set_hdr_marks
hWa:__Z17SetupObjectMatrixRK10Matrix4x4fi
URf:_Dictionary_2_OnDeserialization_m1254782141_gshared
z8:__ZN13RuntimeStaticINSt3__23mapINS0_4pairIPcS3_EEPFbPvR14SafeBinaryReadE20smaller_tstring_pairIPKcENS0_9allocatorINS2_IKS4_S9_EEEEEELb0EE13StaticDestroyES5_
VJd:_FileStream_FlushBufferIfDirty_m4249802951
oue:_DefaultComparer_Compare_m1916473435_gshared
GBd:_Convert_ToSByte_m2653811524
CKc:_open_face
M5b:__ZZL31RegisterOtherRendererPropertiesR22GenericPropertyBindingEN30Wrapper_RendererReceiveShadows13SetFloatValueEPvf
FQc:__Z17RegisterModule_UIv
sA:__ZN8Animator24SortJobsBasedOnHierarchyERK13dynamic_arrayINS_11AnimatorJobELj8EERS0_IS2_Lj4EE
pPd:_MonoCustomAttrs_GetCustomAttributes_m1347331976
Tqg:_Mesh_Clear_m2630385472
tGg:__Z46RuntimeInvoker_RuntimeObject_Int16_t2552820387PFvvEPK10MethodInfoPvPS4_
pqa:__ZN9GfxDevice24CreateRenderDepthSurfaceE9TextureIDiiii16TextureDimension17DepthBufferFormat18SurfaceCreateFlags
SHe:_SynchronizationAttribute_set_Locked_m2760363037
ADd:_Int16_Equals_m82811458
_8d:_PrivateKeyInfo_Decode_m986145117
Qug:_RectOffset_get_top_m2855347295
lG:__ZN4FMOD5Sound11setUserDataEPv
Dha:__ZN14SafeBinaryRead21TransferSTLStyleArrayINSt3__26vectorIN9ShaderLab19SerializedSubShaderENS1_9allocatorIS4_EEEEEEvRT_17TransferMetaFlags
i0c:_ExecuteEvents_Execute_m533210008
sFg:__Z137RuntimeInvoker_Void_t1185182177_Int32_t2950945753_RuntimeObject_RuntimeObject_RuntimeObject_RuntimeObject_RuntimeObject_SByte_t1669577662PFvvEPK10MethodInfoPvPS4_
VGf:_Guid_op_Equality_m4289903222
Rw:__ZN27AnimationLayerMixerPlayable13SetInputCountEi
nPa:__ZNK25SingleBlockMemoryFileData4SizeEv
cB:__ZN9BlobWrite8TransferIN7mecanim12statemachine18StateMachineMemoryEEEvRT_PKc17TransferMetaFlags
jK:__ZL50UnityAudioEffect_InternalSetFloatParameterCallbackP14FMOD_DSP_STATEif
Mej:__ZNK15dense_hashtableINSt3__24pairIK10KeyWrapperIP12Il2CppObjectEN6il2cpp2gc9CachedCCWEEES5_NS7_5utils11PointerHashIS3_EEN14dense_hash_mapIS5_S9_SD_NS5_14EqualsComparerINS0_8equal_toIS4_EEEENS0_9allocatorISA_EEE9SelectKeyESI_SK_E3endEv
vuf:_DateTime_System_IConvertible_ToUInt32_m3781235049
rCg:__Z92RuntimeInvoker_Int32_t2950945753_RuntimeObject_RuntimeObject_SByte_t1669577662_RuntimeObjectPFvvEPK10MethodInfoPvPS4_
DGd:_Int64_System_IConvertible_ToType_m3223988955
rUb:__ZN14qsort_internal5QSortIP16RenderObjectDatai25RenderPrePassObjectSorterEEvT_S4_T0_T1_
Vkf:_SymmetricAlgorithm_Dispose_m1120980942
Dba:__ZL19StaticCleanupPlayerPv
qPd:_MonoCustomAttrs_RetrieveAttributeUsage_m2717094301
IId:_DirectoryInfo_Initialize_m1389772934
E8b:__ZN13PlayableGraph4StopEv
$hg:_AnimationCurve_Init_m425927913
gL:__ZN12AudioManager37RebindAudioSourcesAndSubMixersToMixerEP10AudioMixer
SJa:__ZN9Behaviour10DeactivateE19DeactivateOperation
cTe:_LayoutGroup_DelayedSetDirty_m2562435574
b2a:__ZN13StreamingInfo8TransferI14SafeBinaryReadEEvRT_
eia:__ZN15dense_hashtableINSt3__24pairIKiN4core17string_with_labelILi1EEEEEi18SInt32HashFunctionN14dense_hash_mapIiS5_S7_NS0_8equal_toIiEE13stl_allocatorIS6_L18MemLabelIdentifier1ELi16EEE9SelectKeyESA_SD_E15insert_noresizeERKS6_
sij:__ZN6il2cpp2vmL22RaiseOverflowExceptionEv
Pp:__Z23CalculateGlobalRotation23TransformAccessReadOnly
Jma:__ZNK9ShaderLab7Program11IsSupportedEPK6Shader
O$:__ZNK4core8hash_mapIPKcPK4RTTIN11TypeManager23ConstCharPtrHashFunctorENS6_19ConstCharPtrEqualToEE6lookupERKS2_
H_d:_TypeBuilder_GetMethodImpl_m3583143647
_Yh:__ZL54LayoutGroup_t2436138090_CustomAttributesCacheGeneratorP21CustomAttributesCache
hxj:_strcat
J5b:__Z43InitializeRendererAnimationBindingInterfacev
Uaa:__ZL26DestroyGameObjectRecursiveR10GameObjectR11BatchDelete
Hoj:_GC_allochblk_nth
g_c:_BaseInput_get_touchSupported_m2634027966
TYe:_ScrollRect_get_vScrollingNeeded_m1717136831
hyi:_SymmetricTransform_FinalEncrypt_m748885414
X4b:__Z7HaloTexP9Texture2DPhiiii
RBj:dynCall_i
brb:__ZN14SafeBinaryRead21TransferSTLStyleArrayI13dynamic_arrayIxLj8EEEEvRT_17TransferMetaFlags
dBj:dynCall_f
m8e:_ListDictionary_GetEnumerator_m3395631195
Cub:__Z35Transfer_Blittable_FixedBufferFieldI24GenerateTypeTreeTransferjEvRK29SerializationCommandArgumentsR31RuntimeSerializationCommandInfo
t5e:_KeyPairPersistence_Save_m3111435398
xAj:dynCall_v
QDa:__ZN7ApiGLES14TextureSamplerEjjRK24GfxTextureSamplingParams17TextureColorSpace
pyd:_SortedList_System_Collections_IEnumerable_GetEnumerator_m2738760439
q7i:__ZN6il2cpp2vm6Thread8SetStateEP12Il2CppThreadNS0_11ThreadStateE
pSa:__ZN6Camera23VirtualRedirectTransferER14SafeBinaryRead
iig:_Application_get_isEditor_m857789090
KUc:__ZN11UnityEngine7Connect13ConnectConfig11ConfigValueD2Ev
NEa:__ZNSt3__26__treeINS_12__value_typeIjP14DataBufferGLESEENS_19__map_value_compareIjS4_NS_4lessIjEELb1EEENS_9allocatorIS4_EEE7destroyEPNS_11__tree_nodeIS4_PvEE
w7d:_ASN1Convert_ToInt32_m2228176117
Cig:_AssetBundleRequest_t699759206_marshal_pinvoke_back
R8b:__ZN13PlayableGraph15SetPrepareStageE13DirectorStage
xb:invoke_viiiiiiii
bDd:_Int16_System_IConvertible_ToDateTime_m3080274979_AdjustorThunk
SEa:__ZN18GfxFramebufferGLES24UpdateDefaultFramebufferEP17RenderSurfaceBaseS1_N2gl6HandleILNS2_10ObjectTypeE9EEE
_Lg:__Z74RuntimeInvoker_RuntimeObject_RuntimeObject_Double_t594665363_RuntimeObjectPFvvEPK10MethodInfoPvPS4_
VJi:_Animator_ResetTrigger_m2321267720
leb:__ZN18StreamedBinaryReadILb0EE21TransferSTLStyleArrayI13dynamic_arrayIiLj4EEEEvRT_17TransferMetaFlags
g4a:__ZN16LightmapSettings5ResetEv
OMa:__ZN12FileAccessor4ReadEyPvPy
hCg:__Z67RuntimeInvoker_Void_t1185182177_Int16_t2552820387_Int32_t2950945753PFvvEPK10MethodInfoPvPS4_
Xnc:__Z42Register_UnityEngine_Event_get_commandNamev
zhh:_Collection_1_IsValidItem_m714924194_gshared
xpc:__ZN5Unity9rapidjson12PrettyWriterI16TempBufferWriterNS0_4UTF8IcEES4_13JSONAllocatorE12PrettyPrefixENS0_4TypeE
N7f:_UnicodeEncoding_GetString_m332467280
fec:__ZN8TypeTreeC2E10MemLabelId
G1:__ZNK15FileSystemEntry6ExistsEv
Obb:__ZNK9Transform21GetLocalToWorldMatrixER10Matrix4x4f
kyg:_Transform_INTERNAL_get_rotation_m2413441996
h3c:_TouchInputModule_IsModuleSupported_m384818291
_vf:_DateTime_ToString_m884486936
m8d:_MD4Managed_HashCore_m3384203071
oH:__ZN13AudioListener23VirtualRedirectTransferER19StreamedBinaryWriteILb0EE
Hbe:_ClientRecordProtocol_createClientHandshakeMessage_m3325677558
gra:__ZN13GfxDeviceGLES11CopyTextureE9TextureIDS0_
Dyd:_SortedList_get_Capacity_m919184864
tEj:_emscripten_glViewport__wrapper
ST:__ZN11UnityEngine15CloudWebService23WebRequestUploadHandler13GetUploadDataERj
Mkg:_Color32_ToString_m403383053_AdjustorThunk
Gqf:_String_IndexOfOrdinalUnchecked_m460601827
$Hi:_Canvas_get_sortingOrder_m1860900812
IFe:_ConfigHandler_ReadChannel_m781299361
Utg:_Rect_get_max_m350137314
NNg:__Z99RuntimeInvoker_Void_t1185182177_Int32_t2950945753_Int32_t2950945753_SByte_t1669577662_RuntimeObjectPFvvEPK10MethodInfoPvPS4_
qFc:_tt_size_select
_Fe:_InternalRemotingServices_GetCachedSoapAttribute_m1042302982
gS:__ZN11UnityEngine15CloudWebService17SessionEventQueue15RestoreFromFileER12FileAccessorPvy
yVd:_ConstructorBuilder_GetILGenerator_m1421260830
E9i:__ZN6il2cpp2vm9Exception25RaiseOutOfMemoryExceptionEv
Cdb:__ZN14PlayerSettingsD2Ev
PUe:_RectMask2D_RemoveClippable_m773604960
Sjh:__ZL51Attribute_t861562559_CustomAttributesCacheGeneratorP21CustomAttributesCache
EOd:_Math_Ceiling_m625148210
vnj:_GC_reclaim_all
pea:__ZN13PlayableGraph14DestroyOutputsEv
Uah:_Enumerator_System_Collections_IEnumerator_get_Current_m3895111131_gshared
kf:___syscall122
DAd:_Convert_ToDecimal_m2858622624
kSd:_OperatingSystem__ctor_m1545635730
h4g:_List_1_RemoveAll_m2406195485_gshared
gnb:__ZNK17InstancingBatcher25FillInstanceBufferWithJobIN10Instancing11DrawAPIArgsEEEvR8JobFenceR13dynamic_arrayIPvLj4EEjjRKT_
FO:__ZN9AudioClip16EnableLegacyModeEv
sHe:_Context_DoCallBack_m749197451
FIi:_CanvasRenderer_set_materialCount_m4286588063
Bfc:__Z52Register_UnityEngine_Camera_INTERNAL_CALL_RaycastTryv
Qwj:_mkdir
Ozi:_VerticalLayoutGroup_SetLayoutHorizontal_m84550911
R9e:_HttpWebRequest_get_ServicePoint_m3916606901
irj:__GLOBAL__sub_I_MemoryMappedFile_cpp
F1f:_Enumerator_MoveNext_m29052175_AdjustorThunk
twg:_SendMouseEvents_SetMouseMoved_m2822596724
Idc:__ZN18ScriptingArguments13CopyFromOtherERKS_
m7e:_PKCS12_ReadSafeBag_m1585166574
zHc:_ps_hints_close
q7b:__Z16CreateRenderLoopR6Camera
pEb:__ZN32SerializationCommandQueueBuilder3AddERK20SerializationCommand
WW:_tlsf_create
z9h:_ReadOnlyCollection_1_System_Collections_IEnumerable_GetEnumerator_m2505713430_gshared
Peb:__ZN14SafeBinaryRead21TransferSTLStyleArrayINSt3__26vectorIN15ResourceManager10DependencyE13stl_allocatorIS4_L18MemLabelIdentifier52ELi16EEEEEEvRT_17TransferMetaFlags
IDb:__ZN13MonoBehaviour23VirtualRedirectTransferER18StreamedBinaryReadILb0EE
Dja:__ZN9ShaderLab20SerializedSubProgramC2ERKS0_
zJd:_FileLoadException__ctor_m3879680456
C2h:_Array_InternalArray__get_Item_TisKeyValuePair_2_t71524366_m252172060_gshared
Ryj:__ZNK10__cxxabiv121__vmi_class_type_info27has_unambiguous_public_baseEPNS_19__dynamic_cast_infoEPvi
YQd:_MulticastDelegate_CombineImpl_m2857239134
Jhg:_Version_op_Inequality_m1696193441
h5d:_Marshal_ReadByte_m1960935664
n5a:__ZN15QualitySettings23VirtualRedirectTransferER19StreamedBinaryWriteILb0EE
zQb:__Z20RenderFullScreenQuadR9GfxDeviceRK6Camera17ShaderChannelMaskRK5RectTIfEf21MonoOrStereoscopicEye
gud:_ArrayListWrapper_CopyTo_m3756520478
R3d:_ResourceInfo_t2872965302_marshal_pinvoke
W5b:__ZN8Material8GetFloatEN9ShaderLab16FastPropertyNameE
fmc:__Z11GetGUIStatev
kg:_glGetActiveUniform
sMf:_Array_InternalArray__IndexOf_TisSlot_t3975888750_m4250446283_gshared
pHd:_IntPtr__ctor_m620280096_AdjustorThunk
rg:_emscripten_glGetObjectParameterivARB
Isi:_CharacterClass_AddCharacter_m2370152363
b7:__ZN15SerializeTraitsI10ColorRGBAfE8TransferI14SafeBinaryReadEEvRS0_RT_
O4h:_Collection_1_IsValidItem_m2333176545_gshared
Aba:__ZN22BuiltinResourceManager13StaticDestroyEPv
NPi:__ZN15dense_hashtableINSt3__24pairIK10KeyWrapperIN6il2cpp5utils13dynamic_arrayIPK10Il2CppTypeLj4EEEEPFvvEEESA_NS3_8metadata19Il2CppSignatureHashEN14dense_hash_mapISA_SD_SG_NSA_14EqualsComparerINSF_22Il2CppSignatureCompareEEENS0_9allocatorISE_EEE9SelectKeyESK_SM_E4findERSB_
Maa:__ZN10GameObject17GetComponentIndexEPN5Unity9ComponentE
T6a:__ZN14SafeBinaryRead21TransferSTLStyleArrayI13dynamic_arrayI7SubMeshLj4EEEEvRT_17TransferMetaFlags
l_h:_Array_InternalArray__set_Item_TisILTokenInfo_t2325775114_m309595583_gshared
ELc:__ZNK13TextRendering4Font11GetMaterialEv
XJ:__ZN29AudioEffectInternalDefinition9CreateDSPEPN4FMOD6SystemEPvPfP23UnityAudioAmbisonicDataPP25UnityAudioSpatializerData
fHc:_UNITY_tt_face_vary_cvt
o1e:_SimpleCollator_ClearBuffer_m2975394169
cvi:_Event_Internal_GetMousePosition_m1101229675
NZb:__ZN35RegisterRuntimeInitializeAndCleanup22ExecuteInitializationsEv
Hlf:_TripleDESCryptoServiceProvider_CreateEncryptor_m450924958
cui:_UriParser_GetParser_m544052729
hRe:_Text_get_font_m2857203289
rLa:__ZN23PreloadManagerOperation14SetFinalTimingEffff
i:DYNAMICTOP_PTR
eZd:_MethodBuilder_fixup_m1765890582
FNe:_ObjectReader_ReadSimpleArray_m428957657
mdb:__ZN13BuildSettings8TransferI18StreamedBinaryReadILb0EEEEvRT_
XOd:_MissingFieldException__ctor_m4282575076
tyf:_Decimal_Equals_m2592017260
pGe:_ConfigHandler_OnEndParsing_m3764034673
sGe:_RemotingConfiguration_RegisterTypes_m2378540395
Tkc:__Z38Renderer_Get_Custom_PropSortingLayerIDP12Il2CppObject
bpe:_InternalEnumerator_1_System_Collections_IEnumerator_get_Current_m767948013_gshared
dlg:_DelegatePInvokeWrapper_CSSMeasureFunc_t1554030124
pig:_UnityAction_Invoke_m893829196
aMa:__ZN14AsyncOperationD0Ev
pva:__Z29TextureIdMapGLES_QueryOrAlloc9TextureID
J$i:__ZN15dense_hashtableINSt3__24pairIK10KeyWrapperINS1_IPK12PropertyInfoP11Il2CppClassEEEjEES9_17ReflectionMapHashIS8_EN14dense_hash_mapIS9_jSD_NS9_14EqualsComparerINS0_8equal_toIS8_EEEENS0_9allocatorISB_EEE9SelectKeyESI_SK_E12resize_deltaEjj
rkg:_Color_GetHashCode_m1829208463
$cc:__Z25scripting_raise_exception21ScriptingExceptionPtr
PRe:_Text_get_cachedTextGeneratorForLayout_m116487342
rKi:__ZL11decimalLog2P19il2cpp_decimal_repr
Yeb:__ZN15ResourceManager10Dependency8TransferI14SafeBinaryReadEEvRT_
Gfh:_Collection_1_System_Collections_IList_Remove_m3800279569_gshared
Zmj:_GC_extend_size_map
i$e:_Text_FontTextureChanged_m495427969
xEd:_NumberFormatter_RoundDecimal_m2957290908
zK:__ZN4FMOD6System9setDriverEi
xY:__ZNK9Transform11GetRotationEv
zFj:_emscripten_glGetIntegerv__wrapper
GK:__ZN12AudioManager15DidReloadDomainEv
eOf:_Array_InternalArray__ICollection_Add_TisSingle_t1397266774_m1873979703_gshared
WHc:_pshinter_get_globals_funcs
Dub:__Z18Transfer_BlittableI24GenerateTypeTreeTransferLb0EyEvRK29SerializationCommandArgumentsR31RuntimeSerializationCommandInfo
s$a:__ZN8Material14CreateMaterialER6ShaderN6Object9HideFlagsEb
Ibg:_TimeSpan_get_Minutes_m4278980001_AdjustorThunk
dEc:_tt_cmap12_char_map_binary
tvi:_GUI__cctor_m3051457990
k$c:_EventSystem_IsPointerOverGameObject_m1911785875
l5:__Z25GetBuiltinResourceManagerv
jej:__ZN6il2cpp2gc8GCHandle15GetTargetHandleEP12Il2CppObjectii
kFd:_Int32_System_IConvertible_ToByte_m3832391412
Jh:_llvm_trap
haa:__ZNSt3__27__sort5IRNS_6__lessIN12_GLOBAL__N_114ParamNameIndexES3_EEPS3_EEjT0_S7_S7_S7_S7_T_
ini:_X509Certificate_VerifySignature_m3988463526
gvg:_RectTransform_get_anchoredPosition_m1813443094
unj:_get_index
KCd:_GuidParser_AtEnd_m3409982497
Z4e:_KeyBuilder_Key_m876696100
jse:_InternalEnumerator_1_System_Collections_IEnumerator_get_Current_m2164048921_gshared
LYi:__ZN15dense_hashtableINSt3__24pairIK10KeyWrapperINS1_IPK14Il2CppAssemblyP11Il2CppClassEEEjEES9_17ReflectionMapHashIS8_EN14dense_hash_mapIS9_jSD_NS9_14EqualsComparerINS0_8equal_toIS8_EEEENS0_9allocatorISB_EEE9SelectKeyESI_SK_EC2ERKSN_j
lTi:__ZN6il2cpp2vm21ThreadPoolCompartment12DetachThreadEP12Il2CppThread
Bed:_SByte_System_IConvertible_ToInt16_m885121451_AdjustorThunk
uxf:_Decimal_stripStyles_m1823381019
Fqa:__ZN13GfxDeviceGLES30SetBackBufferColorDepthSurfaceEP17RenderSurfaceBaseS1_
Loc:__Z52Register_UnityEngine_GUIUtility_get_systemCopyBufferv
j2h:_LayoutGroup_SetProperty_TisBoolean_t97287965_m3903959758_gshared
b9b:__ZN16StreamedResource8TransferI18StreamedBinaryReadILb0EEEEvRT_
Hhc:__Z49Register_UnityEngine_Input_get_imeCompositionModev
Nwg:_Sprite_INTERNAL_get_rect_m1600380876
dia:__ZN15dense_hashtableINSt3__24pairIKiN4core17string_with_labelILi1EEEEEi18SInt32HashFunctionN14dense_hash_mapIiS5_S7_NS0_8equal_toIiEE13stl_allocatorIS6_L18MemLabelIdentifier1ELi16EEE9SelectKeyESA_SD_E12resize_deltaEjj
MWb:__ZNK20OcclusionCullingData22GetStaticRendererCountEv
rwc:__GLOBAL__sub_I_runtime_particlesystem_modules_5_cpp
gJj:_emscripten_glDisableVertexAttribArray__wrapper
_Rd:_Object_InternalGetHashCode_m4213713973
bQd:_MonoType_GetAttributeFlagsImpl_m167182975
L9d:_EncryptedData_get_EncryptedContent_m3205649670
qbb:__ZN12MeshRenderer18CalculateLocalAABBER4AABBRKS_RK4Mesh
PV:__ZN21UnityDefaultAllocatorI17LowLevelAllocatorE8AllocateEji
nx:__ZN7mecanim5human14HumanPoseClearERNS0_9HumanPoseERKNS_6bitsetILj83EEE
rOc:__ZL28InitializeUIScriptingClassesv
JQg:__Z54RuntimeInvoker_Vector2_t2156229523_Vector3_t3722313464PFvvEPK10MethodInfoPvPS4_
wHb:__ZN10UnityScene10ClearRootsEv
i9h:_ReadOnlyCollection_1_System_Collections_IList_set_Item_m2162444692_gshared
flb:__ZN12HandlerChain10AtomicMoveER13FileEntryDataS1_
VGa:__ZN9GfxDevice17HasGPUFencePassedEPv
Vda:__ZZN15DirectorManager15InitializeClassEvEN48PreLateUpdateDirectorDeferredEvaluateRegistrator7ForwardEv
qxc:__ZN20SpeedTreeWindManager6UpdateEf
YGg:__Z68RuntimeInvoker_Int64_t3736567304_IntPtr_t_MonoIOErrorU26_t1548853198PFvvEPK10MethodInfoPvPS4_
RC:__ZN7mecanim9animation20CreateAvatarConstantEPNS_8skeleton8SkeletonEPNS1_13SkeletonPoseTIN4math4trsXEEES8_PNS_5human5HumanES3_iRKS6_RNS_6memory9AllocatorE
Nab:__ZN14CompressedMesh8TransferI19StreamedBinaryWriteILb0EEEEvRT_
XPf:_Array_InternalArray__Insert_TisDouble_t594665363_m675699942_gshared
t6g:_List_1_System_Collections_IList_Add_m3014885234_gshared
ogi:_UnityAction_1_Invoke_m3535252839_gshared
slj:__ZNK6il2cpp5utils13VmStringUtils21CaseSensitiveComparerclERKNSt3__212basic_stringIcNS3_11char_traitsIcEENS3_9allocatorIcEEEEPKc
EZe:_Selectable_set_isPointerInside_m701571657
vVa:__ZN24GenerateTypeTreeTransfer8TransferI21PlatformShaderDefinesEEvRT_PKc17TransferMetaFlags
Geb:__ZNK15ResourceManager22GetTypeVirtualInternalEv
$bj:__ZN6il2cpp2vmL36AddNestedTypesToNametoClassHashTableEPK11Il2CppImagePK20Il2CppTypeDefinition
d8g:_List_1_set_Capacity_m2707586410_gshared
mrg:_PlayerConnection_MessageCallbackInternal_m1914517467
Pig:_AttributeHelperEngine__cctor_m1900959362
FIc:__ZN13TextRendering4Font23VirtualRedirectTransferER24GenerateTypeTreeTransfer
LVh:__ZL102Image_t2670269651_CustomAttributesCacheGenerator_Image_t2670269651____eventAlphaThreshold_PropertyInfoP21CustomAttributesCache
Ubf:_X509SubjectKeyIdentifierExtension_ToString_m12089275
mTg:__Z106RuntimeInvoker_RuntimeObject_RuntimeObject_Int32_t2950945753_Int16_t2552820387_RuntimeObject_RuntimeObjectPFvvEPK10MethodInfoPvPS4_
chg:_UnhandledExceptionEventArgs__ctor_m224348470
g0b:__ZL16MouseMoveHandleriPK20EmscriptenMouseEventPv
iMf:_Array_InternalArray__IndexOf_TisByte_t1134296376_m929524687_gshared
kP:__ZN11AudioSource15InitializeClassEv
o0c:_ExecuteEvents_get_dragHandler_m3849431675
aQb:__ZN11HaloManager17RenderGeometryJobEP25DynamicVBOGeometryJobDataj
Crg:_Object_DestroyImmediate_m2288369078
h4e:_BitConverterLE_UShortFromBytes_m1253080092
fE:__ZNSt3__227__insertion_sort_incompleteIRPFbN7mecanim9animation13MuscleIndexIdES3_EPS3_EEbT0_S8_T_
sJj:_emscripten_glBlendEquation__wrapper
e6i:__ZN15dense_hashtableINSt3__24pairIK10KeyWrapperIP11Il2CppClassES4_EES5_N6il2cpp8metadata16SZArrayClassHashEN14dense_hash_mapIS5_S4_SA_NS5_14EqualsComparerINS9_19SZArrayClassCompareEEENS0_9allocatorIS7_EEE9SelectKeyESE_SG_E13set_empty_keyERKS7_
Kxj:__ZNSt3__212basic_stringIcNS_11char_traitsIcEENS_9allocatorIcEEE6__initEPKcj
Qj:_emscripten_set_fullscreenchange_callback
Qbi:_ReadOnlyCollection_1_System_Collections_IList_Insert_m4085855595_gshared
bqi:_PatternCompiler_NewLink_m3699449496
$U:__ZN11UnityEngine15CloudWebService14DataDispatcher22ResetNetworkRetryIndexEv
Vj:_emscripten_glDrawArrays
qpg:_Material_HasProperty_m2704238996
tKb:__ZZ23InitPlayerLoopCallbacksvEN43EarlyUpdateExecuteMainThreadJobsRegistrator7ForwardEv
CU:__ZN11UnityEngine15CloudWebService19SessionEventManagerC2Ev
esd:_Char_System_IConvertible_ToSingle_m2690985411_AdjustorThunk
Oci:_Comparison_1_Invoke_m668117148_gshared
d8e:_DictionaryNodeEnumerator_FailFast_m2494733641
I6:__ZN14GfxDoubleCacheIyP17VertexDeclaration14GfxGenericHashIyENSt3__28equal_toIyEEN31GfxDoubleCacheConcurrencyPolicy11LocklessGetE42GfxDoubleCacheDefaultEmptyDeletedGeneratorIyEE3GetI15VertDeclCreatorEERKS1_RKyT_
nZc:__ZN13RuntimeStaticI14dynamic_bitsetLb0EE16StaticInitializeEPv
Cga:__ZNSt3__222__merge_move_constructIRNS_4lessIN4core12basic_stringIcNS2_20StringStorageDefaultIcEEEEEENS_11__wrap_iterIPS6_EESB_EEvT0_SC_T1_SD_PNS_15iterator_traitsISC_E10value_typeET_
qfc:__Z41Register_UnityEngine_Camera_get_eventMaskv
AP:__ZL19CleanupModule_Audiov
fif:_IntervalCollection_CopyTo_m2976848759
g5c:_CanvasUpdateRegistry_ObjectValidForUpdate_m2723813849
gDa:__ZN18GlslGpuProgramGLES25LoadFromBinaryShaderCacheERjRKN4core12basic_stringIcNS1_20StringStorageDefaultIcEEEER17ShaderChannelMaskPKc
i4g:_List_1_RemoveAt_m1433290785_gshared
Hrb:__Z29Transfer_Blittable_ArrayFieldI14SafeBinaryReadiEvRT_R9ArrayInfoRK23StaticTransferFieldInfo
bUi:__ZN6il2cpp6icalls8mscorlib6System8MonoType8GetFieldEP20Il2CppReflectionTypeP12Il2CppStringi
gQi:__ZN15dense_hashtableINSt3__24pairIK10KeyWrapperIN6il2cpp5utils13dynamic_arrayIPK10Il2CppTypeLj4EEEEPFvvEEESA_NS3_8metadata19Il2CppSignatureHashEN14dense_hash_mapISA_SD_SG_NSA_14EqualsComparerINSF_22Il2CppSignatureCompareEEENS0_9allocatorISE_EEE9SelectKeyESK_SM_E5clearEv
ckf:_SHA256Managed_ProcessBlock_m2297835517
OFj:_emscripten_glVertexAttrib3fv__wrapper
flg:_CSSMeasureFunc_Invoke_m3910201085
Czd:_Convert_ToBoolean_m4098720762
Kbi:_ReadOnlyCollection_1_System_Collections_ICollection_CopyTo_m511916545_gshared
cJf:_Array_InternalArray__ICollection_Remove_TisOrderBlock_t1585977831_m1449044465_gshared
hHi:_DisplayBuffer_OnCommand_m444302511
sTd:_AssemblyName__ctor_m1753467291
l_e:_Slider_set_minValue_m3431883418
lcc:__ZN8Material10GetTextureEN9ShaderLab16FastPropertyNameE
$ze:_Enumerator_System_Collections_IEnumerator_get_Current_m1657817602_gshared
Aab:__ZN18StreamedBinaryReadILb0EE21TransferSTLStyleArrayI13dynamic_arrayI10Matrix4x4fLj16EEEEvRT_17TransferMetaFlags
x3b:__ZNK28MonoBehaviourPropertyBinding13GetFloatValueERKN11UnityEngine9Animation10BoundCurveE
kpj:_GC_generic_malloc
lbf:_WebHeaderCollection_get_Keys_m910440889
GGa:__Z19GetVertexFormatSize12VertexFormat
up:__ZN14SafeBinaryRead21TransferSTLStyleArrayI13dynamic_arrayIiLj4EEEEvRT_17TransferMetaFlags
iAg:_Vector4__cctor_m2519631228
FZb:__ZNK18ScreenManagerWebGL13GetShowCursorEv
Ytd:_ArrayListWrapper_Clear_m2625302714
KJj:_emscripten_glIsTexture__wrapper
$ae:_CipherSuiteCollection_System_Collections_IEnumerable_GetEnumerator_m3240848888
fzj:_llvm_bswap_i32
xCd:_Convert_ToUInt64_m1627266664
hqa:__ZN9GfxDevice25ReleaseAsyncCommandHeaderEPN21GfxDeviceAsyncCommand3ArgE
Wni:_X509Crl_Parse_m3164013387
Pub:__ZL22Transfer_ManagedObjectI24GenerateTypeTreeTransferLb0EEvRK29SerializationCommandArgumentsR31RuntimeSerializationCommandInfo
JDb:__ZN13MonoBehaviour23VirtualRedirectTransferER17RemapPPtrTransfer
tGa:__ZN21UniformBufferTFMethod20IsBoneCountSupportedEi
Ekg:_Color_get_black_m719512684
Gbd:_HorizontalLayoutGroup_CalculateLayoutInputHorizontal_m750541069
Vij:__ZN6il2cpp6icalls8mscorlib6System11Environment11get_NewLineEv
Bef:_X509CertificateCollection__ctor_m1395805580
s3d:_ResourceReader_CreateResourceInfo_m1818330740
sce:_ClientSessionInfo_Dispose_m3253728296
o$a:__ZN6Shader27MarkShaderStateNotSupportedEPKS_
zrg:_Object_Internal_CloneSingle_m1021157572
WFa:__ZN25TransformFeedbackSkinning8SkinMeshERK18VertexStreamSourceP9GfxBufferP17GPUSkinPoseBufferS4_ii17ShaderChannelMaskb
Abj:__ZN15dense_hashtableINSt3__24pairIK10KeyWrapperIP14Il2CppIUnknownEjEES5_N6il2cpp5utils11PointerHashIS3_EEN14dense_hash_mapIS5_jSB_NS5_14EqualsComparerINS0_8equal_toIS4_EEEENS0_9allocatorIS7_EEE9SelectKeyESG_SI_E12resize_deltaEjj
i3d:_ResolveEventArgs__ctor_m1455935166
jdg:_Type_Equals_m1673304139
nNd:_SynchronizedReader_Read_m1388613247
gxb:__Z22TransferField_NonArrayI19StreamedBinaryWriteILb0EE27Converter_SimpleNativeClassI8GUIStyleEEvRK23StaticTransferFieldInfoR31RuntimeSerializationCommandInfoRT0_
dXe:_Scrollbar_OnPointerDown_m3213715319
Pvc:__ZN8JSONRead8TransferIN4math12int3_storageEEEvRT_PKc17TransferMetaFlagsb
oLb:__ZN27IntermediateRendererManager29ClearAllIntermediateRenderersEv
t2c:_StandaloneInputModule__ctor_m2419721820
ive:_Comparer_1_System_Collections_IComparer_Compare_m2018996185_gshared
Qp:__Z17CalculateGlobalSM23TransformAccessReadOnlyRKN4math7_float4E
tR:__ZN23CloudWebServicesManager23VirtualRedirectTransferER18StreamedBinaryReadILb0EE
Zvd:_CollectionBase_System_Collections_IList_Contains_m2994901969
Vl:_emscripten_glLoadIdentity
$Zb:__ZNSt3__26vectorINS_4pairIN4core12basic_stringIcNS2_20StringStorageDefaultIcEEEEPK17MessageIdentifierEENS_9allocatorISA_EEE26__swap_out_circular_bufferERNS_14__split_bufferISA_RSC_EEPSA_
$Ad:_Convert_ToInt16_m2896657713
Qrg:_Vector3_get_zero_m1409827619
gVb:__Z29CullShadowCastersWithoutUmbraR9IndexListRK17CullingParametersPK4AABBjj
ioa:__ZN6Shader16GetDefaultOrNullEv
qp:__ZN4AABB8TransferI14SafeBinaryReadEEvRT_
RHf:_Array_InternalArray__ICollection_Contains_TisX509ChainStatus_t133602714_m795171973_gshared
B9i:__ZN6il2cpp2vm8Liveness8FromRootEP12Il2CppObjectPv
zbb:__ZN12MeshRenderer23VirtualRedirectTransferER19StreamedBinaryWriteILb0EE
U4a:__ZN18StreamedBinaryReadILb0EE21TransferSTLStyleArrayI13dynamic_arrayI12LightmapDataLj4EEEEvRT_17TransferMetaFlags
LNa:__ZNK17ArchiveFileSystem9EnumerateEPKcP19dynamic_block_arrayI13FileEntryInfoLj32EEbPPv19FileEnumerationFlag
X$b:__Z11MD5ToStringPh
shc:__Z38Input_Get_Custom_PropCompositionStringv
u$e:_Text_get_alignment_m1496827807
U6e:_ContentInfo_get_ASN1_m1776225219
CS:__ZN9JSONWrite8TransferIN4core12basic_stringIcNS1_20StringStorageDefaultIcEEEEEEvRT_PKc17TransferMetaFlags
UBd:_Convert_ToSingle_m2533452644
Txj:__ZNSt3__212basic_stringIcNS_11char_traitsIcEENS_9allocatorIcEEE6resizeEjc
Fdb:__ZN14PlayerSettings16CheckConsistencyEv
jO:__ZN11AudioModule30GetOrCreateDSPFromCustomFilterEP17AudioCustomFilter
GTa:__ZN19AtomicPageAllocatorD2Ev
y$c:_EventTrigger_OnPointerEnter_m986348926
Naj:__ZN6il2cpp6icalls8mscorlib6System13GlobalizationL20culture_lcid_locatorEPKvS5_
Klf:_X509Certificate__ctor_m1413707489
S1a:__ZNK12CubemapArray16ExtractImageImplEP14ImageReferenceNS0_8BlitModeEbi
Yhc:__Z63Register_UnityEngine_MonoBehaviour_StartCoroutine_Auto_Internalv
aDj:_glTexStorage3D__wrapper
Rdb:__ZN10VRSettings8TransferI14SafeBinaryReadEEvRT_
Jdg:_Type_IsMarshalByRefImpl_m914778231
Qwd:_Hashtable__ctor_m2302711321
ja:invoke_viifiiii
vrd:_Byte_TryParse_m1467448483
DHi:_DelegatePInvokeWrapper_OnCommandSentHandler_t613111342
zYc:__ZN20UnityWebRequestProtoI24UnityWebRequestTransport16AtomicRefCounter14RedirectHelper14ResponseHelper15DownloadHandler13UploadHandler12HeaderHelper14AsyncOperationE8FinalizeEv
sxg:_Texture2D_get_whiteTexture_m2176011403
L3:__ZN22PerThreadPageAllocator14AcquireNewPageEj
HK:__ZN24AudioScriptBufferManager15DidReloadDomainEv
sdi:_Func_2_Invoke_m3516477887_gshared
lLh:__ZL65SelectionBaseAttribute_t3493465804_CustomAttributesCacheGeneratorP21CustomAttributesCache
hrf:_String_ToString_m3872792296
Vtb:__Z18Transfer_BlittableI24GenerateTypeTreeTransferLb1E9BoundsIntEvRK29SerializationCommandArgumentsR31RuntimeSerializationCommandInfo
sJd:_FileStream_GetSecureFileName_m449783930
nRb:__ZN6Camera13ClearNoSkyboxEb
eOd:_UnexceptionalStreamWriter_Flush_m82278468
Uoe:_InternalEnumerator_1_get_Current_m3911557813_gshared
vPi:__ZNK15dense_hashtableI10KeyWrapperIPK17Il2CppGenericInstES4_N6il2cpp8metadata21Il2CppGenericInstHashEN14dense_hash_setIS4_S7_NS4_14EqualsComparerINS6_24Il2CppGenericInstCompareEEENSt3__29allocatorIS4_EEE8IdentityESB_SE_E12test_deletedEj
YRa:__ZN19StreamedBinaryWriteILb0EE21TransferSTLStyleArrayI13dynamic_arrayI17SortingLayerEntryLj4EEEEvRT_17TransferMetaFlags
h_c:_BaseInput_get_touchCount_m1263753282
v7d:_ASN1Convert_FromOid_m3844102704
DKe:_RemotingSurrogate_SetObjectData_m2713731796
Nsf:_DecoderReplacementFallbackBuffer_Reset_m3943028589
uEa:__ZN18GfxFramebufferGLES10InvalidateEv
_Zf:_Enumerator_System_Collections_IEnumerator_get_Current_m282279808_AdjustorThunk
oSe:_LayoutRebuilder_MarkLayoutRootForRebuild_m1241498911
j9f:_CompressedStack_CreateCopy_m2591279216
njf:_RSAPKCS1KeyExchangeFormatter_CreateKeyExchange_m1611814432
u9:__ZN10MemoryPoolD2Ev
dnc:__ZNSt3__26__treeINS_12__value_typeIN4core12basic_stringIcNS2_20StringStorageDefaultIcEEEEN5IMGUI12NamedControlEEENS_19__map_value_compareIS6_S9_NS_4lessIS6_EELb1EEENS_9allocatorIS9_EEE7destroyEPNS_11__tree_nodeIS9_PvEE
Obf:_AsnEncodedData_KeyUsageExtension_m1792651780
pgj:__ZN6il2cpp2os5posix15PosixWaitObjectD2Ev
XMb:__ZNK25CameraStackRenderingState28GetDstTextureForImageFiltersEv
Cwj:___mmap
y8b:__ZN9Scripting26RaiseArgumentNullExceptionEPKc
lKj:b120
gX:__ZL18InternalLogConsolePKcz
wvj:_lseek
yme:_InternalEnumerator_1_get_Current_m685192625_gshared
_Nd:_UnexceptionalStreamReader_Read_m16956299
B3d:_ResourceReader_ReadValueVer1_m183253382
F$:__Z37scripting_method_get_nth_argumenttype18ScriptingMethodPtri
MM:__ZN11AudioSource16UpdatePauseStateEv
Wca:__ZL52StaticUnregisterSceneLoadedCallback_LightmapSettingsPv
Yjg:_Camera_get_main_m3643453163
jtj:__ZN6il2cpp5utils25NativeDelegateMethodCache17AddNativeDelegateEPFvvEPK10MethodInfo
PTe:_LayoutRebuilder_U3CRebuildU3Em__5_m1288787547
yQb:__ZN27DeviceViewProjMatricesStateD2Ev
Awg:_SendMouseEvents__cctor_m2378365934
u6h:_ReadOnlyCollection_1_System_Collections_IList_set_Item_m3582274843_gshared
Fpg:_Mathf_Pow_m856735666
Ffa:__ZL39CreateRegisteredMessageIdentifiersArrayPv
Gtb:__Z18Transfer_BlittableI24GenerateTypeTreeTransferLb0E8Vector3fEvRK29SerializationCommandArgumentsR31RuntimeSerializationCommandInfo
Z0e:_SimpleCollator_FilterExtender_m72900315
BIc:__ZNK13TextRendering4Font22GetTypeVirtualInternalEv
H6e:_SymmetricTransform_CheckInput_m1829858759
pfb:__ZN19StreamedBinaryWriteILb0EE21TransferSTLStyleArrayINSt3__26vectorIN15ResourceManager10DependencyE13stl_allocatorIS5_L18MemLabelIdentifier52ELi16EEEEEEvRT_17TransferMetaFlags
FYe:_ScrollRect_EnsureLayoutHasRebuilt_m3415112783
QTd:_Binder_FindMostDerivedMatch_m239579024
Pzd:_Convert_ToByte_m3824130483
Jxi:_GUIUtility_EndContainerGUIFromException_m530164245
qya:__ZN6prcoreL10inner_flipILj2EEEvPhS1_j
t8a:__ZNK14Texture2DArray16ExtractImageImplEP14ImageReferenceNS0_8BlitModeEbi
o7f:_StringBuilder_Append_m2383614642
csc:__ZN9JSONWrite8TransferIbEEvRT_PKc17TransferMetaFlags
RKa:__ZN12TLSAllocatorI14StackAllocatorED0Ev
Dcb:__ZN11TimeManager16CheckConsistencyEv
VNb:__ZN21GfxDeviceAsyncCommand10ArgScratch15ThreadedCleanupEv
k8b:__Z14DoubleToStringd
Rrf:_StringComparer_GetHashCode_m2080455020
ftb:__ZN12NativeBufferI27Converter_UnityEngineObjectE15SetupForWritingER9ArrayInfo
o1g:_List_1_CheckCollection_m2118769249_gshared
pe:_glTexImage3D
v7c:_DefaultControls_SetDefaultColorTransitionValues_m2033775311
x0:__ZN14SerializedFile27PatchRemapDeprecatedClassesEv
PQf:_Array_InternalArray__set_Item_TisChar_t3634460470_m741842250_gshared
Cki:_TlsServerSettings_set_RsaParameters_m853026166
J$a:__ZNSt3__26vectorINS_4pairI11ShaderTagIDS2_EENS_9allocatorIS3_EEE6insertENS_11__wrap_iterIPKS3_EERS8_
Uuf:_DateTime_AddMilliseconds_m3713972790_AdjustorThunk
rid:_RC2_Create_m2052783340
rGf:_Guid__ctor_m3421080095_AdjustorThunk
HAd:_Convert_ToDouble_m217737046
ndc:__ZL34GetComponentsImplementationRecurseILb1ELi0ELi1EEbR10GameObjectbRK17CompareParametersRK39GetComponentsImplementation_ReturnValue
aBf:_Double_Equals_m1674752021
lQe:_InputField_OnDisable_m1824300767
hPc:__ZN2UI25AddCanvasRendererToCanvasER8JobFencePNS_12CanvasHandleERNS_10CanvasDataEi
Kyd:_SortedList_Clone_m928094797
neb:__ZN10VRSettings8TransferI18StreamedBinaryReadILb0EEEEvRT_
ow:__ZN22AnimationMixerPlayable12MixerProcessEP35AnimationPlayableEvaluationConstantP32AnimationPlayableEvaluationInputP33AnimationPlayableEvaluationOutputM17AnimationPlayableFvS1_S3_S5_EPFvS1_S3_S5_ESA_PFvS5_S1_S3_S5_PN7mecanim16ValueArrayWeightEfEPFvS1_S3_S5_SD_fE
$ve:_Enumerator_get_CurrentKey_m2230405065_gshared
Wde:_TlsClientFinished_ProcessAsSsl3_m3094597606
Suc:__ZN8JSONRead21TransferSTLStyleArrayI13dynamic_arrayIdLj8EEEEvRT_17TransferMetaFlags
Zjg:_Camera_get_allCamerasCount_m528453758
ITi:__ZN6il2cpp2vm10ThreadPool5QueueEP14Il2CppDelegatePPvS3_P12Il2CppObject
mxb:__Z19TransferField_ArrayI19StreamedBinaryWriteILb0EE27Converter_SimpleNativeClassI8GradientEEvRK23StaticTransferFieldInfoR31RuntimeSerializationCommandInfoRT0_
iaf:_IPv6Address__ctor_m2700673633
auc:__Z18Transfer_BlittableI8JSONReadLb0E12PropertyNameEvRK29SerializationCommandArgumentsR31RuntimeSerializationCommandInfo
TGj:_glGetUniformBlockIndex__wrapper
Dnd:_Array_CreateInstance_m2696293787
B7f:_UnicodeEncoding__ctor_m1074918879
q7a:__ZN7SubMesh8TransferI18StreamedBinaryReadILb0EEEEvRT_
RZd:_OpCode_Equals_m1376200488_AdjustorThunk
i6c:_ColorBlock_op_Inequality_m2718216889
cf:_emscripten_glIsEnabled
ozb:__ZN18StreamedBinaryReadILb1EE21TransferSTLStyleArrayI13dynamic_arrayIdLj8EEEEvRT_17TransferMetaFlags
ogc:__Z45Register_UnityEngine_GameObject_get_transformv
aWd:_DerivedType_GetConstructors_m483065502
WZ:__Z29scripting_class_instance_size17ScriptingClassPtr
xvc:__Z29Transfer_Blittable_ArrayFieldI8JSONRead5RectTIiEEvRT_R9ArrayInfoRK23StaticTransferFieldInfo
p$g:__Z68RuntimeInvoker_Boolean_t97287965_SByte_t1669577662_SByte_t1669577662PFvvEPK10MethodInfoPvPS4_
JRg:__Z165RuntimeInvoker_Void_t1185182177_RuntimeObject_Int32_t2950945753_Int32_t2950945753_RuntimeObject_Int32_t2950945753_Single_t1397266774_Single_t1397266774_RuntimeObjectPFvvEPK10MethodInfoPvPS4_
uc:invoke_iiiiiiiii
cV:__ZN11UnityEngine15CloudWebService19SessionEventManager26ProcessEventQueueJobStaticEPv
Bpg:_Mathf_Min_m1073399594
gxg:_StackTraceUtility_ExtractStringFromExceptionInternal_m2686726792
tCc:_otv_Coverage_get_last
wV:__ZN11UnityEngine15CloudWebService19SessionEventManager37OnTimerExpiredPerformArchiveJobStaticEPv
Wqc:__Z18Transfer_BlittableI9JSONWriteLb1E9BoundsIntEvRK29SerializationCommandArgumentsR31RuntimeSerializationCommandInfo
I0e:_MSCompatUnicodeTable_FillCJKCore_m2347268515
$si:_Group_GetWidth_m3299755715
mzf:_Decimal_op_Implicit_m1920400487
nYa:__ZN10builtintex15GetWhiteTextureEv
tKe:_MonoMethodMessage_get_TypeName_m3758247133
Bxd:_Enumerator_get_Entry_m2184304359
gu:__ZN7mecanim9animation16CreateClipMemoryEPKNS0_4ClipEiRNS_6memory9AllocatorE
muj:__ZN6il2cpp6icalls8mscorlib6System10Reflection4Emit11DerivedType21create_unmanaged_typeEP20Il2CppReflectionType
dcd:_Image_set_fillCenter_m3776786491
nfa:__Z29GetOcclusionPortalManagerListv
bjc:__Z39Register_UnityEngine_Sprite_get_texturev
gKi:__ZL10rescale128PyS_Piiiii
QG:__ZN9AudioClip7WWWSeekEPvjS0_
Pnh:__ZL63FixedBufferAttribute_t3759792648_CustomAttributesCacheGeneratorP21CustomAttributesCache
L8:__ZL32StaticInitializeIUnityInterfacesPv
yNb:__Z13CameraProjectRK8Vector3fRK10Matrix4x4fS4_RK5RectTIiERS_b
igb:__ZN30RuntimeInitializeOnLoadManager15ClassMethodInfo8TransferI19StreamedBinaryWriteILb0EEEEvRT_
cca:__Z22CreateMutexLockedStackv
MIb:__ZNSt3__27__sort5IRNS_4lessIN22BuiltinResourceManager8ResourceEEEPS3_EEjT0_S7_S7_S7_S7_T_
pEd:_NumberFormatter_FormatNumber_m1763569482
_Uh:__ZL57FontData_t746620069_CustomAttributesCacheGenerator_m_FontP21CustomAttributesCache
vma:__ZN9ShaderLab11ShaderStateD2Ev
eGc:_Ins_DELTAP
VEb:__Z23TransferScriptingObjectI24GenerateTypeTreeTransferEvRT_18ScriptingObjectPtr17ScriptingClassPtrPK15MonoScriptCache
fqi:_PatternLinkStack_GetOffset_m3697714525
dmc:__ZN12GUIClipState5ApplyER10InputEvent
Uwb:__ZL17Transfer_GUIStyleI19StreamedBinaryWriteILb0EELb0EEvRK29SerializationCommandArgumentsR31RuntimeSerializationCommandInfo
rRb:__ZN10TextureRef4InitEP7Textureb
LJd:_MonoIO_GetFileType_m101289143
Sxa:__Z19ScheduleJobInternalR8JobFencePFvPvES1_11JobPriority
W8e:_KeysCollection_get_Count_m3943311735
sle:_InternalEnumerator_1_get_Current_m2832154098_gshared
xhg:_Version__ctor_m1550720073
JSi:__ZNSt3__211__tree_nextIPNS_16__tree_node_baseIPvEEEET_S5_
udj:__ZN15dense_hashtableI10KeyWrapperIP18Il2CppGenericClassES3_N6il2cpp8metadata22Il2CppGenericClassHashEN14dense_hash_setIS3_S6_NS3_14EqualsComparerINS5_25Il2CppGenericClassCompareEEENSt3__29allocatorIS3_EEE8IdentityESA_SD_E14squash_deletedEv
fgj:__ZN6il2cpp2vm11MethodStack17GetStackFramesRawEv
RAa:__ZN6prcoreL17RemapGenericFloatI17TexFormatRGBAHalf17TexFormatRGBFloatEEvPKNS_9InnerInfoE
HDg:__Z52RuntimeInvoker_Double_t594665363_Decimal_t2948259380PFvvEPK10MethodInfoPvPS4_
_pe:_InternalEnumerator_1_get_Current_m784835552_gshared
xlc:__Z35Sprite_Get_Custom_PropPixelsPerUnitP12Il2CppObject
yPi:__ZNSt3__26__sortIRN6il2cpp5utils11collections13ArrayValueMapIPK10Il2CppType17Il2CppInteropData26InteropDataToTypeConverterNS1_8metadata14Il2CppTypeLessENSA_26Il2CppTypeEqualityComparerEE12SortComparerEPS8_EEvT0_SH_T_
$hb:__ZN11PreloadDataD2Ev
RXc:__ZN15DownloadHandler14ProcessHeadersERK9HeaderMap
TIc:__ZNSt3__26vectorINS_4pairIifEE13stl_allocatorIS2_L18MemLabelIdentifier35ELi16EEE6assignINS_11__wrap_iterIPS2_EEEENS_9enable_ifIXaasr21__is_forward_iteratorIT_EE5valuesr16is_constructibleIS2_NS_15iterator_traitsISC_E9referenceEEE5valueEvE4typeESC_SC_
Zb:invoke_iifi
Vrd:_Char_System_IConvertible_ToInt16_m975497224_AdjustorThunk
Izf:_Delegate_CreateDelegate_m995503480
rVi:__ZNK6il2cpp5utils10StringViewIcE5RFindEc
mWd:_DerivedType_get_Module_m3032466746
GUa:__ZN15SharedLightData15UpdateTransformERK9Transform
_Vh:__ZL71InputField_t3762917431_CustomAttributesCacheGenerator_m_OnValidateInputP21CustomAttributesCache
_fa:__ZN18AssetBundleManagerD2Ev
$gc:__Z44Register_UnityEngine_RectOffset_get_verticalv
Osj:__ZN6il2cpp2vm9LastError31InitializeLastErrorThreadStaticEv
GUe:_MaskableGraphic_set_maskable_m243551751
QMd:_StreamWriter_Dispose_m2818839127
Wda:__ZZN15DirectorManager15InitializeClassEvEN43PostLateUpdateDirectorLateUpdateRegistrator7ForwardEv
fh:_JS_SystemInfo_GetCurrentCanvasHeight
pie:_ArrayReadOnlyList_1_IndexOf_m1911574180_gshared
pUe:_Mask_OnEnable_m2186824439
XOe:_InputField_SetCaretVisible_m2216480850
tff:_X509EnhancedKeyUsageExtension_CopyFrom_m3750050754
z$a:__ZNK8Material22GetTypeVirtualInternalEv
moc:__Z34GUIStyle_Get_Custom_PropFixedWidthP12Il2CppObject
v8h:_ReadOnlyCollection_1_System_Collections_IList_Clear_m1076810235_gshared
T0f:_Enumerator_System_Collections_IEnumerator_get_Current_m3405349194_AdjustorThunk
Kij:__ZN6il2cpp2gc16GarbageCollector11GetWeakLinkEPPv
Sgj:__GLOBAL__sub_I_Console_cpp
HAa:__ZN6prcoreL17RemapGenericFloatI14TexFormatRHalf17TexFormatRGBAHalfEEvPKNS_9InnerInfoE
T5d:_BigInteger_GetBytes_m1259701831
FVi:__ZN6il2cpp2vm7Runtime11InvokeArrayEPK10MethodInfoPvP11Il2CppArrayPP15Il2CppException
Arf:_String_memcpy_m2826223007
Lid:_RijndaelManaged_CreateDecryptor_m1421727258
MF:__ZN9AudioClip23VirtualRedirectTransferER14SafeBinaryRead
K0f:_Enumerator_MoveNext_m2407049913_gshared
j7f:_StringBuilder_Replace_m1682610486
LDa:__ZN4gles20EnsureTextureCreatedEP7ApiGLESP17RenderSurfaceGLES
iOb:__ZN15ReplacementPass13PrepareSubsetEjRK10RenderNodeifRK17ShaderReplaceData
rL:__Z32AudioMeasurement_GetTimeConstantff
mjj:__ZN6il2cpp8metadata11FieldLayout12LayoutFieldsEjjjRKNSt3__26vectorIPK10Il2CppTypeNS2_9allocatorIS6_EEEERNS1_15FieldLayoutDataE
Zlb:__ZNK20LocalFileSystemPosix9EnumerateEPKcP19dynamic_block_arrayI13FileEntryInfoLj32EEbPPv19FileEnumerationFlag
Q$d:_MethodInfo_MakeGenericMethod_m1996785325
v_c:_BaseInputModule_DetermineMoveDirection_m770437496
XGe:_Context_get_HasGlobalDynamicSinks_m3672814609
Uoi:_Match__ctor_m2464595873
KVb:__ZL27PrepareSceneNodesJobCombineP25ScheduleSceneNodesJobData
zni:_X509CertificateEnumerator_Reset_m1825523691
Xpb:__Z22TransferField_NonArrayI14SafeBinaryRead27Converter_SimpleNativeClassI8GUIStyleEEvRK23StaticTransferFieldInfoR31RuntimeSerializationCommandInfoRT0_
n2i:__ZN14dense_hash_mapI10KeyWrapperIPK10Il2CppTypeEjN6il2cpp8metadata14Il2CppTypeHashENS4_14EqualsComparerINS6_26Il2CppTypeEqualityComparerEEENSt3__29allocatorINSB_4pairIKS4_jEEEEEC2EjRKS7_RKSA_
zoa:__ZN13GfxDeviceGLESD2Ev
Jha:__ZNSt3__26vectorIN9ShaderLab26SerializedShaderDependencyENS_9allocatorIS2_EEE6resizeEj
s2h:_Activator_CreateInstance_TisRuntimeObject_m729575857_gshared
Dda:__ZN18AsyncUploadManager13StaticDestroyEPv
cha:__ZN6Shader7SetNameEPKc
Kpd:_Convert_ToDouble_m954895424
fZb:__ZN19CustomRenderTexture22HandleBoundaryWrappingERKNS_14UpdateZoneInfoEj
eGi:_TextGenerationSettings_CompareColors_m3051734236
FSi:__ZN6il2cpp2vm13MetadataCache32GenerateCustomAttributeTypeCacheEi
hpf:_Single_Equals_m438106747
Tgj:__GLOBAL__sub_I_Thread_cpp_37867
V6f:_StringBuilder__ctor_m2989139009
h4d:_RuntimeResourceSet__ctor_m2765575100
Kde:_TlsClientCertificate_ProcessAsSsl3_m3265529850
nr:__ZNK11UnityEngine9Animation30GenericBindingValueArrayUniqueclERKNS0_14GenericBindingES4_
asf:_ASCIIEncoding_GetChars_m2543669481
b3e:_BigInteger_IsProbablePrime_m567194283
$Sf:_Dictionary_2_System_Collections_IDictionary_Remove_m3518952519_gshared
nof:_SecurityFrame_InitFromRuntimeFrame_m1714852458_AdjustorThunk
bZd:_MethodBuilder_GetCustomAttributes_m731278908
oGc:_Direct_Move_Y
mGc:_Direct_Move_X
zKg:__Z51RuntimeInvoker_Single_t1397266774_Double_t594665363PFvvEPK10MethodInfoPvPS4_
Ci:_glClearDepthf
n4b:__ZN19SkinnedMeshRenderer7GetMeshEv
hkb:__ZN19RuntimeSceneManager14GetActiveSceneEv
gzj:_memcpy
NIb:__ZNSt3__218__insertion_sort_3IRNS_4lessIN22BuiltinResourceManager8ResourceEEEPS3_EEvT0_S7_T_
dOe:_MultiArrayFixupRecord_FixupImpl_m1721674130
cVi:__ZN6il2cpp6icalls8mscorlib6SystemL8IsStaticEPK9EventInfo
eCc:_otv_LookupList_validate
Kgc:__Z29RectOffset_Set_Custom_PropTopP12Il2CppObjecti
TZf:_GenericEqualityComparer_1_Equals_m687841776_gshared
bkc:__Z57Register_UnityEngine_Transform_INTERNAL_get_localPositionv
YTb:__ZNSt3__27__sort4IR15ReflProbeSorterPP15ReflectionProbeEEjT0_S6_S6_S6_T_
iUa:__ZN16GraphicsSettings10SmartResetEv
E9b:__ZN19StreamedBinaryWriteILb0EE4InitE24TransferInstructionFlags20BuildTargetSelection
GKd:_FileStream_Flush_m948103572
SKi:__ZN15dense_hashtableINSt3__24pairIK10KeyWrapperIPK22Il2CppGenericParameterEP11Il2CppClassEES6_N6il2cpp5utils11PointerHashIS4_EEN14dense_hash_mapIS6_S9_SE_NS6_14EqualsComparerINS0_8equal_toIS5_EEEENS0_9allocatorISA_EEE9SelectKeyESJ_SL_E9copy_fromERKSO_j
e4e:_ASN1Convert_ToInt32_m254930636
yeb:__ZN26PlayerSettingsSplashScreen16CheckConsistencyEv
xXa:__ZN20SphericalHarmonicsL28TransferI19StreamedBinaryWriteILb0EEEEvRT_
Mgg:_UInt64_ToString_m1529093114
P3b:__ZNK28RectTransformPropertyBinding9BindValueER6ObjectRKN11UnityEngine9Animation14GenericBindingERNS3_10BoundCurveE
wd:_emscripten_glLoadMatrixf
upg:_Material_SetInt_m1783799378
and:_Array_GetLength_m2178203778
uog:_Input_GetMouseButtonDown_m2081676745
fDd:_Int16_System_IConvertible_ToDouble_m1661805412_AdjustorThunk
Zab:__ZN4Mesh14UploadMeshDataEb
z4b:__ZN14RenderSettings12CleanupClassEv
_ic:__Z43DataUtility_CUSTOM_INTERNAL_CALL_GetPaddingP12Il2CppObjectR8Vector4f
TN:__ZN21AudioScriptingClasses26InvokeOnAudioManagerUpdateEP21ScriptingExceptionPtr
Uxa:__ZN18AsyncUploadManager15DoDeCruncherJobEP26FileAssetUploadInstruction
Cra:__ZN9GfxDevice15ImmediateNormalEfff
Fyg:_Enumerator__ctor_m1351041375
Xub:__ZN13GUIStyleState8TransferI24GenerateTypeTreeTransferEEvRT_
J0:__ZN20dynamic_block_vectorI14FileIdentifierE22push_back_no_constructEv
FGj:_emscripten_glGetActiveAttrib__wrapper
L8a:__ZN9Texture3D23VirtualRedirectTransferER14SafeBinaryRead
O_h:_Array_InternalArray__set_Item_TisVector2_t2156229523_m2671087464_gshared
z3h:_Array_InternalArray__get_Item_TisVector4_t3319028937_m1117939728_gshared
lja:__ZNSt3__26vectorIN9ShaderLab20SerializedSubProgram16TextureParameterENS_9allocatorIS3_EEE8__appendEj
rni:_X509CertificateCollection_Contains_m743657353
KNf:_Array_InternalArray__ICollection_Add_TisSlot_t384495010_m3656484468_gshared
N3a:__ZN9Texture2D13UploadTextureEi
YAc:_cff_get_cid_from_glyph_index
tK:__ZN4FMOD6System19setSoftwareChannelsEi
Wsa:__ZN9GfxDevice19SetSinglePassStereoE16SinglePassStereo
FFj:_emscripten_glGenBuffers__wrapper
ezj:_bitshift64Lshr
Gtj:__ZN6il2cpp8metadata19Il2CppSignatureHash4HashERKNS_5utils13dynamic_arrayIPK10Il2CppTypeLj4EEE
Vwd:_Hashtable_System_Collections_IEnumerable_GetEnumerator_m2751657639
lJe:_HeaderHandler_Invoke_m3513051789
uYh:__ZL77CanvasScaler_t2767979955_CustomAttributesCacheGenerator_m_ReferenceResolutionP21CustomAttributesCache
GEg:__Z144RuntimeInvoker_RuntimeObject_RuntimeObject_Int32_t2950945753_RuntimeObject_RuntimeObject_RuntimeObject_RuntimeObject_RuntimeObject_RuntimeObjectPFvvEPK10MethodInfoPvPS4_
adg:_Type_get_IsPointer_m4067542339
m$e:_Text_get_supportRichText_m1837499160
Lhc:__Z60Register_UnityEngine_Input_INTERNAL_set_compositionCursorPosv
Prg:_Vector3_Magnitude_m3447562852
Vig:_Component__ctor_m1928064382
GAj:dynCall_viiiii
LAj:dynCall_viiiif
Byd:_SortedList_PutImpl_m3408406199
nIc:_Cubic_To
cce:_Context_get_Protocol_m1078422015
wec:__Z37Register_UnityEngine_Application_Quitv
nfc:__Z44Register_UnityEngine_Camera_get_farClipPlanev
Lq:__Z25InverseTransformDirection23TransformAccessReadOnlyRKN4math7_float3Eb
Oga:__ZN13RuntimeStaticINSt3__28multimapIj25DeferredSkinningOperationNS0_4lessIjEENS0_9allocatorINS0_4pairIKjS2_EEEEEELb0EE13StaticDestroyEPv
qzi:_ToggleGroup_SetAllTogglesOff_m4184050071
Bdb:__ZNK17IAnimationBinding30CurveAttributeToSerializedPathERKN11UnityEngine9Animation10BoundCurveE
gfj:__ZN6il2cpp2gc16GarbageCollector14GetOrCreateCCWEP12Il2CppObjectRK10Il2CppGuid
Xcj:__ZN6il2cpp2vm5Image21FromTypeNameParseInfoEPK11Il2CppImageRKNS0_17TypeNameParseInfoEb
zPd:_MonoCustomAttrs_IsDefined_m2996012389
_ta:__ZN17BufferManagerGLES13AcquireBufferEjN14DataBufferGLES11BufferUsageEb
LGi:_TextGenerator_PopulateAlways_m1922695746
ixf:_Decimal__ctor_m3650533794
NUe:_MaskableGraphic_UpdateClipParent_m2605828397
Elf:_TripleDESTransform_GetStrongKey_m292426577
PUd:_AssemblyBuilder_get_Location_m384539722
yWc:__ZN16UnityAdsSettingsD0Ev
vwa:__ZNK7ApiGLES10DebugLabelEN2gl10ObjectTypeEjPKc
hJd:_DirectoryNotFoundException__ctor_m4004339866
Qyj:__ZNK10__cxxabiv121__vmi_class_type_info16search_below_dstEPNS_19__dynamic_cast_infoEPKvib
oGi:_TextGenerator__ctor_m1349784994
Rva:__ZN19ConstantBuffersGLES13SetCBConstantEiiPKvi
xVe:_Navigation_Equals_m317484440
Nfh:_Collection_1_System_Collections_IList_set_Item_m876512695_gshared
$ic:__Z38DataUtility_CUSTOM_Internal_GetMinSizeP12Il2CppObjectP13Vector2fIcall
O8b:__ZN8PlayableC2E17ScriptingClassPtr18DirectorPlayerType
Hzg:_Vector3_Distance_m886789632
mNe:_ObjectReader_ReadObjectGraph_m1689734232
_qg:_MonoBehaviour_StopCoroutine_m907039165
c4i:_il2cpp_class_has_attribute
N4e:_DSAManaged_get_KeySize_m2738463749
oza:__ZN6prcoreL12RemapGenericI15TexFormatRGB88817TexFormatARGB8888EEvPKNS_9InnerInfoE
eAg:_Vector4_op_Subtraction_m1632208160
Vu:__ZN7mecanim9animation30ValueFromSkeletonPoseRecursiveERKNS_8skeleton8SkeletonERKNS1_13SkeletonPoseTIN4math4trsXEEEPKNS0_14SkeletonTQSMapEPKiRNS_10ValueArrayEii
h$:__Z27FindOrCreateMonoScriptCache17ScriptingClassPtr22InitScriptingCacheTypeP6Objecti
MAb:__Z18Transfer_BlittableI18StreamedBinaryReadILb0EELb1E8Vector3fEvRK29SerializationCommandArgumentsR31RuntimeSerializationCommandInfo
xPc:__ZN2UI14CanvasRenderer13SyncVertexPtrER8JobFenceNS0_8SyncFlagE
SEf:_CultureInfo_GetFormat_m732021304
z$:__Z35scripting_method_get_argument_count18ScriptingMethodPtr
NLa:__ZN18AssetBundleManager18SortPreloadObjectsER13dynamic_arrayIiLj4EEb
MJg:__Z46RuntimeInvoker_RuntimeObject_Double_t594665363PFvvEPK10MethodInfoPvPS4_
o5f:_EncoderReplacementFallback__ctor_m2980727890
Jtd:_ArrayList_Synchronized_m1327684267
xgc:__Z20Gradient_CUSTOM_InitP12Il2CppObject
H$d:_MethodBase_get_IsPublic_m2180846589
Ooc:__Z48Register_UnityEngine_GUIUtility_Internal_ExitGUIv
BVf:_DefaultComparer_Equals_m2574572657_gshared
RJd:_FileStream_get_CanWrite_m1199612770
OVb:__ZL21CullDynamicObjectsJobP14CullingJobDataj
cmc:__ZNSt3__26vectorI7GUIClipNS_9allocatorIS1_EEE21__push_back_slow_pathIKS1_EEvRT_
Y_d:_TypeBuilder_get_IsGenericParameter_m1751799710
SZb:__ZN14ManagerContext17InitializeClassesEv
mLa:__ZN19StreamedBinaryWriteILb0EE21TransferSTLStyleArrayINSt3__26vectorI14ConstantStringNS2_9allocatorIS4_EEEEEEvRT_17TransferMetaFlags
czb:__ZN18StreamedBinaryReadILb1EE21TransferSTLStyleArrayI31ArrayOfManagedObjectsTransfererEEvRT_17TransferMetaFlags
Ghh:_Collection_1_System_Collections_ICollection_CopyTo_m787979241_gshared
$ai:_ReadOnlyCollection_1_System_Collections_Generic_ICollectionU3CTU3E_Clear_m1551418550_gshared
PHc:_t1_hints_open
rTc:__ZN11UnityEngine15PlatformWrapper24GetVRTrackedAreaGeometryER13dynamic_arrayI8Vector3fLj4EE
CQd:_MonoType_get_AssemblyQualifiedName_m2662925380
vfc:__Z60Register_UnityEngine_Camera_INTERNAL_CALL_WorldToScreenPointv
Wif:_RSACryptoServiceProvider__ctor_m2288290917
L5d:_BigInteger_GenerateRandom_m3872771375
x0g:__Z75RuntimeInvoker_RuntimeObject_Single_t1397266774_RuntimeObject_RuntimeObjectPFvvEPK10MethodInfoPvPS4_
nJ:__ZN4FMOD7Channel11getUserDataEPPv
cDc:_UNITY_tt_face_load_gasp
l5e:_KeyPairPersistence_ProtectMachine_m1313131097
z$e:_Text_set_fontSize_m3617617524
gLc:_ft_ansi_stream_close
hm:_JS_Sound_SetPitch
gag:_Thread_FreeLocalSlotValues_m1195763560
dof:_String_IndexOf_m1977622757
S4i:_il2cpp_runtime_invoke_convert_args
k3c:_TouchInputModule_Process_m3715678669
NFg:__Z114RuntimeInvoker_Int32_t2950945753_RuntimeObject_Int32_t2950945753_Int32_t2950945753_RuntimeObject_Int32_t2950945753PFvvEPK10MethodInfoPvPS4_
btd:_ArrayList__cctor_m3052737821
T8i:__ZN6il2cpp6icalls8mscorlib6System2IO6MonoIO11GetFileStatEP12Il2CppStringPNS3_8FileStatEPi
psa:__ZN9GfxDevice33InsertCustomMarkerCallbackAndDataEPFviPvEiS0_j
ZWc:__ZN11UnityEngine15PlatformWrapper16GenerateRandomIdEv
kOb:__ZNK9ShaderLab9IntShader6GetTagE11ShaderTagIDb
vvd:_BitArray_Set_m2486900776
pQc:__ZN2UI14CanvasRenderer11SetMaterialEP8Materiali
Epf:_String__ctor_m229724522
yrh:__ZL54AssemblyName_t270931938_CustomAttributesCacheGeneratorP21CustomAttributesCache
OZa:__ZNK13RenderTexture37IsBoundMultisampledOnSecondaryTextureEv
lnj:_GC_freehblk
mki:_X509ExtensionCollection__ctor_m551870633
jZd:_MethodBuilder_MakeGenericMethod_m2175748754
qqi:_QuickSearch_Search_m3063517397
txe:_Enumerator_Reset_m2443320674_gshared
_Gc:_ft_var_get_value_pointer
vdc:__ZN9Scripting35DestroyObjectFromScriptingImmediateEP6Objectb
Jod:_AsyncCallback_Invoke_m3156993048
EWb:__ZNK6Camera48AreVRStereoViewMatricesWithinSingleCullToleranceEv
lx:__ZN7mecanim5human25HumanPoseAddAdditiveLayerERNS0_9HumanPoseERKS1_fRKNS_6bitsetILj83EEE
jHj:_glGetRenderbufferParameteriv__wrapper
O6e:_SymmetricTransform_FinalDecrypt_m1677319445
OFd:_Int32_Equals_m3996243976_AdjustorThunk
Ska:__ZN24GenerateTypeTreeTransfer8TransferINSt3__26vectorIN9ShaderLab20SerializedSubProgram12UAVParameterENS1_9allocatorIS5_EEEEEEvRT_PKc17TransferMetaFlags
qc:invoke_iiiiiiiiiiiiiii
ohj:__ZN6il2cpp2os6Thread33UnregisterCurrentThreadForCleanupEv
MJj:_emscripten_glIsRenderbuffer__wrapper
sCc:_otv_Coverage_get_first
TNc:__ZN2UI11CanvasGroup8TransferI19StreamedBinaryWriteILb0EEEEvRT_
dJd:_DirectoryInfo__ctor_m1000259829
LVa:__ZNK20IntermediateRenderer8GetLayerEv
JDf:_CultureInfo_ConstructInvariant_m3774343375
s5a:__ZN15QualitySettings8TransferI14SafeBinaryReadEEvRT_
Pnd:_Array_ClearInternal_m532048538
ntf:_DateTime__ctor_m12900168
uii:_IndexedSet_1_Insert_m1432638049_gshared
XQd:_MulticastDelegate_GetInvocationList_m4256593605
u2h:_Array_FindLast_TisRuntimeObject_m1088586648_gshared
vUe:_Mask_GetModifiedMaterial_m2692272647
mlg:_CullingGroup_t2096318768_marshal_pinvoke_back
gdj:__ZNSt3__26vectorIN6il2cpp2vm5Image20EmbeddedResourceDataENS_9allocatorIS4_EEE21__push_back_slow_pathIS4_EEvOT_
Z7:__GLOBAL__sub_I_runtime_utilities_0_cpp
X1b:__ZN18BackgroundJobQueue29ScheduleMainThreadJobInternalEPFvPvES0_
$Aj:dynCall_viiiiiif
Gxi:_GUIUtility_EndGUIFromException_m3524906492
CZ:__ZN14SerializedFile10ReadObjectEx18ObjectCreationModebPPK8TypeTreePbR6Object
xsi:_Expression_GetFixedWidth_m945658
_6g:_List_1_RemoveAll_m818254423_gshared
cti:_Literal_Compile_m2228022079
QIb:__ZN14dynamic_bitset6resizeEjb
iHc:_tt_property_get
vHf:_Array_InternalArray__ICollection_Contains_TisSlot_t3975888750_m58971838_gshared
_S:__ZN11UnityEngine15CloudWebService10RestClientINS0_23WebRequestRestHeaderMapEE7SetDataEPKhj
mB:__ZN7mecanim8skeleton16SkeletonPoseCopyIN4math4trsXES3_EEvPKNS0_13SkeletonPoseTIT_EEPNS4_IT0_EE
iNi:__ZN14dense_hash_mapI10KeyWrapperIPK11Il2CppClassEPKcN6il2cpp5utils11PointerHashIS1_EENS4_14EqualsComparerINSt3__28equal_toIS3_EEEENSC_9allocatorINSC_4pairIKS4_S6_EEEEE15set_deleted_keyERSI_
Uoa:__ZN9GfxDevice34SetStencilRefWhenStencilWasSkippedEi
jdf:_X509Certificate2_Reset_m3988214799
zUc:__ZN11UnityEngine7Connect13ConnectConfig20RestoreTimeoutConfigERK13dynamic_arrayIiLj4EEjRS3_
pc:invoke_fi
xrj:__ZN6il2cpp6icalls8mscorlib6System10Reflection4Emit11TypeBuilder20create_runtime_classEP27Il2CppReflectionTypeBuilderS7_
ryg:_Transform_set_localScale_m3053443106
HYa:__ZN8Playable13SetInputCountEi
fX:__ZL21InternalAssertConsolePKcz
nc:invoke_ff
f6e:_RSAManaged_add_KeyGenerated_m3688329863
Yxe:_Enumerator_get_CurrentKey_m3735262888_gshared
ghd:_HashAlgorithm_TransformFinalBlock_m3005451348
KGf:_Guid_NewGuid_m923091018
yd:_emscripten_glVertexAttrib3f
u$i:__ZN30dense_hashtable_const_iteratorINSt3__24pairIK10KeyWrapperINS1_IPK11Il2CppImageP11Il2CppClassEEEjEES9_17ReflectionMapHashIS8_EN14dense_hash_mapIS9_jSD_NS9_14EqualsComparerINS0_8equal_toIS8_EEEENS0_9allocatorISB_EEE9SelectKeyESI_SK_EppEv
Zlj:__ZThn8_N6il2cpp2vm13CachedCCWBaseINS0_13ManagedObjectEE7DestroyEv
xjf:_RSAPKCS1SignatureDeformatter_SetKey_m614724234
E7f:_UnicodeEncoding_GetByteCount_m3498858619
WIf:_Array_InternalArray__ICollection_Remove_TisX509ChainStatus_t133602714_m3635989134_gshared
Fhi:_UnityEvent_1_FindMethod_Impl_m555893253_gshared
BJc:__ZN20TextRenderingPrivate8TextMesh11ApplyToMeshEv
bDj:_emscripten_glDrawRangeElements__wrapper
cTa:__Z28scripting_class_is_valuetype17ScriptingClassPtr
o0b:__ZNSt3__25dequeI10InputEventNS_9allocatorIS1_EEE19__add_back_capacityEv
MFa:__ZN13ComputeShader13SetValueParamERKN9ShaderLab16FastPropertyNameEiPKv
cbb:__ZN14BlendShapeDataD2Ev
SBa:__ZL18ProgramUniform3uivPK7ApiGLESjiihPKv
Yid:_RijndaelTransform_Encrypt128_m1940909042
OPd:_MonoEnumInfo_get_Cache_m752167006
XQc:__Z47CanvasRenderer_Set_Custom_PropHasPopInstructionP12Il2CppObjecth
Aqg:_Mesh_get_uv3_m3614955461
CBa:__ZN5Image8SetImageEii13TextureFormatb
Q$:__ZN17MessageIdentifier21GetRegisteredMessagesEv
GV:__Z13RegisterClassI23CloudWebServicesManagerEvv
Ime:_InternalEnumerator_1_get_Current_m3900374024_gshared
Aoi:_DelegatePInvokeWrapper_CostDelegate_t1722821004
dvd:_SynchronizedArrayListWrapper_CopyTo_m2886332653
Z7e:_HybridDictionary_Remove_m2295600623
Vbj:__GLOBAL__sub_I_Image_cpp
Jne:_InternalEnumerator_1_get_Current_m2680116177_AdjustorThunk
L0a:__ZNSt3__27__sort5IRPFbRKNS_4pairIN9ShaderLab16FastPropertyNameEfEES6_EPS4_EEjT0_SB_SB_SB_SB_T_
S2f:_List_1_CheckMatch_m1934407508_gshared
_sj:__ZNSt3__26vectorINS_12basic_stringIDsNS_11char_traitsIDsEENS_9allocatorIDsEEEENS4_IS6_EEE8__appendEj
Q2e:_Kernel_LeftShift_m3302851050
wjj:__ZN14dense_hash_mapI10KeyWrapperIPK19Il2CppGenericMethodEP10MethodInfoN6il2cpp8metadata23Il2CppGenericMethodHashENS4_14EqualsComparerINS8_26Il2CppGenericMethodCompareEEENSt3__29allocatorINSD_4pairIKS4_S6_EEEEE15set_deleted_keyERSG_
nrb:__Z29Transfer_Blittable_ArrayFieldI14SafeBinaryRead4AABBEvRT_R9ArrayInfoRK23StaticTransferFieldInfo
Yee:_RecordProtocol_SendRecord_m515492272
JFe:_ConfigHandler_ReadProvider_m3620509535
URh:__ZL56g_UnityEngine_UI_Assembly_CustomAttributesCacheGeneratorP21CustomAttributesCache
BSd:_Random__ctor_m4122933043
_gc:__Z46Register_UnityEngine_RectOffset_get_horizontalv
u1a:__ZN18DelayedCallManager8ClearAllEv
kDg:__Z180RuntimeInvoker_RuntimeObject_RuntimeObject_Int32_t2950945753_RuntimeObject_Int32U26_t1369213839_BooleanU26_t4125257963_BooleanU26_t4125257963_Int32U26_t1369213839_SByte_t1669577662PFvvEPK10MethodInfoPvPS4_
$kc:__Z22Mesh_CUSTOM_HasChannelP12Il2CppObject30InternalScriptingShaderChannel
o8i:__ZN6il2cpp2os8AutoLockD2Ev
sIi:_CanvasGroup_get_interactable_m1362547832
CUb:__ZNK25RenderPrePassObjectSorterclERK16RenderObjectDataS2_
$3d:_ResourceSet_Dispose_m1823973062
rte:_InternalEnumerator_1_System_Collections_IEnumerator_get_Current_m3537550566_AdjustorThunk
nzb:__Z22TransferField_NonArrayI18StreamedBinaryReadILb1EE27Converter_SimpleNativeClassI8GUIStyleEEvRK23StaticTransferFieldInfoR31RuntimeSerializationCommandInfoRT0_
me:_Mix_LoadWAV_RW
S8d:_EncryptedPrivateKeyInfo__ctor_m25839594
cQ:__Z45AudioSource_Get_Custom_PropSpatializeInternalP12Il2CppObject
sif:_RIPEMD160Managed_HH_m90236373
wVh:__ZL84GraphicRaycaster_t2999697109_CustomAttributesCacheGenerator_m_IgnoreReversedGraphicsP21CustomAttributesCache
_Yd:_MethodBuilder_Invoke_m3837446660
Zr:__ZNSt3__27__sort4IRNS_6__lessIN11UnityEngine9Animation13CachedBindingES4_EEPS4_EEjT0_S8_S8_S8_T_
dai:_ReadOnlyCollection_1_System_Collections_IList_Clear_m12445504_gshared
eej:__ZN6il2cpp2gcL12alloc_handleEPNS0_10HandleDataEP12Il2CppObjectb
YGj:_emscripten_glGetAttribLocation__wrapper
rog:_Input_GetAxisRaw_m2316819917
Ioi:_Enumerator_MoveNext_m55255603
fLh:__ZL57SpaceAttribute_t3956583069_CustomAttributesCacheGeneratorP21CustomAttributesCache
xbf:_WebRequest_AddDynamicPrefix_m4246631209
RUb:__Z13InitIndexListR9IndexListj
ZNf:_Array_InternalArray__ICollection_Add_TisRefEmitPermissionSet_t484390987_m1720891963_gshared
M0:__ZL16ReadTypeTreeImplILb1EEbR8TypeTreeRK16TypeTreeIteratorRPKhS6_i
asj:__ZN6il2cpp6icalls8mscorlib6System11Diagnostics10StackTrace9get_traceEP15Il2CppExceptionib
LCe:_Dictionary_2_set_Item_m3327106492_gshared
Ee:_glBlendEquationSeparate
rm:_emscripten_glDeleteVertexArrays
Jsa:__ZN13GfxDeviceGLES17SetComputeUniformE12ObjectHandleI18ComputeProgram_TagPvER18ComputeShaderParamjPKv
uIj:b95
mri:_Parser_IsNameChar_m698176442
r1g:_List_1_RemoveAt_m3459335427_gshared
_Ij:_emscripten_glValidateProgram__wrapper
Zac:__ZN13MeshScripting27PrintErrorCantAccessChannelEPK4Mesh30InternalScriptingShaderChannel
Kzg:_Vector3_get_sqrMagnitude_m1474274574_AdjustorThunk
Ali:_GeneralNames_ToString_m489778282
Le:_emscripten_glUniform3fv
dIf:_Array_InternalArray__ICollection_Contains_TisRaycastHit2D_t2279581989_m2733133723_gshared
Uzd:_Convert_ToByte_m1442000130
Yif:_RSACryptoServiceProvider_get_KeySize_m2654153358
W9i:__ZN6il2cpp2vm9Exception20GetArgumentExceptionEPKcS3_
pwc:__Z29Transfer_Blittable_ArrayFieldI8JSONReadiEvRT_R9ArrayInfoRK23StaticTransferFieldInfo
n2f:_Enumerator_MoveNext_m625797905_AdjustorThunk
x$h:_Array_Resize_TisCustomAttributeTypedArgument_t2723150157_m3021884250_gshared
iHj:_glDrawArrays__wrapper
CO:__ZN9AudioClip27IsFormatSupportedByPlatformERKN4core12basic_stringIcNS0_20StringStorageDefaultIcEEEE
h2a:__ZN29SerializeTraitsForStringTypesIN4core12basic_stringIcNS0_20StringStorageDefaultIcEEEEE8TransferI24GenerateTypeTreeTransferEEvRS4_RT_
Dka:__ZN9ShaderLab26SerializedShaderDependency8TransferI24GenerateTypeTreeTransferEEvRT_
igi:_InvokableCall_3_Invoke_m3141788616_gshared
Xpi:_PatternCompiler_EmitUntil_m3644194775
sDc:_UNITY_FT_Match_Size
Vv:__ZN7mecanim20CreateValueArrayMaskEPKNS_18ValueArrayConstantERNS_6memory9AllocatorE
u5e:_KeyPairPersistence_ToXml_m812591779
jQd:_MonoType_GetFields_internal_m776921855
sTc:__ZN11UnityEngine7Connect14AppUpdateEventC2Ev
x3d:_ResourceReader_Dispose_m3597121875
NSa:__ZN12ImageFilters17RemoveImageFilterERK11ImageFilter
emd:_Hashtable_CalcPrime_m550773117
Yvg:_RenderTexture_get_width_m2160921386
vje:_InternalEnumerator_1_get_Current_m3073360606_AdjustorThunk
qsa:__ZN9GfxDevice31InsertCustomBlitCallbackAndDataEPFviPvER33UnityRenderingExtCustomBlitParams
VJb:__Z32AddPathRemapsForBuiltinResourcesRKN4core12basic_stringIcNS_20StringStorageDefaultIcEEEE
VXa:__ZN14RenderSettings23VirtualRedirectTransferER24GenerateTypeTreeTransfer
Fsb:__ZL26Transfer_SimpleNativeClassI17RemapPPtrTransfer17AnimationCurveTplIfELb0EEvRK29SerializationCommandArgumentsR31RuntimeSerializationCommandInfo
nPe:_InputField_set_caretWidth_m707310868
tm:_glDeleteTransformFeedbacks
Idi:_U3CCreateWhereIteratorU3Ec__Iterator1D_1_MoveNext_m612748497_gshared
qf:_JS_WebRequest_Send
omj:__ZN6il2cpp2os4Time31GetTicks100NanosecondsMonotonicEv
_hj:__ZNSt3__26__treeINS_12basic_stringIcNS_11char_traitsIcEENS_9allocatorIcEEEENS_4lessIS6_EENS4_IS6_EEE16__construct_nodeIJRKS6_EEENS_10unique_ptrINS_11__tree_nodeIS6_PvEENS_22__tree_node_destructorINS4_ISH_EEEEEEDpOT_
cJd:_MonoIO_GetFileSystemEntries_m37351365
LBd:_Convert_ToSByte_m516918950
kVc:__ZN18UnityConnectClient32OnVrControllerStateChangedStaticEPS_13dynamic_arrayIN4core12basic_stringIcNS2_20StringStorageDefaultIcEEEELj4EE
ryj:__ZNK10__cxxabiv117__class_type_info24process_found_base_classEPNS_19__dynamic_cast_infoEPvi
vvg:_ReapplyDrivenProperties_Invoke_m1151937880
Xid:_RijndaelTransform_ECB_m670662322
dTe:_LayoutGroup_OnDisable_m3483954898
HSi:__ZN6il2cpp2vm13MetadataCache21GetFieldInfoFromIndexEj
MPh:__ZL62EventType_t3528516131_CustomAttributesCacheGenerator_mouseDragP21CustomAttributesCache
HQ:__ZN5physx14PxLightCpuTaskD2Ev
nq:__ZNSt3__26vectorIN4core12basic_stringIcNS1_20StringStorageDefaultIcEEEENS_9allocatorIS5_EEE6assignINS_11__wrap_iterIPS5_EEEENS_9enable_ifIXaasr21__is_forward_iteratorIT_EE5valuesr16is_constructibleIS5_NS_15iterator_traitsISE_E9referenceEEE5valueEvE4typeESE_SE_
Nvg:_Vector2_get_zero_m540426400
t3i:_il2cpp_init
fIg:__Z105RuntimeInvoker_RuntimeObject_RuntimeObject_StreamingContext_t3711869237_ISurrogateSelectorU26_t3801502798PFvvEPK10MethodInfoPvPS4_
jNc:__ZNSt3__26__treeIPN2UI14CanvasRendererENS_4lessIS3_EENS_9allocatorIS3_EEE7destroyEPNS_11__tree_nodeIS3_PvEE
$qa:__ZN13GfxDeviceGLES22UploadTextureSubData2DE9TextureIDPKhiiiiii14GraphicsFormat
uue:_DefaultComparer_Compare_m3648806637_gshared
Qkc:__Z35Register_UnityEngine_Screen_get_dpiv
Huc:__ZN8JSONRead8TransferIxEEvRT_PKc17TransferMetaFlagsb
bxc:__ZN13SpeedTreeWind7AdvanceEbd
Vke:_InternalEnumerator_1_get_Current_m923139215_AdjustorThunk
hQi:__ZN15dense_hashtableINSt3__24pairIK10KeyWrapperIN6il2cpp5utils13dynamic_arrayIPK10Il2CppTypeLj4EEEEPFvvEEESA_NS3_8metadata19Il2CppSignatureHashEN14dense_hash_mapISA_SD_SG_NSA_14EqualsComparerINSF_22Il2CppSignatureCompareEEENS0_9allocatorISE_EEE9SelectKeyESK_SM_E12expand_arrayEjN21dense_hash_map_traits17integral_constantIbLb0EEE
NLf:_Array_FindLastIndex_TisRuntimeObject_m2929523835_gshared
tcc:__ZN9Transform16SetLocalPositionERK8Vector3f
L0b:__ZN10BootConfig4Data12InitFromFileEPPKcjS2_
JAb:__Z15Transfer_StringI18StreamedBinaryReadILb0EELb0EEvRK29SerializationCommandArgumentsR31RuntimeSerializationCommandInfo
AKc:_ft_open_face_internal
aDc:_UNITY_tt_face_free_name
eQe:_InputField_set_selectionAnchorPosition_m68980541
BCa:__ZN14DataBufferGLES3MapEjjj
eDd:_Int16_System_IConvertible_ToDouble_m1661805412
dIj:_emscripten_glGetShaderiv__wrapper
T2b:__Z13RegisterClassI9TransformEvv
Eti:_Repetition_Compile_m988726715
zY:__ZNK6Camera33CalculateFarPlaneWorldSpaceLengthEv
k_c:_BaseInput_GetButtonDown_m3789908809
w6g:_List_1_System_Collections_IList_Insert_m2401407093_gshared
xWd:_EnumBuilder_get_BaseType_m1707640163
s$i:__ZNK15dense_hashtableINSt3__24pairIK10KeyWrapperINS1_IPK11Il2CppImageP11Il2CppClassEEEjEES9_17ReflectionMapHashIS8_EN14dense_hash_mapIS9_jSD_NS9_14EqualsComparerINS0_8equal_toIS8_EEEENS0_9allocatorISB_EEE9SelectKeyESI_SK_E5beginEv
uJj:b98
Pyc:_cf2_stack_setReal
pI:__ZN4FMOD3DSP8getInputEiPPS0_PPNS_13DSPConnectionE
eN:__ZN11SoundHandle8Instance13CreateChannelERS_b
DRd:_NumberFormatter_NumberToString_m2529982306
jH:__ZN13AudioListenerD2Ev
LLc:_UNITY_FT_Done_Library
msj:__ZN6il2cpp2os5MutexC2Eb
rmi:_PKCS12__cctor_m3271060407
Nve:_Comparer_1__cctor_m2282308543_gshared
OPc:__ZN2UI13CanvasManager17EmitDataForCameraEP6Camera
N7d:_ARC4Managed_CheckInput_m1562172012
g1f:_Enumerator_MoveNext_m4018122760_gshared
V7:___cxx_global_var_init_66
Zji:_TlsStream_ReadBytes_m2334803179
Iic:__Z44Register_UnityEngine_Material_GetTextureImplv
Mbi:_ReadOnlyCollection_1_System_Collections_IList_Add_m2445024939_gshared
e5a:__ZN19StreamedBinaryWriteILb0EE21TransferSTLStyleArrayI13dynamic_arrayI31EnlightenSystemAtlasInformationLj8EEEEvRT_17TransferMetaFlags
lKd:_FileStream_EndRead_m3904255625
oGb:__ZL8MainLoopv
t9b:__ZN17TransformInternal25CopyTransformSubhierarchyER18TransformHierarchyjS1_yyjb
IIe:_CallContextRemotingData_Clone_m14303327
tRc:__Z47Register_UnityEngine_CanvasRenderer_SetMaterialv
OJj:_emscripten_glIsShader__wrapper
O4e:_DSAManaged_get_PublicOnly_m3575594967
lMc:__Z26CleanupTextRenderingModulev
rH:__ZN13AudioListener23VirtualRedirectTransferER24GenerateTypeTreeTransfer
ilb:__ZNK12HandlerChain9EnumerateEPKcP19dynamic_block_arrayI13FileEntryInfoLj32EEbPPv19FileEnumerationFlag
Hbb:__ZThn32_N12MeshRendererD1Ev
uZa:__ZN13RenderTexture23VirtualRedirectTransferER19StreamedBinaryWriteILb0EE
alj:__ZN6il2cpp2vm13ComObjectBase17GetMarshalSizeMaxERK10Il2CppGuidPvjS5_jPj
nxj:_truncate
vla:__ZN9ShaderLab27SerializedShaderVectorValue8TransferI18StreamedBinaryReadILb0EEEEvRT_
tX:__ZN8Renderer21RendererBecameVisibleEv
Kwj:___stpncpy
E9:__ZN10MemoryPool16StaticInitializeEPv
Ofa:__ZN11TypeManager21CleanupGlobalInstanceEv
rCf:_Enum_ToString_m2240012010
N:Math_atan
xa:invoke_iifii
SG:__ZNK10SampleClip11GetResourceEv
H0d:_MonoEvent_get_Name_m3774595291
gpa:__ZN9GfxDevice15GetStereoMatrixE21MonoOrStereoscopicEye24BuiltinShaderMatrixParamR10Matrix4x4f
DOa:__ZN4core12basic_stringIcNS_20StringStorageDefaultIcEEE6resizeEj
_nc:__Z43Register_UnityEngine_Event_set_displayIndexv
twc:__GLOBAL__sub_I_CmEventProfiler_cpp
SOg:__Z128RuntimeInvoker_RuntimeObject_RuntimeObject_SByte_t1669577662_SByte_t1669577662_SByte_t1669577662_SByte_t1669577662_RuntimeObjectPFvvEPK10MethodInfoPvPS4_
O7f:_UnicodeEncoding_GetMaxByteCount_m3053620432
oIe:_ArgInfo__ctor_m1950205784
Vdi:_Nullable_1_Equals_m4046255732_AdjustorThunk
sQa:__ZN17GlobalGameManager23VirtualRedirectTransferER24GenerateTypeTreeTransfer
OVc:__ZN19UnityConnectServiceD0Ev
Xyi:_ToggleGroup_ValidateToggleIsInGroup_m3201190739
yVi:__ZN6il2cpp2vm7Runtime17GetDelegateInvokeEP11Il2CppClass
Xqg:_MonoBehaviour_StartCoroutine_Auto_Internal_m2421197418
dxc:___cxx_global_var_init_128
_1d:_MonoProperty_get_PropertyType_m4138957578
eUa:__ZNSt3__26vectorIfNS_9allocatorIfEEE8__appendEjRKf
bUc:__ZN11UnityEngine15PlatformWrapper21GetCopyTextureSupportEv
Auf:_DateTime_get_Month_m1566006993_AdjustorThunk
aHf:_Array_get_swapper_TisRaycastResult_t3360306849_m1267000905_gshared
Xfe:_SslClientStream__ctor_m3478574780
iO:__ZN11AudioModule27IsFormatSupportedByPlatformEPKc
lKc:_UNITY_FT_Render_Glyph
RVd:_DerivedType_GetFields_m3190137327
n$c:_EventSystem_OnDisable_m3820258344
hwc:__Z19TransferField_ArrayI8JSONRead16Converter_StringEvRK23StaticTransferFieldInfoR31RuntimeSerializationCommandInfoRT0_
Vhd:_MACTripleDES_Setup_m560957914
v6b:__ZZN10MeshFilter15InitializeClassEvEN31FunctorImpl_108kDidAddComponent4CallEPviR11MessageData
GQi:__ZN15dense_hashtableINSt3__24pairIK10KeyWrapperIPK19Il2CppGenericMethodEPK26Il2CppGenericMethodIndicesEES6_N6il2cpp8metadata23Il2CppGenericMethodHashEN14dense_hash_mapIS6_SA_SE_NS6_14EqualsComparerINSD_26Il2CppGenericMethodCompareEEENS0_9allocatorISB_EEE9SelectKeyESI_SK_E6insertERKSB_
KUb:__Z19SetupShadowCullDataRK27ScriptableCullingParametersRK17ShaderReplaceDataPK22SceneCullingParametersf16ShadowProjectionR14ShadowCullData
MKa:__ZNK25ThreadsafeLinearAllocator22GetAllocatedMemorySizeEv
Rxc:_cff_size_request
M_a:__ZN15DirectorManager14ConnectionPool12SwitchBucketEP14ConnectionList
wNc:__ZN2UI11CompareFuncEPNS_6CanvasES1_
fJ:__ZN4FMOD7Channel11set3DSpreadEf
Isj:__ZN6il2cpp2os6Memory14AlignedReAllocEPvjj
SCe:_Dictionary_2_Resize_m1156965638_gshared
e2a:__ZN24GenerateTypeTreeTransfer16TransferTypelessEPjPKc17TransferMetaFlags
_Mf:_Array_InternalArray__IndexOf_TisPlayableBinding_t354260709_m3544096311_gshared
Jkf:_SHA512Managed_processLength_m2162821715
TBa:__ZL18ProgramUniform4uivPK7ApiGLESjiihPKv
ttg:_Vector3_get_normalized_m2454957984
Q9f:_Mutex_CreateMutex_internal_m3763633491
SXh:__ZL74SpriteState_t1362986479_CustomAttributesCacheGenerator_m_HighlightedSpriteP21CustomAttributesCache
Qm:FUNCTION_TABLE_viiiiiiiiiiiiiii
Bac:__ZNK4Mesh19CanAccessFromScriptEv
d2:__Z15GetGraphicsCapsv
vEa:__ZN7ApiGLES15BindVertexArrayEN2gl6HandleILNS0_10ObjectTypeE3EEE
qRf:_Dictionary_2_System_Collections_IDictionary_Remove_m316877720_gshared
Fv:__ZN17AnimationPlayable17GetAnimationClipsER13dynamic_arrayIP13AnimationClipLj4EE
$Rb:__Z20IntersectionAABBAABBRK10MinMaxAABBS1_PS_
Xge:_SslStreamBase_get_SecurityProtocol_m596101988
$Xi:__ZNSt3__212basic_stringIcNS_11char_traitsIcEENS_9allocatorIcEEE6__initIPKcEENS_9enable_ifIXsr21__is_forward_iteratorIT_EE5valueEvE4typeESA_SA_
una:__ZN9ShaderLab20SerializedSubProgram14AddMatrixParamEPKcii15ShaderParamTypei
fMg:__Z121RuntimeInvoker_Void_t1185182177_Int32_t2950945753_Int32_t2950945753_Int32_t2950945753_Int32_t2950945753_Int32_t2950945753PFvvEPK10MethodInfoPvPS4_
gHc:_ft_var_load_item_variation_store
ijd:_DeriveBytes_set_Salt_m441577179
$hi:_UnityEvent_3_FindMethod_Impl_m1640458315_gshared
zqh:__ZL61ConstructorBuilder_t2813524108_CustomAttributesCacheGeneratorP21CustomAttributesCache
Tnb:__Z18Transfer_BlittableI14SafeBinaryReadLb1EhEvRK29SerializationCommandArgumentsR31RuntimeSerializationCommandInfo
B$e:_Text_get_verticalOverflow_m2420459396
xga:__ZNSt3__224__buffered_inplace_mergeIRNS_4lessIN4core12basic_stringIcNS2_20StringStorageDefaultIcEEEEEENS_11__wrap_iterIPS6_EEEEvT0_SC_SC_T_NS_15iterator_traitsISC_E15difference_typeESG_PNSF_10value_typeE
cc:invoke_viifff
Iaa:__Z22DestroyObjectHighLevelP6Objectb
Yfd:_KeySizes__ctor_m3113946058
mPb:__Z26BeginRenderQueueExtractionR15RenderNodeQueuePK16RendererCullDataRK13CullingOutputPK12LODDataArray15ExtractionFlagsP18JobBatchDispatcher
UJc:__ZNK13TextRendering4Font10GetTextureEv
oj:_emscripten_glVertexAttrib3fv
nIe:_LifetimeServices__cctor_m2128864873
Xeg:_UInt16_TryParse_m3193697465
t8i:__ZN6il2cpp6icalls8mscorlib6System9Threading6Thread16SetName_internalEP12Il2CppThreadP12Il2CppString
rif:_RIPEMD160Managed_GG_m3020389474
czf:_Decimal_op_Division_m2407964042
WPe:_InputField_get_asteriskChar_m965956856
UUa:__ZN18JobBatchDispatcherC2E11JobPriorityi
bhd:_HashAlgorithm_Create_m644612360
Zrg:_Playable_get_Null_m3556999077
r2e:_BigInteger_TestBit_m1507066813
Xlc:__ZN8GUIStyle14GetBuiltinFontEv
Sra:__ZN9GfxDevice13EndFrameStatsEv
c5b:__Z7Empty2DP9Texture2DPhiiii
n_h:_Array_InternalArray__set_Item_TisRefEmitPermissionSet_t484390987_m3786305619_gshared
ZGi:_DisplayBuffer_GetAllDisplayLines_m956916978
v7i:__ZN6il2cpp6icalls8mscorlib6System7Runtime15InteropServices7Marshal19copy_from_unmanagedEiiP11Il2CppArrayi
iH:__ZL34StaticDestroyAudioCustomFilterRootPv
oie:_ArrayReadOnlyList_1_GetEnumerator_m3931906247_gshared
SFa:__ZN19ComputeShaderKernelD2Ev
CLi:__ZN6il2cpp2vmL17SetupEventsLockedEP11Il2CppClassRKNS_2os12FastAutoLockE
u1b:__ZN10systeminfo21GetTemporaryCachePathEv
H5b:__ZZN8Renderer15InitializeClassEvEN28FunctorImpl_138kLayerChanged4CallEPviR11MessageData
nmj:__ZN6il2cpp2os4Time29GetTicksMillisecondsMonotonicEv
Abd:_GridLayoutGroup_CalculateLayoutInputVertical_m357562599
k9f:_CompressedStack_Capture_m3327262890
kub:__Z18Transfer_BlittableI24GenerateTypeTreeTransferLb1E10Matrix4x4fEvRK29SerializationCommandArgumentsR31RuntimeSerializationCommandInfo
B2c:_StandaloneInputModule_get_repeatDelay_m1143359059
Z8f:_UTF8Encoding_GetMaxByteCount_m420651053
Esc:__ZN9JSONWrite8TransferI10Matrix4x4fEEvRT_PKc17TransferMetaFlags
zzc:_cf2_hintmap_map
Xuf:_DateTime_Compare_m2855073242
A1g:_List_1_get_Item_m1651423686_gshared
jUa:__ZNK16GraphicsSettings22GetTypeVirtualInternalEv
_cg:_Type_get_IsExplicitLayout_m1182254884
Zqb:__ZN15SerializeTraitsI5RectTIfEE8TransferI14SafeBinaryReadEEvRS1_RT_
dLa:__ZNK14SerializedFile15GetTypeIfExistsEx
ujc:__Z41Register_UnityEngine_Texture_get_wrapModev
aLc:_UNITY_FT_Raccess_Get_DataOffsets
H8b:__ZN14PlayableOutputC2EjP13PlayableGraph
IX:__ZThn32_NK8Renderer11GetMaterialEi
k7c:_FloatTween_AddOnChangedCallback_m2814315272
vmj:__ZN6il2cpp6icalls8mscorlib6System7Runtime15InteropServices8GCHandle15GetTargetHandleEP12Il2CppObjectii
akg:_CameraCallback_Invoke_m3308824940
xcb:__ZN9InputAxis8TransferI18StreamedBinaryReadILb0EEEEvRT_
xW:__ZN13MemoryManager12GetAllocatorE10MemLabelId
U5d:_BigInteger_ToString_m3260066955
Loa:__ZN9GfxDevice29GetMinimumNodesPerGraphicsJobEv
GKh:__ZL63RuntimePlatform_t4159857903_CustomAttributesCacheGenerator_NaClP21CustomAttributesCache
vab:__ZN17BlendShapeChannel8TransferI24GenerateTypeTreeTransferEEvRT_
$Ze:_Slider__ctor_m873361617
R4d:_GCHandle__ctor_m2690474163_AdjustorThunk
Tea:__ZN15DirectorManager17OnSampleFixedTimeEv
cWb:__ZNK13RendererScene21GetDynamicObjectCountEv
iBf:_Double_Parse_m1135962389
nki:_X509Extension__ctor_m710637961
ovf:_CultureInfo_get_CurrentCulture_m1632690660
I5e:_PKCS1_OS2IP_m65970018
Ck:_Mix_HaltMusic
c8h:_ReadOnlyCollection_1_System_Collections_IList_set_Item_m70952451_gshared
Sfb:__ZNSt3__26vectorIN30RuntimeInitializeOnLoadManager9ClassInfoE13stl_allocatorIS2_L18MemLabelIdentifier13ELi16EEE8__appendEj
Sub:__ZN24GenerateTypeTreeTransfer32TransferSTLStyleArrayWithElementI23ManagedObjectTransfererEEvRT_17TransferMetaFlags
cjj:__ZN6il2cpp6icalls8mscorlib6System11Environment12get_PlatformEv
P9e:_HttpWebRequest__cctor_m1467954389
dbe:_CipherSuiteCollection_System_Collections_IList_Remove_m2463347416
M5h:_ReadOnlyCollection_1_System_Collections_IList_RemoveAt_m1980090087_gshared
Rog:_DefaultValueAttribute_GetHashCode_m3368187153
Usj:__ZN6il2cpp6icalls8mscorlib6System7Runtime8Remoting16RemotingServices16GetVirtualMethodEP20Il2CppReflectionTypeP22Il2CppReflectionMethod
Uec:__Z42Register_UnityEngine_Behaviour_get_enabledv
Pge:_SslStreamBase_EndNegotiateHandshake_m1124299797
Lee:_SslStreamBase__ctor_m3009266308
bXi:__ZN6il2cpp2vm14TypeNameParser23ParseNestedTypeOptionalERi
Kbg:_TimeSpan_get_Seconds_m1883479191_AdjustorThunk
ssj:__ZN6il2cpp2os13FastMutexImplC2Ev
w4d:_RuntimeHelpers_InitializeArray_m4077124945
Pfb:__ZN30RuntimeInitializeOnLoadManager9ClassInfo8TransferI14SafeBinaryReadEEvRT_
a6d:_BigInteger_op_Equality_m1194739960
u8f:_UTF7Encoding_GetCharCount_m2792854727
wSb:__ZL13RenderCastersiRK8Vector3fS1_RK13ShadowJobDataR17ShaderPassContextRKNSt3__26vectorI16ShadowCasterData13stl_allocatorIS9_L18MemLabelIdentifier2ELi16EEEERKNS8_I20ShadowCasterPartDataSA_ISG_LSB_2ELi16EEEERK15RenderNodeQueuebPKj
nl:_emscripten_glGetShaderInfoLog
A$e:_Text_get_horizontalOverflow_m4155575610
JNe:_ObjectReader_RecordFixup_m4125245357
wDc:_UNITY_ft_glyphslot_set_bitmap
Cl:_glUniform1i
CQe:_InputField_Validate_m4147207871
z1b:__ZN6prcoreL11inner_clearILj3EEEvPhjjj
tDf:_CCGregorianCalendar_dmy_from_fixed_m494173177
B4g:_List_1_System_Collections_IList_IndexOf_m3211997095_gshared
u5:__Z29FindReflectionProbeFromAnchorP9TransformRK4AABBRS1_RsS5_
jrd:_Byte_System_IConvertible_ToUInt64_m371883985_AdjustorThunk
OFc:_Read_CVT_Stretched
CUi:__ZN6il2cpp6icalls8mscorlib6System18CollectTypeMethodsINS_5utils10functional10TrueFilterEEEvP11Il2CppClassPKS7_jRKT_RNSt3__26vectorIPK10MethodInfoNSE_9allocatorISI_EEEERA65535_b
xGb:__Z14SetPlayerPause11PlayerPauseb
Uvd:_CollectionBase_System_Collections_ICollection_CopyTo_m2850099809
n7h:_ReadOnlyCollection_1_System_Collections_IEnumerable_GetEnumerator_m3042843502_gshared
P2c:_StandaloneInputModule_ActivateModule_m2232892298
Z4d:_GCHandle_Free_m1457699368_AdjustorThunk
qag:_Thread_get_CurrentUICulture_m1397429997
pAc:_cff_done_blend
bjf:_RSACryptoServiceProvider_Dispose_m1199148535
Pad:_Graphic_RegisterDirtyLayoutCallback_m1235519898
s_:__Z30scripting_stack_trace_info_for21ScriptingExceptionPtrR14StackTraceInfo
pzg:_Vector2_op_Inequality_m3858779880
_Bj:_glCompressedTexSubImage3D__wrapper
GYa:__ZN18ShadowMapJobHeaderD0Ev
TZe:_Selectable_Select_m1465131241
T$i:__ZN15dense_hashtableINSt3__24pairIK10KeyWrapperINS1_IPK12PropertyInfoP11Il2CppClassEEEjEES9_17ReflectionMapHashIS8_EN14dense_hash_mapIS9_jSD_NS9_14EqualsComparerINS0_8equal_toIS8_EEEENS0_9allocatorISB_EEE9SelectKeyESI_SK_EC2ERKSN_j
zI:__ZN15AudioReverbZone7CleanupEv
voa:__ZN10BufferGLESD0Ev
dGb:__Z20scripting_gc_disablev
Tod:_Attribute_IsDefined_m1430686743
bif:_IntervalCollection_Optimize_m161975983
d6c:__Z9NullCheckPv
yhg:_Version__ctor_m417728625
Bfa:__ZN16memory_pool_implILi68EE15AutoPoolWrapper10InitializeEPv
Zzd:_Convert_ToByte_m3567528984
ufi:_InvokableCall_1_Invoke_m3497872319_gshared
GEb:__ZN9Scripting35ErrorMessageForUnsupportedEnumFieldE17ScriptingFieldPtr
l0e:_Level2MapComparer__cctor_m1866197409
vAb:__Z29Transfer_Blittable_ArrayFieldI18StreamedBinaryReadILb1EEfEvRT_R9ArrayInfoRK23StaticTransferFieldInfo
gfe:_RecordProtocol_ReadRecordBuffer_m180543381
iwe:_Enumerator_get_CurrentKey_m2230405065_AdjustorThunk
ABi:__ZL24UnresolvedVirtualCall_10P12Il2CppObjectPK10MethodInfo
nvd:_BitArray__ctor_m2765908219
Orf:_StringComparer_get_InvariantCultureIgnoreCase_m2404489191
RFi:_Font_get_material_m1471867149
bmj:__ZN6il2cpp6icalls8mscorlib6System7Runtime16CompilerServices14RuntimeHelpers15InitializeArrayEP11Il2CppArrayi
dHe:_Context_Freeze_m2594571993
dXc:__ZZN18UnityConnectClient23RegisterGlobalCallbacksEvEN46EarlyUpdateUnityConnectClientUpdateRegistrator7ForwardEv
v6c:_ContentSizeFitter_HandleSelfFittingAlongAxis_m3992075504
UOf:_Array_InternalArray__ICollection_CopyTo_TisInt32_t2950945753_m3102754797_gshared
jtg:_Quaternion_ToString_m2203056442
AVd:_ModuleBuilder_GetTokenGenerator_m4177350090
Eab:__ZN10Matrix4x4f8TransferI18StreamedBinaryReadILb0EEEEvRT_
wag:_Thread_Start_m2860771284
A9g:_List_1_AddEnumerable_m2295992518_gshared
wM:__ZN4FMOD7Channel19getReverbPropertiesEP29FMOD_REVERB_CHANNELPROPERTIES
oVb:__ZL23NormalizeRobustInternalRK8Vector3fRfS2_f
gxc:__GLOBAL__sub_I_modules_terrain_public_2_cpp
xPe:_InputField_get_selectionColor_m2548343601
mNf:_Array_LastIndexOf_TisRuntimeObject_m2701366436_gshared
sUi:__ZN6il2cpp6icalls8mscorlib6System8MonoType13GetInterfacesEP20Il2CppReflectionType
IT:__ZN11UnityEngine15CloudWebService25WebRequestDownloadHandler7OnAbortEv
YLb:__ZN6Camera12CustomRenderER11CullResultsR17ShaderPassContextPK21CameraRenderingParamsNS_10RenderFlagEPNS_21PerformRenderFunctionEPFvvE
Acf:_PublicKey_GetUnsignedBigInteger_m3873409673
mhj:__ZN6il2cpp2os6Thread22SetNativeThreadCleanupEPFvPvE
vZf:_GenericEqualityComparer_1_Equals_m2669134646_gshared
tec:__Z35Application_Get_Custom_PropPlatformv
I3i:_il2cpp_class_from_system_type
aed:_RuntimeMethodHandle__ctor_m2867240657
Bsf:_DecoderFallback_get_StandardSafeFallback_m2130338133
bn:FUNCTION_TABLE_vdd
Rtb:__Z18Transfer_BlittableI24GenerateTypeTreeTransferLb1E10ColorRGBAfEvRK29SerializationCommandArgumentsR31RuntimeSerializationCommandInfo
oAa:__ZN6prcoreL17RemapGenericFloatI18TexFormatRGBAFloat16TexFormatRGFloatEEvPKNS_9InnerInfoE
TTi:__ZN6il2cpp6icalls8mscorlib6System8MonoType8get_NameEP20Il2CppReflectionType
E1e:_SimpleCollator_LastIndexOf_m2130553617
oqb:__ZNSt3__26vectorI10RectOffset13stl_allocatorIS1_L18MemLabelIdentifier1ELi16EEE8__appendEj
Tt:__ZN21AnimationClipPlayable22PrepareAnimationEventsEfR13dynamic_arrayI22AnimationClipEventInfoLj4EE
iue:_DefaultComparer_Compare_m1920986590_gshared
tcg:_TimeSpan_op_Equality_m1999885032
Zge:_SslStreamBase_get_ServerCertificates_m2154373069
Ecj:__ZN6il2cpp2vmL29AddTypeToNametoClassHashTableEPK11Il2CppImagei
Ro:FUNCTION_TABLE_ff
To:FUNCTION_TABLE_fi
BEd:_NumberFormatter_ZeroTrimEnd_m3065471008
Qgi:_UnityAction_2_Invoke_m2304474703_gshared
Rjd:_X509Certificate_get_DSA_m1760272844
pag:_Thread_get_CurrentCulture_m349116646
iag:_Thread_Thread_internal_m4184414727
rd:_emscripten_glGetAttribLocation
EKb:__ZZ23InitPlayerLoopCallbacksvEN39PostLateUpdateResetInputAxisRegistrator7ForwardEv
kL:__ZN4FMOD12ChannelGroup14getParentGroupEPPS0_
vd:_emscripten_set_blur_callback
kdh:_Collection_1_IsValidItem_m1475436662_gshared
dya:__ZNK14ImageReference9ClipImageEiiii
x6b:__ZN4MeshC2E10MemLabelId18ObjectCreationMode
fTb:__ZN10Matrix4x4f30SetPositionAndOrthoNormalBasisERK8Vector3fS2_S2_S2_
oKa:__ZN5RectTIfE8TransferI24GenerateTypeTreeTransferEEvRT_
a6c:_ColorBlock_Equals_m518833916
zgj:__ZN6il2cpp6icalls8mscorlib6System4Enum8ToObjectEP20Il2CppReflectionTypeP12Il2CppObject
j$h:_Array_qsort_TisUIVertex_t4057497605_m4120916435_gshared
mNb:__ZN12FlareManager6UpdateEv
vaj:__ZN6il2cpp6icalls8mscorlib6System4Type29GetGenericTypeDefinition_implEP20Il2CppReflectionType
tdb:__ZN27GenericSlowGarbageCollector16ProcessReferenceEi
FRf:_Dictionary_2_get_Item_m1749337561_gshared
hGe:_LifetimeServices_set_SponsorshipTimeout_m2538334028
g0h:_Array_Sort_TisCustomAttributeTypedArgument_t2723150157_m3248988944_gshared
dwj:_fopen
_ma:__ZN20GpuProgramParameters15AddTextureParamEPKciib16TextureDimensionP16PropertyNamesSet
BLc:__ZN20TextRenderingPrivate8FontImplD2Ev
zV:__ZN19CloudServiceHandler8SaveFileERKN4core12basic_stringIcNS0_20StringStorageDefaultIcEEEEPKvj
V9i:__ZN6il2cpp2vm9Exception5RaiseEib
Vmj:_GC_init
uQd:_MonoType_IsPointerImpl_m3340652279
BEj:_glFramebufferTexture2D__wrapper
Itj:__ZN6il2cpp6icalls8mscorlib6System7Runtime8Remoting7Proxies9RealProxy27InternalGetTransparentProxyEP12Il2CppObjectP12Il2CppString
dij:__ZN6il2cpp2vm6Method10IsInflatedEPK10MethodInfo
smj:__ZNK6il2cpp8metadata14Il2CppTypeLessclEPK10Il2CppTypeS4_
pnj:_GC_remove_header
lWa:__ZL17InstanceBufferJobIN10Instancing14RenderLoopArgsEEvP21InstanceBufferJobDataIT_E
Hfb:__ZNSt3__26vectorIi13stl_allocatorIiL18MemLabelIdentifier13ELi16EEE8__appendEj
_Ve:_ReflectionMethodsCache__ctor_m3826472948
WKe:_ReturnMessage_get_OutArgs_m1641976511
ZHe:_SynchronizationAttribute_IsContextOK_m324067792
Rfj:__ZN6il2cpp2vm6Object6IsInstEP12Il2CppObjectP11Il2CppClass
bxb:__Z19TransferField_ArrayI19StreamedBinaryWriteILb0EE27Converter_UnityEngineObjectEvRK23StaticTransferFieldInfoR31RuntimeSerializationCommandInfoRT0_
wWi:_RemoteSettings_CallOnUpdate_m2821567430
dAe:_Enumerator_Dispose_m3503748991_gshared
Vua:__Z16GetMSAALevelDesc9MSAALevel
JCf:_Environment_GetMachineConfigPath_m43519138
foe:_InternalEnumerator_1_System_Collections_IEnumerator_get_Current_m4203917072_gshared
qyf:_Decimal_decimal2Int64_m2102545213
lMb:__ZN8Renderer27EnsureTransformInfoUpToDateEv
kJj:_emscripten_glFrontFace__wrapper
tDe:_Dictionary_2_System_Collections_ICollection_CopyTo_m534867526_gshared
La:invoke_fiffi
G0:__ZN14SerializedFile14SerializedType8ReadTypeILb1EEEbibRPKhS3_Pi
bgi:_InvokableCall_1_Invoke_m1160628299_gshared
z_c:_ExecuteEvents_get_pointerEnterHandler_m1185301724
Dji:_InternalAsyncResult__ctor_m2194591319
NYa:__ZN8Playable7SetTimeEd
laa:__ZN13RuntimeStaticI12GraphicsCapsLb0EE16StaticInitializeEPv
U8a:__ZN9Texture3D17UploadToGfxDeviceEv
umd:_ArgumentException__ctor_m3761792013
CEc:_tt_cmap2_validate
FAc:_cff_cmap_unicode_done
dEe:_ActivationServices_CreateProxyFromAttributes_m3864561181
VFb:__ZN9Scripting20SendScriptingMessageER10GameObjectPKc18ScriptingObjectPtr
RPg:__Z67RuntimeInvoker_Void_t1185182177_Scene_t2348375561_Int32_t2950945753PFvvEPK10MethodInfoPvPS4_
tGb:__Z26IsSplashScreenFadeCompletev
tfc:__Z42Register_UnityEngine_Camera_get_clearFlagsv
uUi:__ZNSt3__26__treeIP11Il2CppClassNS_4lessIS2_EENS_9allocatorIS2_EEED2Ev
O_e:_Slider_FindSelectableOnRight_m3576909722
uZb:__ZN13RenderManager27UpdatePreviousFrameMatricesEv
myb:__Z35Transfer_Blittable_FixedBufferFieldI18StreamedBinaryReadILb1EExEvRK29SerializationCommandArgumentsR31RuntimeSerializationCommandInfo
y2h:_Array_InternalArray__get_Item_TisByte_t1134296376_m3566214066_gshared
uba:__Z22SetManagerPtrInContextiP6Object
qeb:__ZN14PlayerSettings8TransferI19StreamedBinaryWriteILb0EEEEvRT_
Btc:__Z18Transfer_BlittableI8JSONReadLb0E10ColorRGBAfEvRK29SerializationCommandArgumentsR31RuntimeSerializationCommandInfo
PDf:_NumberFormatInfo_set_NumberNegativePattern_m1999304795
t7g:_List_1_System_Collections_IList_Insert_m2238786360_gshared
LXd:_GenericTypeParameterBuilder_IsSubclassOf_m2266644074
zQi:__ZN15dense_hashtableINSt3__24pairIK10KeyWrapperIN6il2cpp5utils13dynamic_arrayIPK10Il2CppTypeLj4EEEEPFvvEEESA_NS3_8metadata19Il2CppSignatureHashEN14dense_hash_mapISA_SD_SG_NSA_14EqualsComparerINSF_22Il2CppSignatureCompareEEENS0_9allocatorISE_EEE9SelectKeyESK_SM_E14squash_deletedEv
mEf:_CompareInfo_ToString_m2684143229
Mda:__ZN15DirectorManagerD2Ev
n_e:_Slider_get_maxValue_m414465787
J_i:__ZN15dense_hashtableINSt3__24pairIK10KeyWrapperINS1_IPK10MethodInfoP11Il2CppClassEEEjEES9_17ReflectionMapHashIS8_EN14dense_hash_mapIS9_jSD_NS9_14EqualsComparerINS0_8equal_toIS8_EEEENS0_9allocatorISB_EEE9SelectKeyESI_SK_E9copy_fromERKSN_j
Hef:_X509CertificateEnumerator_System_Collections_IEnumerator_get_Current_m4218613192
JTc:__ZN11UnityEngine15PlatformWrapper12GetInfoFlagsEv
IWe:_Scrollbar_set_direction_m473480640
W7f:_UTF32Encoding__ctor_m1635603592
Egg:_UInt64_Equals_m1879425698_AdjustorThunk
Xti:_Uri_IsPredefinedScheme_m1188665625
fXc:__ZN18UnityConnectClient13StaticDestroyEv
Haj:__ZN6il2cpp6icalls8mscorlib6System13Globalization11CultureInfo45construct_internal_locale_from_current_localeEP17Il2CppCultureInfo
BPf:_Array_InternalArray__ICollection_CopyTo_TisUIVertex_t4057497605_m487823430_gshared
Yaf:_ServicePointManager_get_CheckCertificateRevocationList_m1645465614
rWi:_SessionStateChanged_Invoke_m1365949269
iGa:__ZN15TextureTFMethod16BindForRenderingEj
KQh:__ZL49Canvas_t3310196443_CustomAttributesCacheGeneratorP21CustomAttributesCache
fLe:_SoapMethodAttribute_SetReflectionObject_m503748123
GGf:_Guid_Equals_m3683678873_AdjustorThunk
Fcj:__ZN15dense_hashtableINSt3__24pairIK10KeyWrapperINS1_IPKcS4_EEEiEES6_24NamespaceAndNamePairHashN14dense_hash_mapIS6_iS9_NS6_14EqualsComparerI26NamespaceAndNamePairEqualsEENS0_9allocatorIS8_EEE9SelectKeyESD_SF_E4findERS7_
qJc:__ZN20TextRenderingPrivate8FontImpl13CharacterInfo8TransferI19StreamedBinaryWriteILb0EEEEvRT_
LSi:__ZN6il2cpp2os19SocketHandleWrapper7ReleaseEv
oig:_BeforeRenderHelper_Invoke_m50072094
AJe:_MethodCall_get_MethodBase_m550047245
edb:__ZNSt3__27__sort4IRNS_6__lessINS_4pairIPKN5Unity4TypeE7Hash128EES8_EEPS8_EEjT0_SC_SC_SC_T_
Wac:__Z33AllocExtractMeshIndicesFromScriptRK4Meshib
noa:__ZNK11NamedObject22GetTypeVirtualInternalEv
Nti:_Uri_EscapeString_m2061933484
lpe:_InternalEnumerator_1_System_Collections_IEnumerator_get_Current_m1096730143_gshared
EAd:_Convert_ToDecimal_m3815908452
ykg:_Color_op_Equality_m1112359053
okg:_Color__ctor_m286683560_AdjustorThunk
LKd:_DelegatePInvokeWrapper_ReadDelegate_t714865915
iwd:_CollectionBase_Clear_m1509125218
Bnc:__ZN11IMGUIModule21QueryGUIDisplayTargetE17ScriptingClassPtr
BPi:__ZNSt3__27__sort4IRN6il2cpp5utils11collections13ArrayValueMapIPK10Il2CppType17Il2CppInteropData26InteropDataToTypeConverterNS1_8metadata14Il2CppTypeLessENSA_26Il2CppTypeEqualityComparerEE12SortComparerEPS8_EEjT0_SH_SH_SH_T_
Fzj:dynCall_vidi
DMd:_StreamReader_ReadToEnd_m371831293
Lpg:_Mathf_RoundToInt_m1874334613
wPd:_MonoCustomAttrs_GetCustomAttributes_m1775925192
Bgc:__Z42NoAllocHelpers_CUSTOM_ExtractArrayFromListP12Il2CppObject
$Cj:_glVertexAttribPointer__wrapper
zhd:_HMAC_Create_m2148924157
qzj:___udivdi3
SCf:_Exception__ctor_m1406832249
G0f:_Enumerator_System_Collections_IEnumerator_get_Current_m2339378585_gshared
Gcc:__ZN11PlayerPrefs9SetStringERKN4core12basic_stringIcNS0_20StringStorageDefaultIcEEEES6_
hqj:__ZN6il2cpp6icalls8mscorlib6System8Delegate18SetMulticastInvokeEP14Il2CppDelegate
Sve:_Enumerator_VerifyCurrent_m2197239943_gshared
sT:__ZN11UnityEngine15CloudWebService20WebRequestRestClient5BeginEv
B6b:__ZN8Material12CleanupClassEv
rwj:_fseek
txc:__ZN16memory_pool_implILi40EE15AutoPoolWrapper10InitializeEPv
guf:_DateTimeFormatInfo_GetEraName_m3151483707
E7e:_PKCS12_AddCertificate_m3618696508
AM:__ZN20SoundChannelInstance11set3DSpreadEf
u_f:_HashSet_1_Init_m2976925848_gshared
er:__ZNSt3__26__sortIRN11UnityEngine9Animation11BindingSortEPNS_4pairINS2_14GenericBindingEPNS2_10BoundIndexEEEEEvT0_SB_T_
See:_HttpsClientStream_U3CHttpsClientStreamU3Em__0_m2058474197
nCd:_Convert_ToUInt32_m2215525276
geb:__ZN24GenerateTypeTreeTransfer32TransferSTLStyleArrayWithElementI16SplashScreenLogoEEvRT_17TransferMetaFlags
hZi:__ZN15dense_hashtableINSt3__24pairIK10KeyWrapperINS1_IPK9FieldInfoP11Il2CppClassEEEjEES9_17ReflectionMapHashIS8_EN14dense_hash_mapIS9_jSD_NS9_14EqualsComparerINS0_8equal_toIS8_EEEENS0_9allocatorISB_EEE9SelectKeyESI_SK_E6insertERKSB_
Ene:_InternalEnumerator_1_get_Current_m2680116177_gshared
FNi:__ZN14dense_hash_mapI10KeyWrapperIPKcEP11Il2CppClassN6il2cpp5utils11StringUtils12StringHasherIS2_EENS3_14EqualsComparerINS7_13VmStringUtils21CaseSensitiveComparerEEENSt3__29allocatorINSF_4pairIKS3_S5_EEEEEC2EjRKSA_RKSE_
Tca:__Z37InitializeIntermediateRendererManagerPv
u9i:__ZN6il2cpp2vm13LivenessState16AddProcessObjectEP12Il2CppObjectPS1_
Fqf:_String_IndexOfOrdinal_m962178384
Ahd:_HMACMD5__ctor_m3129799368
_Wd:_TypeBuilder_GetEvent_m2166527753
Lad:_Graphic_CrossFadeColor_m678806803
jaa:__ZN23DefaultMeshVertexFormatC2E17ShaderChannelMask
Hyb:__ZL26Transfer_SimpleNativeClassI18StreamedBinaryReadILb1EE8GradientLb1EEvRK29SerializationCommandArgumentsR31RuntimeSerializationCommandInfo
tJg:__Z102RuntimeInvoker_Int32_t2950945753_RuntimeObject_Int32_t2950945753_CharU26_t1697032762_SByte_t1669577662PFvvEPK10MethodInfoPvPS4_
LQd:_MonoType_get_Namespace_m2015358851
vii:_IndexedSet_1_RemoveAt_m3002732320_gshared
Ixd:_HashKeys_CopyTo_m4219627824
cPe:_InputField_GetLineStartPosition_m2947412579
yua:__ZN7ApiGLES10InvalidateERK14GfxContextGLES
lpd:_Convert_ToType_m2406080310
sai:_ReadOnlyCollection_1_IndexOf_m2659941036_gshared
M9h:_ReadOnlyCollection_1_System_Collections_IList_set_Item_m3570269385_gshared
uVh:__ZL85Graphic_t1660335611_CustomAttributesCacheGenerator_Graphic_OnPopulateMesh_m2916877004P21CustomAttributesCache
F7c:_DefaultControls_CreateToggle_m1236643913
m4e:_BitConverterLE_ToSingle_m1153793442
psj:__ZN6il2cpp2os5Mutex7TryLockEjb
YCd:_Int16_System_IConvertible_ToByte_m3161982419
X4:__Z20IsVectorBuiltinParamPKcPi
rfj:__ZN6il2cpp2vm5Field8GetFlagsEP9FieldInfo
jid:_MD5CryptoServiceProvider_HashFinal_m2625727830
c$h:_Array_qsort_TisRaycastResult_t3360306849_m3861320071_gshared
_of:_Single_System_IConvertible_ToUInt32_m289030200
Z7i:__ZN6il2cpp6icalls8mscorlib6System10ReflectionL16LoadResourceFileEP24Il2CppReflectionAssembly
IAf:_Double_System_IConvertible_ToDouble_m3692611612
i0:__Z13IsFileCreatedRKN4core12basic_stringIcNS_20StringStorageDefaultIcEEEE
M$e:_Text_OnPopulateMesh_m1525268284
WJd:_FileStream_FlushBuffer_m914568182
s4a:__ZN16LightmapSettings18TransferDeprecatedI14SafeBinaryReadEEvRT_
t7f:_StringBuilder_AppendFormat_m921870684
nfj:__ZN15dense_hashtableINSt3__24pairIK10KeyWrapperIP12Il2CppObjectEN6il2cpp2gc9CachedCCWEEES5_NS7_5utils11PointerHashIS3_EEN14dense_hash_mapIS5_S9_SD_NS5_14EqualsComparerINS0_8equal_toIS4_EEEENS0_9allocatorISA_EEE9SelectKeyESI_SK_E5eraseE30dense_hashtable_const_iteratorISA_S5_SD_SM_SI_SK_E
Lwd:_Hashtable__ctor_m1684344284
ry:__ZThn152_NK26AnimatorControllerPlayable41GetStateMachineBehaviourVectorDescriptionEv
Gld:_Activator_CheckAbstractType_m2015247896
gjf:_RSACryptoServiceProvider_ImportParameters_m614616705
K7:__GLOBAL__sub_I_runtime_camera_renderloops_1_cpp
Pde:_SslHandshakeHash_CreateSignature_m1634235041
Dye:_ShimEnumerator_get_Current_m3504536618_gshared
cUa:__ZN12FlareManager9AddCameraER6Camera
nYc:__ZN15UnityWebRequestD0Ev
NTe:_LayoutRebuilder_U3CRebuildU3Em__3_m523803689
rN:__ZN11AudioSource8TransferI14SafeBinaryReadEEvRT_
GJd:_FileNotFoundException__ctor_m2477162036
MVf:_EqualityComparer_1__cctor_m149356781_gshared
Rxf:_Decimal_System_IConvertible_ToDouble_m3125524987
ov:__ZN7mecanim9animation23TransformDeltasFromClipEiiiRKNS0_18ClipMuscleConstantERKNS0_12ClipBindingsERKNS_14ValueArrayMaskERN4math4trsXESC_SC_
uBb:__Z18Transfer_BlittableI18StreamedBinaryReadILb0EELb0E12PropertyNameEvRK29SerializationCommandArgumentsR31RuntimeSerializationCommandInfo
wzj:___divdi3
hma:__ZN9ShaderLab9IntShader26CreateFromSerializedShaderERKNS_16SerializedShaderERNSt3__26vectorI4PPtrI6ShaderENS4_9allocatorIS8_EEEEbPS7_
Yoi:_Match_get_Empty_m2060287462
fnb:__ZN19ShaderPropertySheet16SetComputeBufferEN9ShaderLab16FastPropertyNameE15ComputeBufferIDNS_8SetFlagsE
srg:_U3CInvokeMessageIdSubscribersU3Ec__AnonStorey0_U3CU3Em__0_m444206473
SRf:_Dictionary_2_ContainsValue_m256968015_gshared
Gjj:__ZNK15dense_hashtableINSt3__24pairIK10KeyWrapperIPK19Il2CppGenericMethodEP10MethodInfoEES6_N6il2cpp8metadata23Il2CppGenericMethodHashEN14dense_hash_mapIS6_S9_SD_NS6_14EqualsComparerINSC_26Il2CppGenericMethodCompareEEENS0_9allocatorISA_EEE9SelectKeyESH_SJ_E5beginEv
gie:_ArrayReadOnlyList_1_get_Item_m1974867852_gshared
Gcd:_Image_AddQuad_m969836764
z0e:_MSCompatUnicodeTable_IsIgnorableNonSpacing_m47098938
Zih:_Collection_1_IsSynchronized_m2655903966_gshared
CFd:_Int32_System_IConvertible_ToSingle_m896140682_AdjustorThunk
sv:__ZN7mecanim21CreateFloatValueArrayEPKNS_18ValueArrayConstantERNS_6memory9AllocatorE
uWb:__ZL12CullGroupJobP20CullingGroupsJobDataj
Nnj:_GC_remove_dangling_disappearing_links
jU:__ZN11UnityEngine15CloudWebService14RestDownloader9IsAbortedEv
Ay:__ZN7mecanim12statemachine28DestroyStateMachineWorkspaceEPNS0_21StateMachineWorkspaceERNS_6memory9AllocatorE
roc:__Z30GUIStyle_CUSTOM_SetDefaultFontP12Il2CppObject
Bwe:_Enumerator_System_Collections_IDictionaryEnumerator_get_Key_m3435754782_AdjustorThunk
io:FUNCTION_TABLE_f
Wo:FUNCTION_TABLE_i
Yri:_AnchorInfo_get_Position_m1133366486
BMd:_StreamReader_FindNextEOL_m2574298119
Sfa:__ZN11TypeManager12RegisterTypeERK20TypeRegistrationDesc
Bn:FUNCTION_TABLE_v
jab:__ZNSt3__26vectorI17BlendShapeChannelNS_9allocatorIS1_EEE8__appendEj
Ep:__ZN18StreamedBinaryReadILb0EE21TransferSTLStyleArrayI13dynamic_arrayI8Vector3fLj4EEEEvRT_17TransferMetaFlags
KKb:__ZZ23InitPlayerLoopCallbacksvEN43PostLateUpdateUpdateAllRenderersRegistrator7ForwardEv
ghb:__ZN21LightProbeProxyVolume13GetRenderDataER27LightProbeProxyVolumeSample
EGe:_Context_get_ContextProperties_m3283598326
afh:_Collection_1_System_Collections_IList_set_Item_m4249768453_gshared
KHi:_Keyboard_PlayRandomSound_m629210842
Mcb:__ZN11TimeManager8TransferI24GenerateTypeTreeTransferEEvRT_
iqc:__ZN8JSONRead8TransferItEEvRT_PKc17TransferMetaFlagsb
Rr:__ZNK11UnityEngine9Animation28GenericAnimationBindingCache10BindCustomERKNS0_14GenericBindingER9TransformRNS0_10BoundCurveE
zXi:__ZN6il2cpp2vm17TypeNameParseInfoC2ERKS1_
JVc:__ZN18UnityConnectClient17InitConnectClientEv
Tuj:_memcmp
QCd:_GuidParser_ParseHexPrefix_m3148550086
pUc:__ZN11UnityEngine7Connect18ConnectSessionInfo8TransferER9JSONWrite
oQ:__Z74Register_UnityEngine_AudioListener_INTERNAL_CALL_ReadExtensionPropertyNamev
I_h:_Array_InternalArray__set_Item_TisHitInfo_t3229609740_m1576844560_gshared
bcb:__ZN9Scripting32GetCachedPtrFromScriptingWrapperE18ScriptingObjectPtr
oge:_SslClientStream_OnBeginNegotiateHandshake_m3734240069
lPc:__ZN2UI29ScheduleUIJobsForInstructionsERNS_7BatchesEjPKNS_13UIInstructionEfjjPNS_13CanvasJobDataE
ZK:__ZN5audio5mixer22CreateAudioMixerMemoryERKNS0_18AudioMixerConstantEPN4FMOD6SystemERN7mecanim6memory9AllocatorEib
wEb:__ZL65EmitSerializationCommandsForLinearCollectionOfManagedObjectsFieldRK31TransferFunctionScriptingTraitsRK23TransferArrayField_InfoR20SerializationCommandR32SerializationCommandQueueBuilderRP20AllowNameConversions
k2h:_LayoutGroup_SetProperty_TisInt32_t2950945753_m3911895589_gshared
eV:__ZN11UnityEngine15CloudWebService19SessionEventManager31SetupNextActiveSessionContainerEv
YCg:__Z121RuntimeInvoker_Void_t1185182177_Int32_t2950945753_Int32_t2950945753_Int32_t2950945753_SByte_t1669577662_SByte_t1669577662PFvvEPK10MethodInfoPvPS4_
AKg:__Z52RuntimeInvoker_Single_t1397266774_Single_t1397266774PFvvEPK10MethodInfoPvPS4_
yud:_FixedSizeArrayListWrapper_InsertRange_m1706982628
_gg:_UIntPtr_ToString_m984583492_AdjustorThunk
mIb:__ZL20ShaderWarmupFuncImplP6ShaderiPN9ShaderLab4PassERK16ShaderKeywordSetP10DynamicVBOPvR17ShaderPassContext
kJb:__ZN13GfxDeviceGLESC2E10MemLabelId
iGi:_TextGenerationSettings_Equals_m3618607189
rPi:__ZN15dense_hashtableI10KeyWrapperIPK17Il2CppGenericInstES4_N6il2cpp8metadata21Il2CppGenericInstHashEN14dense_hash_setIS4_S7_NS4_14EqualsComparerINS6_24Il2CppGenericInstCompareEEENSt3__29allocatorIS4_EEE8IdentityESB_SE_E6insertERKS4_
yYi:__ZN15dense_hashtableINSt3__24pairIK10KeyWrapperINS1_IPK14Il2CppAssemblyP11Il2CppClassEEEjEES9_17ReflectionMapHashIS8_EN14dense_hash_mapIS9_jSD_NS9_14EqualsComparerINS0_8equal_toIS8_EEEENS0_9allocatorISB_EEE9SelectKeyESI_SK_E3endEv
rVc:__ZN11UnityEngine7Connect17DeviceStatusEventC2Ev
w9f:_NativeEventCalls_ResetEvent_internal_m885886540
NPd:_MonoEnumInfo_get_enum_info_m1661176095
xvi:_GUIUtility_CheckOnGUI_m3924092168
yva:__ZN14DataBufferGLES12RecordUpdateEv
mke:_InternalEnumerator_1_get_Current_m1481634550_gshared
vKc:__ZN20TextRenderingPrivate15DynamicFontData28GetFaceForFontRefFromOSFontsERKNS_7FontRefE
qde:_Context_ClearKeyInfo_m1155154290
xtg:_Ray_GetPoint_m1852405345
Wfj:__ZN6il2cpp2vm12GenericClass12SetupMethodsEP11Il2CppClass
amb:__ZNK20LocalFileSystemPosix18GetApplicationPathEv
d9g:_List_1_set_Item_m658432263_gshared
tEb:__ZN9Scripting30IsSystemCollectionsGenericListE17ScriptingClassPtr
a2:__ZN21ScalableBufferManager20GetHeightScaleFactorEv
HSf:_Dictionary_2_Add_m1279427033_gshared
GPc:__ZN2UI23InitializeCanvasManagerEv
xQa:__ZN10GameObject16CheckConsistencyEv
O1c:_PointerInputModule_GetMousePointerEventData_m4273240034
x4b:__ZN14RenderSettings15InitializeClassEv
M3c:_AspectRatioFitter_set_aspectMode_m4140288987
sgc:__Z46Register_UnityEngine_GameObject_get_activeSelfv
Cya:__ZL35stbir__resample_horizontal_upsampleP11stbir__infoPf
q0g:__Z82RuntimeInvoker_RuntimeObject_RaycastResult_t3360306849_RuntimeObject_RuntimeObjectPFvvEPK10MethodInfoPvPS4_
Rah:_Enumerator__ctor_m3419056812_AdjustorThunk
Ppe:_InternalEnumerator_1_System_Collections_IEnumerator_get_Current_m1299775605_gshared
Qtb:__Z18Transfer_BlittableI24GenerateTypeTreeTransferLb0E10ColorRGBAfEvRK29SerializationCommandArgumentsR31RuntimeSerializationCommandInfo
dUf:_DefaultComparer_Equals_m1713730345_gshared
lOc:__ZN2UI16GetCanvasManagerEv
$ac:__ZN15GUIEventManager8PopEventER10InputEvent
Hgc:__Z31RectOffset_Get_Custom_PropRightP12Il2CppObject
LMc:__Z54Register_UnityEngine_TextGenerator_GetVerticesInternalv
zid:__Z3BoxP11Il2CppClassPv
Fog:_Input_get_touchSupported_m1480684970
Dbd:_GridLayoutGroup_SetLayoutVertical_m2106427802
Wqg:_MonoBehaviour_StartCoroutine_m3411253000
nGa:__ZN21UniformBufferTFMethodD2Ev
npe:_InternalEnumerator_1_System_Collections_IEnumerator_get_Current_m1096730143_AdjustorThunk
fdc:__ZL34GetComponentsImplementationRecurseILb1ELi1ELi2EEbR10GameObjectbRK17CompareParametersRK39GetComponentsImplementation_ReturnValue
hza:__ZN6prcoreL12RemapGenericI15TexFormatRGB56515TexFormatRGB888EEvPKNS_9InnerInfoE
Eqj:__ZN6il2cpp5utils10MemoryPool9AddRegionEj
Scf:_X509Certificate2__ctor_m3336405942
Aad:_Graphic_get_workerMesh_m997382591
rlc:__Z38PlayableHandle_CUSTOM_IsValid_InjectedP9HPlayable
Wmd:_Array_System_Collections_IList_RemoveAt_m41405158
D5c:_CanvasUpdateRegistry_IsRebuildingLayout_m3530790142
MQc:__Z41CanvasGroup_Get_Custom_PropBlocksRaycastsP12Il2CppObject
Blj:__ZN6il2cpp2os11Environment17GetProcessorCountEv
Kha:__ZNSt3__26vectorIN9ShaderLab26SerializedShaderDependencyENS_9allocatorIS2_EEE8__appendEj
Xaa:__ZN32TransformHierarchyChangeDispatch26DispatchSelfAndAllChildrenE15TransformAccessNS_12InterestTypeE
uQ:__Z46Register_UnityEngine_AudioSource_get_isPlayingv
m$c:_EventSystem_OnEnable_m3237278246
eca:__ZN13RuntimeStaticI22VirtualJoystickManagerLb0EE13StaticDestroyEPv
Rgf:_Interpreter_Balance_m1978770534
xH:__ZN13AudioListener12ApplyFiltersEv
l9g:_List_1_System_Collections_IList_Contains_m353431064_gshared
hBi:_AudioConfigurationChangeHandler_BeginInvoke_m4104069447
lsj:__ZN6il2cpp8metadata27Il2CppGenericContextCompare7CompareEPK20Il2CppGenericContextS4_
FAj:dynCall_viiii
iEf:_CompareInfo_IsPrefix_m796715920
qLi:__ZNK15dense_hashtableINSt3__24pairIK10KeyWrapperIPK22Il2CppGenericParameterEP11Il2CppClassEES6_N6il2cpp5utils11PointerHashIS4_EEN14dense_hash_mapIS6_S9_SE_NS6_14EqualsComparerINS0_8equal_toIS5_EEEENS0_9allocatorISA_EEE9SelectKeyESJ_SL_E23find_position_with_hashERS7_j
X6d:_PrimalityTest_Invoke_m2948246884
zMb:__Z11CopyTextureP7TextureiiS0_ii
Cie:_ArrayReadOnlyList_1_Contains_m2459654648_gshared
cSh:__ZL65EventTrigger_t1076084509_CustomAttributesCacheGenerator_delegatesP21CustomAttributesCache
DXi:__ZNSt3__214__split_bufferIN6il2cpp2vm17TypeNameParseInfoERNS_9allocatorIS3_EEED2Ev
o8g:_List_1_System_Collections_IList_Contains_m3717811284_gshared
C0d:_MonoEvent_get_Attributes_m3048829315
Zub:__Z22TransferField_NonArrayI24GenerateTypeTreeTransfer27Converter_SimpleNativeClassI8GUIStyleEEvRK23StaticTransferFieldInfoR31RuntimeSerializationCommandInfoRT0_
Wea:__ZN15DirectorManager14ConnectionPool16GrowEmptyBucketsEv
Rvd:_CaseInsensitiveHashCodeProvider_AreEqual_m3534448780
UY:__ZN17PersistentManager32CopyToAwakeFromLoadQueueInternalER18AwakeFromLoadQueue
h7b:__ZN10GameObject15InitializeClassEv
sMg:__Z104RuntimeInvoker_Boolean_t97287965_Int32_t2950945753_Int64U5BU5DU26_t194432655_StringU5BU5DU26_t2154486980PFvvEPK10MethodInfoPvPS4_
vLg:__Z106RuntimeInvoker_RuntimeObject_Int16_t2552820387_RuntimeObject_BooleanU26_t4125257963_BooleanU26_t4125257963PFvvEPK10MethodInfoPvPS4_
fMb:__ZNK6Camera16SetActiveVRUsageEv
CWe:_Scrollbar_set_handleRect_m1170237786
fuc:__ZL26Transfer_SimpleNativeClassI8JSONRead8GradientLb1EEvRK29SerializationCommandArgumentsR31RuntimeSerializationCommandInfo
uvj:_open
eoi:_X509CrlEntry_get_SerialNumber_m3627212772
A7i:__ZN6il2cpp6icalls8mscorlib6System5Array5CloneEP11Il2CppArray
BZb:__Z30GetPlayerShouldRunInBackgroundv
YPc:__Z13RegisterClassIN2UI6CanvasEEvv
Upg:_Mathf__cctor_m1175545152
J0d:_MonoEvent_IsDefined_m10931749
b9e:_NameValueCollection_AsSingleString_m3776180906
bza:__ZN6prcoreL12RemapGenericI11TexFormatI815TexFormatRGB565EEvPKNS_9InnerInfoE
xFd:_Int32_System_IConvertible_ToInt64_m3520470966
Fua:__ZNK13TranslateGLES17FramebufferTargetEN2gl17FramebufferTargetE
zij:__ZL11on_gc_event11GCEventType
hqe:_InternalEnumerator_1_System_Collections_IEnumerator_get_Current_m1612699335_gshared
ice:_TlsServerHello__ctor_m3887266572
blg:_Coroutine_ReleaseCoroutine_m809189848
PEj:b62
AEj:b61
CDj:b60
eGj:b67
dGj:b66
UEj:b65
gGj:b69
fGj:b68
Hoi:_Enumerator_get_Current_m359737019
vTa:__ZNSt3__26__treeINS_12__value_typeIi17ShadowCachingDataEENS_19__map_value_compareIiS3_NS_4lessIiEELb1EEE13stl_allocatorIS3_L18MemLabelIdentifier66ELi16EEE7destroyEPNS_11__tree_nodeIS3_PvEE
epd:_BitConverter_ToInt64_m349022421
qbc:__Z9SetIIMGUIP6IIMGUI
z4g:_List_1_System_Collections_IList_Add_m1142950911_gshared
iEc:_tt_cmap10_get_info
VGb:__Z28SetupPixelCorrectCoordinatesi
l9b:__ZNSt3__218__insertion_sort_3IRN10vector_mapIiiNS_4lessIiEE13stl_allocatorINS_4pairIiiEEL18MemLabelIdentifier1ELi16EEE13value_compareEPS6_EEvT0_SD_T_
_ua:__Z5SplitRKN4core12basic_stringIcNS_20StringStorageDefaultIcEEEEcRNSt3__26vectorIS3_NS6_9allocatorIS3_EEEEi
qnb:__ZN11MonoManager23VirtualRedirectTransferER24GenerateTypeTreeTransfer
yyi:_AesTransform__ctor_m3143546745
JIf:_Array_InternalArray__ICollection_Remove_TisRuntimeObject_m2110193223_gshared
PPh:__ZL64EventType_t3528516131_CustomAttributesCacheGenerator_scrollWheelP21CustomAttributesCache
Fqg:_Mesh_SetTangents_m1615111656
M8b:__ZN13PlayableGraph16DestroyRecursiveEP8Playable
S9i:__ZN6il2cpp2vm9Exception20GetArgumentExceptionERKNS_5utils10StringViewIDsEES6_
dah:_Enumerator_System_Collections_IEnumerator_Reset_m1487823313_AdjustorThunk
SJe:_MethodCallDictionary__cctor_m2213329406
IH:__ZN12AudioManagerD0Ev
pPe:_InputField_set_textComponent_m2547304131
Tb:invoke_viiififii
c1e:_SortKeyBuffer_Initialize_m3786111493
Sva:__ZN10Matrix3x3faSERK10Matrix4x4f
TZh:__ZL58IVertexModifier_t3404627876_CustomAttributesCacheGeneratorP21CustomAttributesCache
vdb:__ZNK22GenericPropertyBinding13SetFloatValueERKN11UnityEngine9Animation10BoundCurveEf
H5f:_Encoding__cctor_m1936558127
o6g:_List_1__ctor_m163821521_gshared
bid:_MD5_Create_m3289886172
Zsg:_QualitySettings_set_vSyncCount_m3131636076
$lf:_X509Certificate_get_Subject_m2638144878
SKc:_raccess_guess_darwin_ufs_export
Iig:_AsyncOperation_Finalize_m1841265672
dKb:__ZN11TypeManager18InitializeAllTypesEv
YOe:_InputField_MarkGeometryAsDirty_m817808086
kTe:_LayoutGroup_get_isRootLayoutGroup_m1082645254
DF:__ZN9AudioClipD0Ev
N3i:_il2cpp_class_from_name
uVb:__ZN13dynamic_arrayI11ActiveLightLj4EE26emplace_back_uninitializedEv
VVe:_RectMask2D_OnDisable_m809267607
gAe:_Enumerator_MoveNext_m2602845255_AdjustorThunk
Hah:_Queue_1__ctor_m1971992302_gshared
fx:__ZN27AnimationLayerMixerPlayable26ProcessAnimationLayerBeginEP35AnimationPlayableEvaluationConstantP32AnimationPlayableEvaluationInputP33AnimationPlayableEvaluationOutput
u2b:__Z13RegisterClassI8GUILayerEvv
E0b:__ZN25ThreadsafeLinearAllocatorC2EiiPKc
iqg:_Mesh_GetIndicesImpl_m3233954035
hQd:_MonoType_GetEvent_m28975240
NCa:__ZN14GfxContextGLES11MakeCurrentER7ApiGLESN2gl13ContextHandleE
x_h:_Array_InternalArray__set_Item_TisUInt16_t2177724958_m1951465847_gshared
sKd:_MonoIO_Write_m3999708352
UBj:dynCall_viffffi
FOf:_Array_InternalArray__ICollection_CopyTo_TisChar_t3634460470_m3599063464_gshared
v8f:_UTF7Encoding_InternalGetChars_m2722395139
Kuf:_DateTime_get_Today_m2788644320
jIb:__ZN16GraphicsSettings22WarmupPreloadedShadersEv
ZRc:__Z34Canvas_Set_Custom_PropSortingOrderP12Il2CppObjecti
Hed:_SByte_System_IConvertible_ToSingle_m1083054891
Coi:_CostDelegate_Invoke_m898648402
o8f:_UTF7Encoding_Equals_m227704363
hmg:_DisplaysUpdatedDelegate_Invoke_m3203573844
mCb:__ZN18StreamedBinaryReadILb0EE8TransferI13dynamic_arrayI12PropertyNameLj4EEEEvRT_PKc17TransferMetaFlags
Ama:__ZN9ShaderLab4Pass6RetainEv
e5e:_KeyPairPersistence_get_ContainerName_m4274536094
Wv:__ZN7mecanim9animation22CopyAnimationNodeStateEPKNS0_18AnimationNodeStateEPS1_bbRKNS_6bitsetILj83EEE
pcb:__Z10AddGUIAxesR13dynamic_arrayI9InputAxisLj4EE
ab:invoke_iiiiiiffiiiiiiiiiffffiii
yug:_Rect_op_Equality_m3986168348
zxe:_Enumerator_System_Collections_IDictionaryEnumerator_get_Key_m4039922590_AdjustorThunk
nNc:__ZN2UI6Canvas8TransferI14SafeBinaryReadEEvRT_
KZi:__ZN6il2cpp2gc19AppendOnlyGCHashMapIPK10Il2CppTypeP20Il2CppReflectionTypeNS_8metadata14Il2CppTypeHashENS7_26Il2CppTypeEqualityComparerEE3AddERKS4_S6_
mR:__ZN11UnityEngine15CloudWebService17CloudJobScheduler11ScheduleJobEPFvPvES2_
A1e:_SimpleCollator_IsSuffix_m1291687763
vS:__ZN11UnityEngine15CloudWebService17CloudServiceEvent12ToJsonStringER9JSONWrite
Ibe:_TlsClientHello__ctor_m1986768336
Jca:__ZNK18VertexChannelsInfoltERKS_
SNg:__Z89RuntimeInvoker_Boolean_t97287965_Int32_t2950945753_Int32U26_t1369213839_Int32_t2950945753PFvvEPK10MethodInfoPvPS4_
Qbc:__Z18SetTargetFrameRatei
Grd:_Char_System_IConvertible_ToType_m4138905176_AdjustorThunk
eqc:__ZN9JSONWrite8TransferIfEEvRT_PKc17TransferMetaFlags
dxf:_DBNull_System_IConvertible_ToUInt16_m643477279
VOa:__ZN10MemoryFileD0Ev
Wcc:__ZN10MonoScript27InitializeAndRegisterScriptERKN4core12basic_stringIcNS0_20StringStorageDefaultIcEEEES6_S6_S6_b
Nhj:__ZN6il2cpp2os10ThreadImpl22SetNativeThreadCleanupEPFvPvE
nwf:_DateTimeOffset__cctor_m3610253033
KDf:_NumberFormatInfo_get_InvariantInfo_m349577018
lrd:_Byte_CompareTo_m4285128861_AdjustorThunk
bGe:_ConfigHandler_ExtractAssembly_m2143791058
_dj:__ZN6il2cpp8metadataL24RecursiveGenericDepthForEPK17Il2CppGenericInst
Gyg:_Transform_GetChild_m1092972975
Qpb:__ZN13GUIStyleState8TransferI14SafeBinaryReadEEvRT_
Md:_glDrawArrays
eBi:_AudioSource_get_clip_m1234340632
I3d:_ResourceCacheItem_t51292791_marshal_pinvoke_back
RD:__ZN23AnimatedPropertyBuilder5BuildEP13AnimationClip18ScriptingObjectPtr
zab:__ZN14BlendShapeData8TransferI18StreamedBinaryReadILb0EEEEvRT_
VFc:_Round_To_Grid
MEc:_UNITY_FT_Stream_Close
E$c:_EventTrigger_OnPointerClick_m1385968891
Vfg:_UInt32_ToString_m4293943134_AdjustorThunk
Svg:_Renderer_get_sortingLayerID_m3902855301
Xhf:_Interval_CompareTo_m3282557545_AdjustorThunk
Due:_Comparer_1__cctor_m1018589532_gshared
hMg:__Z54RuntimeInvoker_TimeSpan_t881159249_TimeSpan_t881159249PFvvEPK10MethodInfoPvPS4_
pga:__ZL20FormatOrderedProcessPKcP17FormatOrderedDataPc
ePf:_Array_InternalArray__ICollection_CopyTo_TisResourceCacheItem_t51292791_m766230259_gshared
lsf:_Decoder_set_Fallback_m3834517714
Pfc:__Z35DebugLogHandler_CUSTOM_Internal_Log7LogTypeP12Il2CppStringP12Il2CppObject
pca:__ZNSt3__26__treeINS_12__value_typeI18VertexChannelsInfoP16MeshVertexFormatEENS_19__map_value_compareIS2_S5_NS_4lessIS2_EELb1EEE13stl_allocatorIS5_L18MemLabelIdentifier17ELi16EEE7destroyEPNS_11__tree_nodeIS5_PvEE
wYh:__ZL76CanvasScaler_t2767979955_CustomAttributesCacheGenerator_m_MatchWidthOrHeightP21CustomAttributesCache
NEj:_emscripten_glShaderBinary__wrapper
WBa:__ZL17ProgramUniform3ivPK7ApiGLESjiihPKv
mtd:_ArrayList_Shift_m395607654
Dqa:__ZN9GfxDevice25GetBackBufferColorSurfaceEv
mPa:__ZN25SingleBlockMemoryFileData9SetLengthEy
y9b:__Z29AwakeAndActivateClonedObjectsPP6ObjectRK10vector_mapIiiNSt3__24lessIiEE13stl_allocatorINS3_4pairIiiEEL18MemLabelIdentifier1ELi16EEE
z2i:__ZN15dense_hashtableINSt3__24pairIK10KeyWrapperINS1_IPK10MethodInfoP11Il2CppClassEEEjEES9_17ReflectionMapHashIS8_EN14dense_hash_mapIS9_jSD_NS9_14EqualsComparerINS0_8equal_toIS8_EEEENS0_9allocatorISB_EEE9SelectKeyESI_SK_E14squash_deletedEv
K4e:_KeyGeneratedEventHandler_Invoke_m4131555809
r1b:__Z13RegisterClassI6ShaderEvv
Irf:_String_CharCopyReverse_m1548661297
zZc:__ZN13RuntimeStaticI11WindManagerLb0EE13StaticDestroyEPv
zrc:__Z18Transfer_BlittableI9JSONWriteLb1EaEvRK29SerializationCommandArgumentsR31RuntimeSerializationCommandInfo
u2i:__ZN13Il2CppHashMapINSt3__24pairIPK10MethodInfoP11Il2CppClassEEj17ReflectionMapHashIS7_ENS0_8equal_toIS7_EENS0_9allocatorINS1_IK10KeyWrapperIS7_EjEEEEEC2EjRKS9_RKSB_
VPb:__ZN11HaloManager11HasAnyHalosEPK11CullResults
H8a:__ZN9Texture3D23VirtualRedirectTransferER19StreamedBinaryWriteILb0EE
ioj:_GC_reclaim_block
bP:__Z13RegisterClassI10SampleClipEvv
cMg:__Z81RuntimeInvoker_Void_t1185182177_Int32_t2950945753_Int32_t2950945753_RuntimeObjectPFvvEPK10MethodInfoPvPS4_
LSb:__ZNK23ForwardShaderRenderLoop18RenderObjectSorterILb1EEclERK21ForwardRenderPassDataS4_
Hvd:_CaseInsensitiveComparer__ctor_m1508720200
XQi:__ZN15dense_hashtableI10KeyWrapperIPK19Il2CppGenericMethodES4_N6il2cpp8metadata23Il2CppGenericMethodHashEN14dense_hash_setIS4_S7_NS4_14EqualsComparerINS6_26Il2CppGenericMethodCompareEEENSt3__29allocatorIS4_EEE8IdentityESB_SE_E12maybe_shrinkEv
hHa:__ZN10BufferGLES10BeginWriteEjj
VQi:__ZNK15dense_hashtableI10KeyWrapperIPK19Il2CppGenericMethodES4_N6il2cpp8metadata23Il2CppGenericMethodHashEN14dense_hash_setIS4_S7_NS4_14EqualsComparerINS6_26Il2CppGenericMethodCompareEEENSt3__29allocatorIS4_EEE8IdentityESB_SE_E12test_deletedEj
eB:__ZN7mecanim12statemachine18StateMachineMemory8TransferI9BlobWriteEEvRT_
KPa:__ZN20ArchiveStorageReader10InitializeER15FileSystemEntryyb
f5i:__GLOBAL__sub_I_ArrayMetadata_cpp
gHa:__ZN7ApiGLES11FlushBufferEjN2gl12BufferTargetEll
Mqb:__ZN14SafeBinaryRead21TransferSTLStyleArrayI13dynamic_arrayI8BitFieldLj4EEEEvRT_17TransferMetaFlags
uDa:__ZN12_GLOBAL__N_127PrepareReadback_ResolveMSAAER18GfxFramebufferGLESR7ApiGLESP17RenderSurfaceGLESS5_
b6b:__ZNK24RendererAnimationBinding9BindValueER6ObjectRKN11UnityEngine9Animation14GenericBindingERNS3_10BoundCurveE
zZd:_TypeBuilder_has_ctor_method_m2987175843
Me:_glBindBuffer
ZBb:__ZN8GUIStyle8TransferI18StreamedBinaryReadILb0EEEEvRT_
ome:_InternalEnumerator_1_get_Current_m3500427238_gshared
sda:__ZNSt3__213__stable_sortIRN10vector_mapIijNS_4lessIiEENS_9allocatorINS_4pairIijEEEEE13value_compareENS_11__wrap_iterIPS6_EEEEvT0_SE_T_NS_15iterator_traitsISE_E15difference_typeEPNSH_10value_typeEi
oeb:__ZN10VRSettings8Daydream8TransferI18StreamedBinaryReadILb0EEEEvRT_
jXa:__ZNSt3__218__insertion_sort_3IRNS_6__lessIN4core12basic_stringIcNS2_20StringStorageDefaultIcEEEES6_EEPS6_EEvT0_SA_T_
FBe:_ValueCollection_System_Collections_Generic_ICollectionU3CTValueU3E_Remove_m1748672125_gshared
Guj:_isupper
V$a:__ZNSt3__26__treeINS_12__value_typeIN9ShaderLab16FastPropertyNameEN18UnityPropertySheet11UnityTexEnvEEENS_19__map_value_compareIS3_S6_NS_4lessIS3_EELb1EEENS_9allocatorIS6_EEE7destroyEPNS_11__tree_nodeIS6_PvEE
j6h:_ReadOnlyCollection_1_System_Collections_IList_Clear_m108858531_gshared
wHg:__Z102RuntimeInvoker_RuntimeObject_Int32_t2950945753_RuntimeObject_RuntimeObject_RuntimeObject_RuntimeObjectPFvvEPK10MethodInfoPvPS4_
zxi:_GUIUtility_set_guiIsExiting_m1558910088
Dbe:_Context_Clear_m2678836033
qWd:_DerivedType_IsDefined_m3906894566
iSi:__ZN6il2cpp2vm13MetadataCache24GetExportedTypeFromIndexEi
eYg:__Z54RuntimeInvoker_Void_t1185182177_RaycastHit_t1056001966PFvvEPK10MethodInfoPvPS4_
Hpc:__ZN5Unity9rapidjson6WriterI16TempBufferWriterNS0_4UTF8IcEES4_13JSONAllocatorE9WriteUintEj
jxj:_getuid
YD:__ZN7mecanim5human8BoneNameEj
Z2b:__Z13RegisterClassI10MonoScriptEvv
aqg:_Matrix4x4_GetColumn_m461504848_AdjustorThunk
xDd:_Int16_System_IConvertible_ToUInt64_m134975563_AdjustorThunk
jJc:__ZN20TextRenderingPrivate8FontImpl8TransferI18StreamedBinaryReadILb0EEEEvRT_
SYe:_ScrollRect_UpdateScrollbarVisibility_m4226977273
RTi:__ZN6il2cpp6icalls8mscorlib6System8MonoType22get_IsGenericParameterEP20Il2CppReflectionType
Du:__ZN7mecanim5human14HumanPoseClearERNS0_9HumanPoseE
P6e:_SymmetricTransform_TransformFinalBlock_m4059448527
gCd:_Convert_ToUInt16_m3216249716
r0a:__ZN18StreamedBinaryReadILb0EE19TransferSTLStyleMapINSt3__23mapIN9ShaderLab16FastPropertyNameE10ColorRGBAfNS2_4lessIS5_EENS2_9allocatorINS2_4pairIKS5_S6_EEEEEEEEvRT_17TransferMetaFlags
Dta:__ZN13GfxDeviceGLES24DrawBufferRangesPlatformEP9GfxBufferiPK18VertexStreamSourceiPK16DrawBuffersRangeiP17VertexDeclaration17ShaderChannelMaskjb
Sah:_Enumerator_System_Collections_IEnumerator_Reset_m4269083576_gshared
mLe:_SoapServices_EncodeNs_m635167772
tZb:__ZN13RenderManager28AreCamerasUsingMotionVectorsEv
uca:__Z25InitializeLODGroupManagerPv
Noi:_Mark_get_IsDefined_m2539660708
Vsa:__ZN13GfxDeviceGLES12EndStereoEyeE15StereoscopicEye
Qed:_SByte_System_IConvertible_ToUInt64_m4151910932_AdjustorThunk
UMb:__ZNK12ImageFilters28ApplyAfterTransparentFiltersEv
Xng:_GameObject__ctor_m3707688467
ree:_HandshakeMessage_Compare_m2214647946
fVc:__ZN11UnityEngine7Connect15AppRunningEvent12ToJsonStringER9JSONWrite
W0a:__ZN19ShaderPropertySheet5ClearEb
Rif:_RSA_Create_m4065275734
XEf:_CultureInfo_GetCultureInfo_m630276874
sNb:__ZNK6Camera11GetPositionEv
_s:__ZN8Animator19CreatePlayableGraphEv
V$c:_ExecuteEvents_Execute_m3952332304
tIj:_emscripten_glClearDepth__wrapper
Dmb:__ZNK16MemoryFileSystem8FilenameERK13FileEntryData
Qf:_glUniform1fv
Uf:_JS_FileSystem_Sync
wEa:__ZNSt3__26__treeINS_12__value_typeI21GLESRenderTargetSetupN2gl6HandleILNS3_10ObjectTypeE9EEEEENS_19__map_value_compareIS2_S7_NS_4lessIS2_EELb1EEENS_9allocatorIS7_EEE7destroyEPNS_11__tree_nodeIS7_PvEE
z5e:_KeyPairPersistence__IsUserProtected_m438961964
sxa:__ZN4crnd11crnd_deleteINS_13prefix_coding14decoder_tablesEEEvPT_
Ewe:_Enumerator_System_Collections_IDictionaryEnumerator_get_Value_m512771145_AdjustorThunk
$qf:_String_Replace_m1273907647
YLe:_RealProxy_InternalGetProxyType_m2154819545
yDa:__ZN4gles15BlitFramebufferERNS_23BlitFramebufferDrawQuadER9GfxDeviceii9TextureIDiiiiiiii
IRd:_NumberFormatter_NumberToString_m827252518
Sf:__emscripten_sample_gamepad_data
l1b:__Z22DelayedDestroyCallbackP6ObjectPv
Sli:_PKCS12_set_Password_m4088935795
yFg:__Z96RuntimeInvoker_Void_t1185182177_SByte_t1669577662_ByteU5BU5DU26_t4057885439_Int32U26_t1369213839PFvvEPK10MethodInfoPvPS4_
JAg:__Z78RuntimeInvoker_Boolean_t97287965_RuntimeObject_RuntimeObject_SByte_t1669577662PFvvEPK10MethodInfoPvPS4_
Ijg:_Camera_get_nearClipPlane_m837839537
W$:__Z34scripting_class_get_declaring_type17ScriptingClassPtr
zVc:__ZN11UnityEngine7Connect20BasePersistentValues13RestoreValuesER8JSONRead
Bcb:__ZN11TimeManagerD0Ev
Evi:_GUIUtility_Internal_GetGUIDepth_m1169824684
BL:__ZN12AudioManager33GetAudioEffectInternalDefinitionsEv
o3a:__ZN9Texture2D16DeleteGfxTextureEv
xlb:__ZN20LocalFileSystemPosix4OpenER13FileEntryData14FilePermission16FileAutoBehavior
ocg:_TimeSpan_Subtract_m1264203589
EQe:_InputField_GetUnclampedCharacterLineFromPosition_m2611553547
o1i:__ZN6il2cpp2gc19AppendOnlyGCHashMapIPK10Il2CppTypeP20Il2CppReflectionTypeNS_8metadata14Il2CppTypeHashENS7_26Il2CppTypeEqualityComparerEEC2Ev
nUd:_CustomAttributeData_GetCustomAttributes_m2141595938
cQi:__ZN15dense_hashtableINSt3__24pairIK10KeyWrapperIN6il2cpp5utils13dynamic_arrayIPK10Il2CppTypeLj4EEEEPFvvEEESA_NS3_8metadata19Il2CppSignatureHashEN14dense_hash_mapISA_SD_SG_NSA_14EqualsComparerINSF_22Il2CppSignatureCompareEEENS0_9allocatorISE_EEE9SelectKeyESK_SM_ED2Ev
cNc:__ZN2UI6Canvas12AddToManagerEv
jDc:_UNITY_tt_face_load_sbit
R6c:_ColorTweenCallback__ctor_m2236520273
mQd:_MonoType_GetMethodsByName_m2005909471
wzc:_cf2_hint_isTop
uYb:__ZN23ManagedAttributeManager21GetRequiredComponentsE17ScriptingClassPtr
Uji:_TlsCipherSuite_ComputeServerRecordMAC_m3941098609
S6c:_ColorTween_AddOnChangedCallback_m3959760640_AdjustorThunk
JLe:_RemotingServices_Unmarshal_m3744595373
n5h:_ReadOnlyCollection_1_System_Collections_IList_get_Item_m2174806213_gshared
o_b:__Z23InitializeStdConvertersv
ORb:__ZN19ShaderPropertySheet17UpdateTextureInfoEiRK23FastTexturePropertyNamePK10TextureRef
Cmf:_SecurityElement_IsValidAttributeName_m713904709
zCc:_ps_unicodes_init
XMd:_StreamWriter_Write_m2487601391
d6b:__ZN13ProduceHelperI14PlayerSettingsLb0EE7ProduceE10MemLabelId18ObjectCreationMode
DKb:__ZZ23InitPlayerLoopCallbacksvEN38PreUpdateCheckTexFieldInputRegistrator7ForwardEv
Gxa:__ZN4crnd12crn_unpacker22decode_color_endpointsEv
hcj:__ZNK10KeyWrapperINSt3__24pairIPKcS3_EEE14EqualsComparerI26NamespaceAndNamePairEqualsEclERKS5_SA_
l$d:_FieldInfo_get_IsLiteral_m534699794
Uca:__Z34CleanupIntermediateRendererManagerPv
zoi:_X509Stores_Open_m1553467177
bzf:_Decimal_op_Multiply_m2389849621
j1c:_PointerEventData_get_eligibleForClick_m3788762543
dpi:_MatchCollection_get_Count_m1667454419
L9f:_Monitor_Pulse_m82725344
JEf:_CultureInfo_get_NumberFormat_m1244033732
IKd:_FileStream_Dispose_m2599766137
ald:_Array_Copy_m1988217701
$jg:_Camera_FireOnPreCull_m2869588437
gh:_JS_WebRequest_GetResponseHeaders
yFb:__ZNSt3__26__treeINS_12__value_typeI26SerializedObjectIdentifieriEENS_19__map_value_compareIS2_S3_NS_4lessIS2_EELb1EEENS_9allocatorIS3_EEE7destroyEPNS_11__tree_nodeIS3_PvEE
hCc:_otv_Script_validate
G1b:__ZN9Scripting18RaiseNullExceptionEPKcz
kfa:__ZN13RuntimeStaticI13RendererSceneLb0EE16StaticInitializeEPv
rh:_glCreateProgram
$0i:__ZN6il2cpp2vm10Reflection7IsFieldEP12Il2CppObject
PWe:_Scrollbar_set_numberOfSteps_m3603299569
SRa:__ZN24GenerateTypeTreeTransfer32TransferSTLStyleArrayWithElementI17SortingLayerEntryEEvRT_17TransferMetaFlags
TDj:_glUniformMatrix3fv__wrapper
zUa:__ZN5Light9SetupHaloEv
GOe:_Text_set_horizontalOverflow_m2473787109
Dyb:__Z18Transfer_BlittableI18StreamedBinaryReadILb1EELb1E12PropertyNameEvRK29SerializationCommandArgumentsR31RuntimeSerializationCommandInfo
W1i:__ZN15dense_hashtableINSt3__24pairIK10KeyWrapperIPK22Il2CppGenericParameterEPK24MonoGenericParameterInfoEES6_N6il2cpp5utils11PointerHashIS4_EEN14dense_hash_mapIS6_SA_SF_NS6_14EqualsComparerINS0_8equal_toIS5_EEEENS0_9allocatorISB_EEE9SelectKeyESK_SM_EC2ERKSP_j
spj:_GC_general_register_disappearing_link
K9:__ZN23TransformChangeDispatch12CleanupClassEPv
hcc:__ZN8UserList11SendMessageERK17MessageIdentifier
QRc:__Z33Canvas_Get_Custom_PropScaleFactorP12Il2CppObject
BC:__ZNK26AnimatorControllerPlayable21GetStateMachineMemoryEi
PWa:__ZN17CollisionMeshData20VertexDataHasChangedEv
xpi:_PatternCompiler_Emit_m604664654
wIf:_Array_InternalArray__ICollection_Remove_TisKeyValuePair_2_t3842366416_m278128148_gshared
ySa:__ZNK6Camera16GetTargetTextureEv
R1h:_Component_GetComponentsInChildren_TisRuntimeObject_m35549932_gshared
KYc:__ZNK20UnityWebRequestProtoI24UnityWebRequestTransport16AtomicRefCounter14RedirectHelper14ResponseHelper15DownloadHandler13UploadHandler12HeaderHelper14AsyncOperationE17GetUploadProgressEv
vqf:_String_CompareTo_m3030934538
dqb:__Z35Transfer_Blittable_SingleValueFieldI14SafeBinaryReadyEvRT_R17GeneralMonoObjectRK23StaticTransferFieldInfo
RYa:__ZN8Playable20ClearInputConnectionEi
uOb:__ZN13BatchRenderer12EndLoopFlushEv
jkd:_X509CertificateEnumerator_System_Collections_IEnumerator_Reset_m2928805663
qac:__ZNK6Sprite11GetInnerUVsE20SpriteRenderDataMode
hD:__ZN11UnityEngine9Animation28DestroyAvatarBindingConstantEPNS0_21AvatarBindingConstantERN7mecanim6memory9AllocatorE
kff:_X509ChainElementEnumerator_System_Collections_IEnumerator_get_Current_m1913555061
Lof:_Single_System_IConvertible_ToDouble_m1584722292_AdjustorThunk
$wg:_DataUtility_INTERNAL_CALL_GetPadding_m650254139
jvb:__Z29Transfer_Blittable_ArrayFieldI24GenerateTypeTreeTransfer11ColorRGBA32EvRT_R9ArrayInfoRK23StaticTransferFieldInfo
o4b:__ZN16MessageForwarder23RegisterMessageCallbackEiPFvPviR11MessageDataEPKN5Unity4TypeE
g8d:_MD2Managed_HashFinal_m808964912
fwf:_DateTime_op_Equality_m1022058599
tWa:__ZN4Mesh30AcquireSharedMeshRenderingDataEv
bi:_gmtime
ii:_emscripten_glUniform3i
pua:__ZNK7ApiGLES10GetContextEv
Aob:__Z18Transfer_BlittableI14SafeBinaryReadLb1E5RectTIfEEvRK29SerializationCommandArgumentsR31RuntimeSerializationCommandInfo
R5a:__ZN15TextureSettings14SetAnisoLimitsEii
Bg:_glGetFramebufferAttachmentParameteriv
cvb:__Z19TransferField_ArrayI24GenerateTypeTreeTransfer27Converter_SimpleNativeClassI10RectOffsetEEvRK23StaticTransferFieldInfoR31RuntimeSerializationCommandInfoRT0_
zgg:_UInt64_System_IConvertible_ToUInt32_m2784653358_AdjustorThunk
KUa:__Z40ConfigureBlockRangesWithMinIndicesPerJobP10BlockRangeii
zAa:__ZN6prcoreL17RemapGenericFloatI18TexFormatARGBFloat15TexFormatRGHalfEEvPKNS_9InnerInfoE
Jvi:_GUILayout_Height_m3349769634
vnb:__ZNSt3__26vectorI4PPtrI10MonoScriptE13stl_allocatorIS3_L18MemLabelIdentifier78ELi16EEE8__appendEj
WSe:_LayoutGroup_get_flexibleWidth_m2787597997
Tog:_LayerMask_op_Implicit_m3296792737
q6b:__ZL22PrepareMeshRenderNodesILb1EEvR35RenderNodeQueuePrepareThreadContext
_lb:__ZN20LocalFileSystemPosix5TouchER13FileEntryData
Lsc:__ZN9JSONWrite8TransferI13dynamic_arrayItLj2EEEEvRT_PKc17TransferMetaFlags
zi:_emscripten_glDrawElements
zEd:_NumberFormatter_AppendDecimalString_m10636623
tjg:_Bounds_get_max_m3756577669
uyc:_cf2_blues_init
_qh:__ZL59ParameterBuilder_t1137139675_CustomAttributesCacheGeneratorP21CustomAttributesCache
lFj:_glVertexAttrib4fv__wrapper
MT:__ZN11UnityEngine15CloudWebService23WebRequestUploadHandlerD2Ev
CA:__ZN9BlobWriteD2Ev
Nob:__ZL26Transfer_SimpleNativeClassI14SafeBinaryRead8GradientLb0EEvRK29SerializationCommandArgumentsR31RuntimeSerializationCommandInfo
UEg:__Z68RuntimeInvoker_Boolean_t97287965_Int32_t2950945753_SByte_t1669577662PFvvEPK10MethodInfoPvPS4_
wPf:_Array_InternalArray__ICollection_CopyTo_TisRaycastHit2D_t2279581989_m3542049333_gshared
hTd:_Assembly_GetExecutingAssembly_m4021024968
ZPe:_InputField_ClampPos_m2625258136
VNi:__ZNK15dense_hashtableINSt3__24pairIK10KeyWrapperIPKcEP11Il2CppClassEES5_N6il2cpp5utils11StringUtils12StringHasherIS4_EEN14dense_hash_mapIS5_S8_SE_NS5_14EqualsComparerINSB_13VmStringUtils21CaseSensitiveComparerEEENS0_9allocatorIS9_EEE9SelectKeyESJ_SL_E10test_emptyEj
kNe:_MessageFormatter_ReadMethodResponse_m1946725361
Rli:_PKCS12__ctor_m1587304645
vZa:__ZN13RenderTexture23VirtualRedirectTransferER18StreamedBinaryReadILb0EE
CDc:_UNITY_tt_face_lookup_table
O_c:_BaseRaycaster_ToString_m2535186737
qpc:__ZN5Unity9rapidjson13GenericReaderINS0_4UTF8IcEES3_13JSONAllocatorE9ParseHex4INS0_25GenericInsituStringStreamIS3_EEEEjRT_
rFa:__Z17ComputeMipmapSizeiii14GraphicsFormat
azc:_cf2_stack_pushFixed
E8c:_Dropdown_OnCancel_m1495594239
x5i:__ZNK15dense_hashtableINSt3__24pairIK10KeyWrapperINS1_IP11Il2CppClassjEEES4_EES6_N6il2cpp8metadata14ArrayClassHashEN14dense_hash_mapIS6_S4_SB_NS6_14EqualsComparerINSA_17ArrayClassCompareEEENS0_9allocatorIS8_EEE9SelectKeyESF_SH_E3endEv
twd:_CollectionBase_OnValidate_m1606907366
Zqg:_MonoBehaviour_StopCoroutineViaEnumerator_Auto_m3883784228
nHc:_TT_Get_MM_Blend
pZ:__Z16realloc_internalPvjj10MemLabelId15AllocateOptionsPKci
WUg:__Z78RuntimeInvoker_Void_t1185182177_RuntimeObject_RuntimeObject_Single_t1397266774PFvvEPK10MethodInfoPvPS4_
hRc:__Z50CanvasRenderer_CUSTOM_CreateUIVertexStreamInternalP12Il2CppObjectS0_S0_S0_S0_S0_S0_S0_S0_S0_
yea:__ZN14PlayableOutput15PrepareTraverseERK9FrameData
fDb:__ZL19RequireCorLibMethodPKcS0_S0_
t2:__ZNK5Unity9Component22GetTypeVirtualInternalEv
Axc:_UNITY_FT_Outline_Get_CBox
$l:_emscripten_get_fullscreen_status
mBa:__ZN6prcoreL26RemapGenericIntegerToFloatI17TexFormatARGB888817TexFormatRGBFloatEEvPKNS_9InnerInfoE
eJe:_MethodDictionary_SetMethodProperty_m3032369066
hWb:__ZN15LODGroupManager27GarbageCollectCameraLODDataEv
wUg:__Z139RuntimeInvoker_Void_t1185182177_RuntimeObject_Color32_t2600501292_Int32_t2950945753_Int32_t2950945753_Single_t1397266774_Single_t1397266774PFvvEPK10MethodInfoPvPS4_
xZb:__ZN13ScreenManagerC2Ev
$Zf:_Enumerator_System_Collections_IEnumerator_Reset_m3289381690_gshared
Jw:__ZN7mecanim20ValueArrayBlendBeginILb1EEEvRNS_14ValueArrayMaskE
emc:__ZN12GUIClipState20CalculateMouseValuesER10InputEvent
pub:__Z18Transfer_BlittableI24GenerateTypeTreeTransferLb0E12PropertyNameEvRK29SerializationCommandArgumentsR31RuntimeSerializationCommandInfo
lua:__ZN7ApiGLES4InitERK14GfxContextGLESR16GfxDeviceLevelGL
eEe:_RemotingServices_CreateClientProxy_m809906894
z5:__ZNK11LightProbes14LightProbeData33GetLightProbeInterpolationWeightsERK8Vector3fRiR8Vector4fRf
$Ld:_Stream_Dispose_m2589290611
OKe:_ReturnMessage_get_LogicalCallContext_m2352570297
Tfa:__ZN11TypeManager36FatalErrorOnPersistentTypeIDConflictEiPKc
OV:__ZN21UnityDefaultAllocatorI17LowLevelAllocatorED0Ev
BX:__ZN8Renderer15SetIsRenderableEb
vkh:__ZL54IEnumerator_t1853284238_CustomAttributesCacheGeneratorP21CustomAttributesCache
ABa:__Z14DecodeBC7BlockP9HDRColorAPKh
u3e:_BigInteger_op_RightShift_m2934036419
$5b:__ZNK24RendererAnimationBinding12GetPPtrValueERKN11UnityEngine9Animation10BoundCurveE
qRg:__Z95RuntimeInvoker_Boolean_t97287965_RuntimeObject_TextGenerationSettings_t1351628751_RuntimeObjectPFvvEPK10MethodInfoPvPS4_
Vpd:_Boolean_System_IConvertible_ToSByte_m806999
eqd:_Boolean_System_IConvertible_ToUInt32_m2723177447_AdjustorThunk
w$g:__Z84RuntimeInvoker_Boolean_t97287965_RaycastResult_t3360306849_RaycastResult_t3360306849PFvvEPK10MethodInfoPvPS4_
Apj:_GC_new_proc_inner
ic:invoke_fiiffi
s0e:_MSCompatUnicodeTable_BuildTailoringTables_m1316979344
Qnb:__Z35Transfer_Blittable_FixedBufferFieldI14SafeBinaryReadiEvRK29SerializationCommandArgumentsR31RuntimeSerializationCommandInfo
ZMb:__ZNK25CameraStackRenderingState21IsRenderingLastCameraEv
TVf:_EqualityComparer_1_System_Collections_IEqualityComparer_Equals_m1538289377_gshared
Mya:__ZL24stbir__filter_catmullromff
lnf:_SecurityElement_AddChild_m1606852781
$Ui:__ZN6il2cpp6icalls8mscorlib6SystemL16CheckMemberMatchI9EventInfoNS_5utils10functional6FilterINSt3__212basic_stringIcNS8_11char_traitsIcEENS8_9allocatorIcEEEENS5_13VmStringUtils21CaseSensitiveComparerEEEEEbPKT_PK11Il2CppClassSN_iRKT0_
BVg:__Z83RuntimeInvoker_Boolean_t97287965_SpriteStateU26_t2382775785_SpriteState_t1362986479PFvvEPK10MethodInfoPvPS4_
lNf:_Array_LastIndexOf_TisRuntimeObject_m1677937501_gshared
qYb:__Z23ValidateScriptComponentP10MonoScriptPN4core12basic_stringIcNS1_20StringStorageDefaultIcEEEE
xXh:__ZL68Selectable_t3250028441_CustomAttributesCacheGenerator_m_InteractableP21CustomAttributesCache
yu:__ZN7mecanim9animation12GetHumanPoseIfEEvRKNS0_18ClipMuscleConstantEPKT_RNS_5human9HumanPoseE
V7a:__ZNSt3__215__inplace_mergeIRNS_4lessI4PPtrI11SpriteAtlasEEENS_11__wrap_iterIPS4_EEEEvT0_SA_SA_T_NS_15iterator_traitsISA_E15difference_typeESE_PNSD_10value_typeEi
XC:__ZN11UnityEngine9Animation30CreateAvatarBindingConstantOptER9TransformPKN7mecanim9animation14AvatarConstantERNS3_6memory9AllocatorE
rua:__ZN26SinglePassStereoSupportExt27InitSinglePassStereoSupportEP21ISinglePassStereoImplP9GfxDevice
_0c:_PointerEventData_set_button_m2912797404
FV:__ZNSt3__23mapIN19CloudServiceHandler11ServiceTypeEPS1_NS_4lessIS2_EE13stl_allocatorINS_4pairIKS2_S3_EEL18MemLabelIdentifier88ELi16EEEixERS8_
FCc:_ft_get_adobe_glyph_index
zJe:_MethodCall_get_GenericArguments_m1010093584
Nrj:__ZNSt3__26__treeINS_12__value_typeINS_12basic_stringIcNS_11char_traitsIcEENS_9allocatorIcEEEEPFvvEEENS_19__map_value_compareIS7_SA_NS_4lessIS7_EELb1EEENS5_ISA_EEE25__emplace_unique_key_argsIS7_JRKNS_21piecewise_construct_tENS_5tupleIJOS7_EEENSL_IJEEEEEENS_4pairINS_15__tree_iteratorISA_PNS_11__tree_nodeISA_PvEEiEEbEERKT_DpOT0_
tjc:__Z47Register_UnityEngine_Texture_Internal_GetHeightv
spf:_Single_ToString_m3947131094_AdjustorThunk
JEb:__Z25scripting_field_get_flags17ScriptingFieldPtr
x0e:_MSCompatUnicodeTable_Level3_m1870873670
ekb:__ZNSt3__218__insertion_sort_3IRPFbRK23TransformAccessReadOnlyS3_EPS1_EEvT0_S8_T_
vdf:_X509ChainStatus_GetInformation_m245493206
yzg:_Vector3_Lerp_m407887542
oih:_Collection_1__ctor_m2277581063_gshared
cpi:_MatchCollection__ctor_m4138850022
kYe:_ScrollRect_set_verticalScrollbarSpacing_m1091218920
Xuc:__ZN8JSONRead8TransferIyEEvRT_PKc17TransferMetaFlagsb
uob:__Z18Transfer_BlittableI14SafeBinaryReadLb0EtEvRK29SerializationCommandArgumentsR31RuntimeSerializationCommandInfo
ISi:__ZN6il2cpp2vm13MetadataCache24InitializeMethodMetadataEj
FW:__ZNK20DynamicHeapAllocatorI17LowLevelAllocatorE8ContainsEPKv
whd:_HMAC_HashFinal_m1921180827
xvf:_DateTime__ParseString_m2913931606
paj:__ZN6il2cpp2vm14PlatformInvoke36MarshalCppStringToCSharpStringResultEPKc
QTb:__ZN8Material23GetStencilWriteMaterialEv
WDa:__Z12GetBlockSize14GraphicsFormat
DHf:_Array_InternalArray__ICollection_Contains_TisIntPtr_t_m272531112_gshared
cMe:_RemotingProxy_get_TypeName_m4085898624
MXd:_GenericTypeParameterBuilder_not_supported_m3358960901
RRa:__ZN10TagManager8TransferI24GenerateTypeTreeTransferEEvRT_
Xdh:_Collection_1_ConvertItem_m169929357_gshared
YId:_MonoIO_GetCurrentDirectory_m762333289
Uac:__Z35AllocExtractMeshComponentFromScriptRK4Mesh30InternalScriptingShaderChannel34InternalScriptingVertexChannelTypei
Kw:__ZN7mecanim12SetValueMaskILb1EEEvPNS_14ValueArrayMaskEb
JDe:_Dictionary_2_ContainsKey_m415531417_gshared
ERa:__ZN10TagManager23VirtualRedirectTransferER24GenerateTypeTreeTransfer
bQf:_Array_InternalArray__Insert_TisCustomAttributeNamedArgument_t287865710_m3526512389_gshared
Gya:__ZL23stbir__filter_trapezoidff
lQ:__Z44Register_UnityEngine_AudioClip_get_ambisonicv
ffg:_UInt32_System_IConvertible_ToBoolean_m1763673183
eXb:__ZN23ScriptableRenderContextD2Ev
Doh:__ZL52ArrayList_t2718874744_CustomAttributesCacheGeneratorP21CustomAttributesCache
Ned:_SByte_System_IConvertible_ToUInt32_m4275534457
$qg:_MonoBehaviour_StopCoroutine_Auto_m820288890
w_i:__ZN15dense_hashtableINSt3__24pairIK10KeyWrapperINS1_IPK10MethodInfoP11Il2CppClassEEEjEES9_17ReflectionMapHashIS8_EN14dense_hash_mapIS9_jSD_NS9_14EqualsComparerINS0_8equal_toIS8_EEEENS0_9allocatorISB_EEE9SelectKeyESI_SK_E15insert_noresizeERKSB_
vMc:__Z32TextGenerator_CUSTOM_Dispose_cppP12Il2CppObject
O7i:__ZN6il2cpp6icalls8mscorlib6System19ExtractWidenedValueE14Il2CppTypeEnumPv
dkf:_SHA256Managed_HashFinal_m2914312286
iJb:__ZN12GPUFencePoolC2Ev
gpj:_GC_invoke_finalizers
irf:_String_Format_m2556382932
uKi:__ZL14adjustScale128PyS_i
UPh:__ZL59EventType_t3528516131_CustomAttributesCacheGenerator_ignoreP21CustomAttributesCache
Hob:__Z18Transfer_BlittableI14SafeBinaryReadLb0E8BitFieldEvRK29SerializationCommandArgumentsR31RuntimeSerializationCommandInfo
f3h:_Array_InternalArray__get_Item_TisTimeSpan_t881159249_m1885583191_gshared
nGf:_Guid__ctor_m3421080095
D5:__ZNK10GameObject25QueryComponentByExactTypeEPKN5Unity4TypeE
Fhe:_U3CGetEnumeratorU3Ec__Iterator0_System_Collections_Generic_IEnumeratorU3CTU3E_get_Current_m52354244_gshared
_3:__ZNK9ShaderLab22ShaderStencilStateDesc17ToGfxStencilStateEPK19ShaderPropertySheetS3_RK14GfxRasterStateR15GfxStencilState
cih:_Collection_1_Remove_m2372638279_gshared
zXe:_U3CClickRepeatU3Ec__Iterator0_MoveNext_m2800364313
FEc:_tt_cmap0_char_next
BBa:__Z15DecodeBC6HBlockP9HDRColorAPKh
Jjg:_Camera_get_farClipPlane_m538536689
t2b:__Z13RegisterClassI10GUIElementEvv
tgd:_DSA_Create_m1220983153
npj:_GC_malloc_uncollectable
hjd:_Array_Clone_m2672907798
Cmb:__ZNK16MemoryFileSystem6ParentERK13FileEntryDataRN4core12basic_stringIcNS3_20StringStorageDefaultIcEEEE
rNd:_SynchronizedWriter_Write_m1297715977
W9c:_Graphic_get_rectTransform_m1167152468
wca:__ZN15LODGroupManagerD2Ev
wNe:_ObjectReader_ReadRefTypeObjectInstance_m3311150386
$vc:__ZN8JSONRead21TransferSTLStyleArrayI13dynamic_arrayIN4math12int2_storageELj4EEEEvRT_17TransferMetaFlags
YSg:__Z115RuntimeInvoker_Boolean_t97287965_RuntimeObject_RuntimeObject_Single_t1397266774_SByte_t1669577662_Int32_t2950945753PFvvEPK10MethodInfoPvPS4_
LPh:__ZL62EventType_t3528516131_CustomAttributesCacheGenerator_mouseMoveP21CustomAttributesCache
M2e:_BigInteger_op_Multiply_m3801644593
Qog:_DefaultValueAttribute_Equals_m443523471
ROa:__ZN12IFileAdapter9SetLengthER13FileEntryDatay
Nic:__Z39SortingLayer_CUSTOM_GetLayerValueFromIDi
Kc:_Mix_PlayMusic
Qtf:_DateTime_System_IConvertible_ToSByte_m4130251280
rlg:_CullingGroup_SendEvents_m2491312335
AAc:_cff_cmap_encoding_init
aYc:__Z34GetUnityWebRequestScriptingClassesv
jDj:___cxa_pure_virtual__wrapper
AFd:_Int32_System_IConvertible_ToSByte_m3133688512_AdjustorThunk
Rm:FUNCTION_TABLE_fii
uic:__Z57Register_UnityEngine_RectTransform_INTERNAL_set_sizeDeltav
mSg:__Z57RuntimeInvoker_Void_t1185182177_RaycastResult_t3360306849PFvvEPK10MethodInfoPvPS4_
wjg:_Bounds_op_Equality_m3322991400
R2c:_StandaloneInputModule_Process_m309156323
SZi:__ZNK15dense_hashtableINSt3__24pairIK10KeyWrapperIPK10Il2CppTypeEjEES6_N6il2cpp8metadata14Il2CppTypeHashEN14dense_hash_mapIS6_jSB_NS6_14EqualsComparerINSA_26Il2CppTypeEqualityComparerEEENS0_9allocatorIS8_EEE9SelectKeyESF_SH_E12test_deletedEj
jKa:__ZN10SpookyHash7Hash128EPKvjPyS2_
AVb:__ZL60CombineDirectionalShadowCasterCullingIndexListsAndDestroyJobP20ShadowCullingJobData
Mwd:_Hashtable__ctor_m3890751112
ezg:_Vector2_ToString_m1205609053_AdjustorThunk
KBc:_otv_MarkBasePos_validate
ska:__ZN9ShaderLab18SerializedPropertyC2ERKS0_
Fxc:_cff_driver_init
Hag:_ThreadPool_QueueUserWorkItem_m1526970260
gt:__ZN17AnimationPlayable23ConnectNoTopologyChangeEPS_S0_ii
L4b:__ZN16ReflectionProbes20DidChangeActiveSceneEP10UnitySceneS1_
frf:_String_ToUpperInvariant_m2531236323
L6a:__ZN16SpriteRenderData8TransferI14SafeBinaryReadEEvRT_
ZCj:_emscripten_glVertexAttrib3f__wrapper
hgd:_DESTransform_GetStrongKey_m1464830895
Zid:_RijndaelTransform_Encrypt192_m3191066202
Wve:_Enumerator_Reset_m1314900927_gshared
Xlb:__ZN20LocalFileSystemPosix4CopyER13FileEntryDataS1_
hPi:__ZNK15dense_hashtableI10KeyWrapperIPK19Il2CppGenericMethodES4_N6il2cpp8metadata23Il2CppGenericMethodHashEN14dense_hash_setIS4_S7_NS4_14EqualsComparerINS6_26Il2CppGenericMethodCompareEEENSt3__29allocatorIS4_EEE8IdentityESB_SE_E3endEv
KTb:__ZL31SetRenderStateForStencilMarkingR9GfxDeviceR17ShaderPassContextjj
uPa:__ZN20ArchiveStorageReader20FillChunkCachedBlockEPNS_11CachedBlockE
HDe:_Dictionary_2_Add_m653869716_gshared
eMd:_StreamAsyncResult__ctor_m3118856368
gvf:_DateTime_Equals_m611432332_AdjustorThunk
KM:__ZN10AudioMixer16ResumeProcessingEv
_9c:_Graphic_OnBeforeTransformParentChanged_m4229077069
Cqb:__ZNSt3__26vectorI17AnimationCurveTplIfE13stl_allocatorIS2_L18MemLabelIdentifier1ELi16EEE7reserveEj
_lg:_Display_GetRenderingExtImpl_m2069813991
PPc:__ZN2UI13CanvasManager21EmitGeometryForCameraEP6Camera
S$:__Z31AudioFilterReadValidateCallback18ScriptingMethodPtr17ScriptingClassPtrP6Object
WOe:_InputField_SetDrawRangeToContainCaretPosition_m1009661083
Ela:__ZN9ShaderLab16SerializedTagMap8TransferI19StreamedBinaryWriteILb0EEEEvRT_
CLd:_MonoIO_get_PathSeparator_m4045322458
KB:__ZN7mecanim5human30HumanPoseAdjustForMissingBonesEPKNS0_5HumanEPNS0_9HumanPoseE
Lff:_X509SubjectKeyIdentifierExtension_FromHex_m1011249985
E8i:__ZN6il2cpp6icalls8mscorlib6System9Threading6Thread25SetCachedCurrentUICultureEP12Il2CppThreadP12Il2CppObject
Fmd:_ArithmeticException__ctor_m479063094
xNe:_ObjectReader_ReadObjectInstance_m3952621118
vDc:_UNITY_FT_Bitmap_Convert
BVb:__Z22CullDirectionalShadowsR9IndexListPK9SceneNodePK4AABBR22DirectionalCullContext
RTd:_Default_BindToMethod_m490530316
dGd:_Int32_ToString_m2507389746
Ybf:_X509KeyUsageExtension_ToString_m3542316380
Iid:_RijndaelManaged__ctor_m1562735454
rbe:_SslCipherSuite__ctor_m1470082018
IRi:__ZN15dense_hashtableINSt3__24pairIK10KeyWrapperIPK11Il2CppClassEPKcEES6_N6il2cpp5utils11PointerHashIS3_EEN14dense_hash_mapIS6_S9_SE_NS6_14EqualsComparerINS0_8equal_toIS5_EEEENS0_9allocatorISA_EEE9SelectKeyESJ_SL_E4findERS7_
eUe:_LayoutUtility_U3CGetMinHeightU3Em__4_m2382889764
Tfg:_UInt32_ToString_m2574561716_AdjustorThunk
BU:__ZN11UnityEngine15CloudWebService14RestDownloader7OnAbortEv
Tnj:_alloc_mark_stack
qWi:_AnalyticsSessionInfo_CallSessionStateChanged_m2615824008
PL:__ZNK11AudioSource22GetTypeVirtualInternalEv
jsa:__ZNK13GfxDeviceGLES18GetDefaultRTFormatEv
PGc:_UNITY_FT_Get_Glyph_Name
s5:__Z13VFormatBufferPciPKcPi
dvb:__Z19TransferField_ArrayI24GenerateTypeTreeTransfer27Converter_SimpleNativeClassI8GradientEEvRK23StaticTransferFieldInfoR31RuntimeSerializationCommandInfoRT0_
Lai:_ReadOnlyCollection_1_System_Collections_IList_Remove_m913116894_gshared
Tji:_TlsCipherSuite__ctor_m3580955828
z1f:_Enumerator_System_Collections_IEnumerator_Reset_m2355925297_AdjustorThunk
XR:__ZN11UnityEngine15CloudWebService16SessionContainer16MarkAsDispatchedERKN4core12basic_stringIcNS2_20StringStorageDefaultIcEEEE
lke:_InternalEnumerator_1_System_Collections_IEnumerator_get_Current_m2667908392_gshared
NOb:__Z16CopyActiveLightsRK12ActiveLightsRS_
Dlc:__ZN16memory_pool_implILi28EE15AutoPoolWrapper10InitializeEPv
K1g:_List_1_System_Collections_IList_IndexOf_m3921550135_gshared
aJf:_Array_InternalArray__ICollection_Remove_TisUInt64_t4134040092_m2664745791_gshared
_jc:__Z26Transform_CUSTOM_IsChildOfP12Il2CppObjectS0_
gr:__ZN4core8hash_mapIN11UnityEngine9Animation14GenericBindingENS2_10BoundIndexENS2_25GenericBindingHashFunctorENS2_30GenericBindingValueArrayUniqueEE4findERKS3_
lqi:_PatternLinkStack_SetCurrent_m366511098
$sj:__ZNSt3__26vectorINS_12basic_stringIDsNS_11char_traitsIDsEENS_9allocatorIDsEEEENS4_IS6_EEE18__construct_at_endEj
Ikg:_Color32__ctor_m4150508762_AdjustorThunk
A8f:_UTF7Decoder__ctor_m546843796
XAf:_Double_System_IConvertible_ToUInt32_m271206838_AdjustorThunk
vpa:__ZNK13GfxDeviceGLES11GetViewportEv
Fbc:__ZN14AsyncOperation26ClearCachedScriptingObjectEv
MGc:_UNITY_tt_face_load_cvt
Vve:_Enumerator_System_Collections_IEnumerator_Reset_m4080198166_gshared
dgc:__Z31GameObject_Set_Custom_PropLayerP12Il2CppObjecti
M6h:_ReadOnlyCollection_1_System_Collections_IList_Add_m1881324749_gshared
DSi:__ZL32InitializeCustomAttributesCachesPv
ZPa:__ZN20ArchiveStorageReaderD0Ev
dha:__ZN6Shader23VirtualRedirectTransferER19StreamedBinaryWriteILb0EE
IXc:__ZN19TransportJavaScript7PrepareEv
s7g:_List_1_System_Collections_IList_IndexOf_m1088859899_gshared
hui:_Uri__ctor_m3848281005
kuc:__Z35Transfer_Blittable_FixedBufferFieldI8JSONReadaEvRK29SerializationCommandArgumentsR31RuntimeSerializationCommandInfo
bmb:__ZNK20LocalFileSystemPosix20GetApplicationFolderEv
Qdd:_StreamingContext_Equals_m2722903674_AdjustorThunk
ZR:__ZN11UnityEngine15CloudWebService14DataDispatcher31SetupSessionContainerToDispatchEv
NCb:__Z29Transfer_Blittable_ArrayFieldI18StreamedBinaryReadILb0EE8Vector3fEvRT_R9ArrayInfoRK23StaticTransferFieldInfo
Sfd:_CspParameters__ctor_m1928090281
j$a:__ZN9ShaderLab11shaderprops9GetVectorEPK19ShaderPropertySheetS3_NS_16FastPropertyNameE
nI:__ZN4FMOD12ChannelGroup10getDSPHeadEPPNS_3DSPE
zFc:_UNITY_tt_size_run_prep
JH:__ZN12AudioManager17MainThreadCleanupEv
_mf:_Evidence_CopyTo_m872435527
lld:_SecurityParser_OnEndElement_m2088612360
S1:__ZNK6Camera18ScreenToWorldPointERK8Vector3f
r8i:__ZN6il2cpp6icalls8mscorlib6System9Threading6Thread11GetDomainIDEv
sva:__ZNK13TranslateGLES13GetFormatDescE14GraphicsFormat
tx:__ZN7mecanim9animation22MotionAddOverrideLayerEPNS0_12MotionOutputEPKS1_fbbRKNS_6bitsetILj83EEE
$Ma:__ZN17ArchiveFileSystemD0Ev
Lqi:_BackslashNumber_ResolveReference_m4176908213
fme:_InternalEnumerator_1_System_Collections_IEnumerator_get_Current_m888718134_AdjustorThunk
Zud:_SynchronizedArrayListWrapper_IndexOf_m1028529531
aad:_GraphicRegistry_UnregisterGraphicForCanvas_m2540204166
zSb:__ZN14qsort_internal5QSortIP20ShadowCasterSortDatai26ShadowCasterSortDataSorterEEvT_S4_T0_T1_
MU:__ZN11UnityEngine15CloudWebService19SessionEventManager5StartERKN4core12basic_stringIcNS2_20StringStorageDefaultIcEEEEii
Bmc:__ZN16GUIKeyboardState16SaveFromGUIStateER8GUIState
xqb:__Z22TransferField_NonArrayI14SafeBinaryRead27Converter_SimpleNativeClassI8GradientEEvRK23StaticTransferFieldInfoR31RuntimeSerializationCommandInfoRT0_
zf:_emscripten_glBufferData
Yhi:_UnityEvent_2_FindMethod_Impl_m2569180594_gshared
RPb:__Z25DoForwardShaderRenderLoopRK17RenderLoopContextR13dynamic_arrayI16RenderObjectDataLj4EERK11CullResultsbbbN6Camera10RenderFlagE
HPc:__ZZN2UI23InitializeCanvasManagerEvEN53UIEventsCanvasManagerEmitOffScreenGeometryRegistrator7ForwardEv
Df:_glUniform3iv
Uqg:_Mesh_RecalculateBounds_m39931642
Nrg:_Plane__ctor_m2890438515
Fvi:_GUI_get_skin_m1874615010
x5g:_List_1_System_Collections_IList_Contains_m453976393_gshared
Vqc:__Z18Transfer_BlittableI9JSONWriteLb0E9BoundsIntEvRK29SerializationCommandArgumentsR31RuntimeSerializationCommandInfo
ydg:_Type_GetMethod_m1197120913
Ywj:_fwrite
F4d:_COMException__ctor_m3707984232
yUf:_DefaultComparer_Equals_m962817516_gshared
rPg:__Z107RuntimeInvoker_Void_t1185182177_Single_t1397266774_Single_t1397266774_Single_t1397266774_Single_t1397266774PFvvEPK10MethodInfoPvPS4_
yDb:__ZN13MonoBehaviourD0Ev
bPc:__ZN2UI6Canvas18UpdateEventIndexesEv
ayi:_SymmetricTransform_CTS_m764800021
Bwj:_pipe
Oli:_SubjectAltNameExtension_ToString_m3628154311
Lng:_RenderPipelineManager_get_currentPipeline_m1638613344
KIi:_CanvasRenderer_SetPopMaterial_m2720611463
hic:__Z50RectTransform_CUSTOM_INTERNAL_set_anchoredPositionP12Il2CppObjectRK13Vector2fIcall
hka:__ZNSt3__26vectorIN9ShaderLab19SerializedSubShaderENS_9allocatorIS2_EEE6resizeEj
LMa:__ZN4FileC2Ev
TLg:__Z81RuntimeInvoker_Void_t1185182177_RuntimeObject_Double_t594665363_Int32_t2950945753PFvvEPK10MethodInfoPvPS4_
i4e:_BitConverterLE_UIntFromBytes_m3974925535
Zcg:_Type_GetTypeFromHandle_m1620074514
D_i:__ZN15dense_hashtableINSt3__24pairIK10KeyWrapperINS1_IPK10MethodInfoP11Il2CppClassEEEjEES9_17ReflectionMapHashIS8_EN14dense_hash_mapIS9_jSD_NS9_14EqualsComparerINS0_8equal_toIS8_EEEENS0_9allocatorISB_EEE9SelectKeyESI_SK_E12maybe_shrinkEv
rRa:__ZN14BatchAllocator16AllocateInternalEPPvijjj
gog:_GameObject_SendMessage_m3720186693
L2b:__Z13RegisterClassI6SpriteEvv
fJf:_Array_InternalArray__ICollection_Remove_TisKeyframe_t4206410242_m3222074551_gshared
xmd:_ArgumentException_get_Message_m520762021
Bje:_InternalEnumerator_1_System_Collections_IEnumerator_get_Current_m1641466962_AdjustorThunk
COi:__ZN14dense_hash_setI10KeyWrapperIPK17Il2CppGenericInstEN6il2cpp8metadata21Il2CppGenericInstHashENS4_14EqualsComparerINS6_24Il2CppGenericInstCompareEEENSt3__29allocatorIS4_EEEC2EjRKS7_RKSA_
V7e:_HybridDictionary_Switch_m3818192922
inj:_min_bytes_allocd
Dzb:__ZN17AnimationCurveTplIfE15InvalidateCacheEv
KZe:_Selectable_Awake_m2577497063
DLf:_Array_compare_TisUIVertex_t4057497605_m3950502696_gshared
clc:__Z29Mesh_Get_Custom_PropCanAccessP12Il2CppObject
t7a:__ZN6Sprite8TransferI19StreamedBinaryWriteILb0EEEEvRT_
Rve:_Enumerator_System_Collections_IEnumerator_get_Current_m2979767597_gshared
_Of:_Array_InternalArray__ICollection_CopyTo_TisLabelData_t360167391_m175414846_gshared
J2e:_BigInteger_op_Implicit_m378428706
qrg:_PlayerConnection_DisconnectedCallback_m1697017309
Ffb:__Z14resize_trimmedINSt3__26vectorIi13stl_allocatorIiL18MemLabelIdentifier13ELi16EEEEEvRT_j
vE:__ZN7mecanim9animation18ControllerConstant15InitializeClassEv
HBf:_Enum_System_IConvertible_ToDateTime_m3823814707
uo:FUNCTION_TABLE_iiiiiiiffiiiiiiiiiffffiiii
dBf:_Double_CompareTo_m3151899116_AdjustorThunk
sRd:_NumberFormatter_Init_m2982613221
Fyc:_cf2_getMaxstack
VWd:_EnumBuilder_GetCustomAttributes_m166600193
pyi:_Check_Source_m4098695967
Lwg:_SpaceAttribute__ctor_m2972541600
iBd:_Convert_ToInt32_m2128774575
Aue:_DefaultComparer_Compare_m297694671_gshared
bAe:_Enumerator_System_Collections_IEnumerator_Reset_m2917956982_gshared
Szc:_cff_parser_run
epj:_GC_notify_or_invoke_finalizers
jhj:__ZN6il2cpp2os6Thread5SleepEjb
tqf:_String_Compare_m1293271421
pFd:_Int32_System_IConvertible_ToDateTime_m1824716955_AdjustorThunk
YCj:_emscripten_glUniform3f__wrapper
Hn:FUNCTION_TABLE_viiiifii
DMc:__Z38Register_UnityEngine_Font_get_materialv
d5f:_List_1_set_Item_m3289315279_gshared
LFd:_Int32_CompareTo_m2864982090
Sjj:__ZN15dense_hashtableINSt3__24pairIK10KeyWrapperIPK19Il2CppGenericMethodEP10MethodInfoEES6_N6il2cpp8metadata23Il2CppGenericMethodHashEN14dense_hash_mapIS6_S9_SD_NS6_14EqualsComparerINSC_26Il2CppGenericMethodCompareEEENS0_9allocatorISA_EEE9SelectKeyESH_SJ_E4findERS7_
LRa:__ZN10TagManager23AddDefaultLayerIfNeededEv
$Ta:__ZN10FlareLayer12AddToManagerEv
Hda:__ZN18AsyncUploadManagerC2E10MemLabelId
pHa:__ZNSt3__26vectorINS_4pairI5CbKeyPN19ConstantBuffersGLES11ConstBufferEEENS_9allocatorIS6_EEE21__push_back_slow_pathIKS6_EEvRT_
L6i:__ZNK15dense_hashtableINSt3__24pairIK10KeyWrapperINS1_IP11Il2CppClassjEEES4_EES6_N6il2cpp8metadata14ArrayClassHashEN14dense_hash_mapIS6_S4_SB_NS6_14EqualsComparerINSA_17ArrayClassCompareEEENS0_9allocatorIS8_EEE9SelectKeyESF_SH_E12test_deletedEj
Wcb:__ZN13BuildSettings23VirtualRedirectTransferER24GenerateTypeTreeTransfer
Vub:__ZN24GenerateTypeTreeTransfer21TransferSTLStyleArrayINSt3__26vectorI8GUIStyle13stl_allocatorIS3_L18MemLabelIdentifier1ELi16EEEEEEvRT_17TransferMetaFlags
PAe:_Enumerator_get_Current_m926428745_AdjustorThunk
szc:_cf2_arrstack_clear
wtc:__Z18Transfer_BlittableI8JSONReadLb1E8Vector2fEvRK29SerializationCommandArgumentsR31RuntimeSerializationCommandInfo
_ge:_SslStreamBase_BeginRead_m3146234303
uBf:_Double_ToString_m1051753975
gOc:__ZN2UI14CanvasRenderer23VirtualRedirectTransferER24GenerateTypeTreeTransfer
mLb:__Z16PresentAfterDrawN9GfxDevice11PresentModeE
Owa:__ZN10DynamicVBO19FillQuadIndexBufferER21DynamicVBOChunkHandle
Lmi:_PKCS12_Clone_m2085085101
PYf:_EqualityComparer_1__cctor_m3880019879_gshared
okj:__ZN6il2cpp2vm6String8NewUtf16ERKNS_5utils10StringViewIDsEE
z8d:_MD5SHA1__ctor_m4081016482
fFj:_glGenFramebuffers__wrapper
GHj:_glBindBufferBase__wrapper
gTe:_LayoutGroup_GetAlignmentOnAxis_m1696038011
J9:__ZN23TransformChangeDispatch15InitializeClassEPv
wS:__ZN9JSONWrite8TransferIyEEvRT_PKc17TransferMetaFlags
iQb:__ZN22MotionVectorRenderLoop16PerformRenderingER8JobFence
KGj:_glTexSubImage2D__wrapper
eU:__ZN11UnityEngine15CloudWebService18RestFileDownloader13OnReceiveDataEPKvj
IFc:_UNITY_TT_RunIns
LFc:_Current_Ppem
Upc:__ZN5Unity9rapidjson6WriterI16TempBufferWriterNS0_4UTF8IcEES4_13JSONAllocatorE10StartArrayEv
h6h:_ReadOnlyCollection_1_System_Collections_IEnumerable_GetEnumerator_m610559569_gshared
KZf:_GenericEqualityComparer_1_Equals_m3279253448_gshared
TBj:dynCall_iiiiiiiii
Yga:__ZN6ShaderD0Ev
Y1b:__ZN18BackgroundJobQueue19ScheduleJobInternalEPFvPvES0_RKNS_8JobFenceE
hej:__ZN6il2cpp2gc8GCHandle9GetTargetEj
LLb:__ZN25CameraStackRenderingState18EndStereoRenderingEv
Flb:__ZN20LocalFileSystemPosix9SetLengthER13FileEntryDatay
HHd:_IntPtr_op_Explicit_m1593085246
HTh:__ZL64StandaloneInputModule_t2760469101_CustomAttributesCacheGeneratorP21CustomAttributesCache
htj:__ZN6il2cpp5utils25NativeDelegateMethodCache17GetNativeDelegateEPFvvE
yWa:__Z27ConvertSubMeshesToTrianglesItEvR13dynamic_arrayI7SubMeshLj4EERS0_IhLj1EE
ak:_emscripten_glGetProgramiv
bHi:_InputBuffer_add_onCommandSent_m2926830140
ceb:__ZN26PlayerSettingsSplashScreen8TransferI24GenerateTypeTreeTransferEEvRT_
rAa:__ZN6prcoreL17RemapGenericFloatI18TexFormatRGBAFloat14TexFormatRHalfEEvPKNS_9InnerInfoE
xCf:_Environment_get_Platform_m520224871
kBf:_FormatException__ctor_m1479314061
zg:_glScissor
WEf:_CultureInfo_insert_into_shared_tables_m4239017467
JUc:__ZNSt3__26__treeINS_12__value_typeIN4core12basic_stringIcNS2_20StringStorageDefaultIcEEEE14CallbackArray2IRKS6_R8JSONReadEEENS_19__map_value_compareIS6_SD_NS_4lessIS6_EELb1EEE13stl_allocatorISD_L18MemLabelIdentifier6ELi16EEE7destroyEPNS_11__tree_nodeISD_PvEE
PIi:_CanvasRenderer_SplitUIVertexStreamsInternal_m3280623346
CUe:_CullStateChangedEvent__ctor_m4089558259
gki:_TlsClientSettings_set_ClientCertificate_m3374228612
kLd:_MemoryStream_Read_m337792459
aQf:_Array_InternalArray__Insert_TisRuntimeObject_m1619219378_gshared
VMd:_StreamWriter_LowLevelWrite_m1318762026
WQd:_MulticastDelegate_GetHashCode_m3864330728
X6g:_List_1_Insert_m1643593161_gshared
lFg:__Z133RuntimeInvoker_Int32_t2950945753_RuntimeObject_RuntimeObject_Int32_t2950945753_Int32_t2950945753_RuntimeObject_ContextU26_t3937453398PFvvEPK10MethodInfoPvPS4_
Yqa:__ZN13GfxDeviceGLES21RegisterNativeTextureE9TextureIDi16TextureDimension
Mic:__Z44Register_UnityEngine_Material_DisableKeywordv
hn:FUNCTION_TABLE_iiiiiiif
WGg:__Z118RuntimeInvoker_Int32_t2950945753_IntPtr_t_RuntimeObject_Int32_t2950945753_Int32_t2950945753_MonoIOErrorU26_t1548853198PFvvEPK10MethodInfoPvPS4_
cIj:_emscripten_glUniform4fv__wrapper
en:FUNCTION_TABLE_iiiiiiii
Ufa:__ZN4core8hash_mapIiP4RTTIN11TypeManager27HashFunctorPersistentTypeIDENSt3__28equal_toIiEEEixERKi
q7c:_DefaultControls_CreateUIElementRoot_m3904573408
Nwc:__ZN19ControllerHitReportD2Ev
$me:_InternalEnumerator_1_System_Collections_IEnumerator_get_Current_m4189894603_gshared
Sqj:__ZN6il2cpp2os11MutexHandle4WaitEv
VT:__ZN11UnityEngine15CloudWebService23WebRequestUploadHandler8GetBytesEv
Eof:_Single_System_IConvertible_ToChar_m1898259383
dza:__ZN6prcoreL12RemapGenericI11TexFormatI817TexFormatARGB4444EEvPKNS_9InnerInfoE
DPf:_Array_InternalArray__ICollection_CopyTo_TisVector2_t2156229523_m4226925582_gshared
DGf:_Guid_Equals_m1866984197_AdjustorThunk
Idb:__ZNK14PlayerSettings22GetTypeVirtualInternalEv
y8h:_ReadOnlyCollection_1_System_Collections_IList_Insert_m2216746332_gshared
eAd:_Convert_ToChar_m2261593104
ocj:__ZN15dense_hashtableINSt3__24pairIK10KeyWrapperINS1_IPKcS4_EEEiEES6_24NamespaceAndNamePairHashN14dense_hash_mapIS6_iS9_NS6_14EqualsComparerI26NamespaceAndNamePairEqualsEENS0_9allocatorIS8_EEE9SelectKeyESD_SF_EC2ERKSI_j
Nnh:__ZL61ComImportAttribute_t1295173782_CustomAttributesCacheGeneratorP21CustomAttributesCache
WBf:_Enum_FormatSpecifier_X_m2932245600
NVd:_DerivedType_GetInterfaces_m2159651138
Ujg:_Camera_ScreenToViewportPoint_m3569032523
jea:__ZN15DirectorManager12RegisterJobsEP13PlayableGraph
kzd:_Stack_Push_m2529252115
Inc:__Z38Event_CUSTOM_Internal_GetMousePositionP12Il2CppObjectP13Vector2fIcall
HU:__ZN11UnityEngine15CloudWebService14DataDispatcher10InitializeERKN4core12basic_stringIcNS2_20StringStorageDefaultIcEEEEPvjRNS0_18ICloudJobSchedulerE
nXc:__ZN22CrashReportingSettingsC2Ev
Azc:_cff_free_glyph_data
mgd:_DESTransform__cctor_m244488330
sqa:__ZN13GfxDeviceGLES23ResolveDepthIntoTextureE12ObjectHandleI17RenderSurface_TagP17RenderSurfaceBaseES4_
FTd:_AssemblyName_OnDeserialization_m3779987437
sV:__ZN11UnityEngine15CloudWebService14DataDispatcher17PlayerLoopHandlerEv
FAd:_Convert_ToDouble_m1177445661
Wbd:_HorizontalOrVerticalLayoutGroup_set_childControlHeight_m1806657287
Mgf:_Interpreter_GetString_m94448266
Bvg:_RectTransform_set_offsetMin_m1512629941
dVc:__ZN11UnityEngine7Connect15AppRunningEventC2Ejjjj
Z9i:__ZN6il2cpp2vm9Exception23GetInvalidCastExceptionEPKc
J$:__Z26GetManagedAttributeManagerv
iuj:__ZN6il2cpp6icalls8mscorlib6System8DateTime16GetTimeMonotonicEv
VFa:__ZN19ComputeShaderKernelC2ERKS_
OWa:__ZN4Mesh14ClearSkinCacheEv
pVc:__ZN11UnityEngine7Connect17DeviceStatusEvent12ToJsonStringER9JSONWrite
ZEd:_NumberFormatter_InitDecHexDigits_m829694854
Brc:__Z18Transfer_BlittableI9JSONWriteLb0EjEvRK29SerializationCommandArgumentsR31RuntimeSerializationCommandInfo
Vgi:_UnityAction_2_BeginInvoke_m1769266175_gshared
hWi:__ZN6il2cpp2os4File10DeleteFileERKNSt3__212basic_stringIcNS2_11char_traitsIcEENS2_9allocatorIcEEEEPi
Zla:__ZL15GetIndexForNameRNSt3__23mapIN4core12basic_stringIcNS1_20StringStorageDefaultIcEEEEiNS_4lessIS5_EENS_9allocatorINS_4pairIKS5_iEEEEEERSA_
Og:__exit
ML:__ZN11AudioSource13AwakeFromLoadE17AwakeFromLoadMode
FHd:_IntPtr_op_Inequality_m3063970704
QSc:__ZN22BaseUnityConnectClient19OnEnterStateStoppedEv
YFb:__ZL31FindActiveTransformWithPathImplPKcR10GameObjectb
VDj:_glViewport__wrapper
ORe:_InputField_get_preferredWidth_m2499328890
w5h:_ReadOnlyCollection_1_System_Collections_Generic_ICollectionU3CTU3E_Add_m3521523143_gshared
aCj:b5
_ee:_SendRecordAsyncResult__ctor_m425551707
Tsh:__ZL57DispIdAttribute_t491906453_CustomAttributesCacheGeneratorP21CustomAttributesCache
VBj:b0
WBj:b1
XBj:b2
oab:__ZN4Mesh8TransferI24GenerateTypeTreeTransferEEvRT_
aBg:__Z128RuntimeInvoker_Boolean_t97287965_Int32U26_t1369213839_RuntimeObject_SByte_t1669577662_SByte_t1669577662_ExceptionU26_t3600731591PFvvEPK10MethodInfoPvPS4_
Vsc:__ZN9JSONWrite8TransferI13dynamic_arrayI10ColorRGBAfLj4EEEEvRT_PKc17TransferMetaFlags
dCj:b8
eCj:b9
GTi:__ZN6il2cpp2vm21ThreadPoolCompartmentC2Ev
f0a:__Z14resize_trimmedINSt3__26vectorIN4core12basic_stringIcNS2_20StringStorageDefaultIcEEEE13stl_allocatorIS6_L18MemLabelIdentifier1ELi16EEEEEvRT_j
VR:__ZN11UnityEngine15CloudWebService16SessionContainer13DeleteArchiveERKN4core12basic_stringIcNS2_20StringStorageDefaultIcEEEE
OBf:_Enum_System_IConvertible_ToSingle_m1234919892
Baf:_IPv6Address_Parse_m3004687047
fIc:_Vertical_Sweep_Step
b_i:__ZN15dense_hashtableINSt3__24pairIK10KeyWrapperIPK10Il2CppTypeEjEES6_N6il2cpp8metadata14Il2CppTypeHashEN14dense_hash_mapIS6_jSB_NS6_14EqualsComparerINSA_26Il2CppTypeEqualityComparerEEENS0_9allocatorIS8_EEE9SelectKeyESF_SH_E9copy_fromERKSK_j
NU:__ZN19CloudServiceHandler17PauseEventHandlerEb
JOc:__ZN2UI6Canvas29EncapsulateChildrenMeshBoundsEv
doa:__ZN19ShaderPropertySheetD0Ev
E0h:_Array_Sort_TisVector3_t3722313464_TisVector3_t3722313464_m3923377973_gshared
lUf:_DefaultComparer_GetHashCode_m605456464_gshared
xif:_RIPEMD160Managed_HHH_m2839246531
Veg:_UInt32_Parse_m2778221109
xub:__Z18Transfer_BlittableI24GenerateTypeTreeTransferLb0EaEvRK29SerializationCommandArgumentsR31RuntimeSerializationCommandInfo
iRe:_InputField_ProcessEvent_m2195684349
oad:_Graphic_OnEnable_m3893553015
CR:__ZN11UnityEngine15CloudWebService18CloudServiceConfigD2Ev
IAa:__ZN6prcoreL17RemapGenericFloatI15TexFormatRGHalf15TexFormatRFloatEEvPKNS_9InnerInfoE
Wjb:__ZN2UI13RectTransform8TransferI19StreamedBinaryWriteILb0EEEEvRT_
BPd:_MonoCustomAttrs_IsDefinedInternal_m2193933235
L1d:_MonoMethod_get_IsGenericMethodDefinition_m3024870835
vPa:__ZN20ArchiveStorageReader18DestroyCachedBlockEPNS_11CachedBlockE
B1i:__ZN15dense_hashtableINSt3__24pairIK10KeyWrapperIPK14Il2CppAssemblyEPK22Il2CppMonoAssemblyNameEES6_N6il2cpp5utils11PointerHashIS4_EEN14dense_hash_mapIS6_SA_SF_NS6_14EqualsComparerINS0_8equal_toIS5_EEEENS0_9allocatorISB_EEE9SelectKeyESK_SM_E9copy_fromERKSP_j
oma:__ZN9ShaderLab4Pass24CreateFromSerializedPassERKNS_14SerializedPassEPK6Shader
xjc:__Z61Register_UnityEngine_Texture2D_INTERNAL_CALL_GetPixelBilinearv
thd:_HMAC_Dispose_m3665032088
sl:_emscripten_set_deviceorientation_callback
d8a:__ZNK14Texture2DArray22GetTypeVirtualInternalEv
pje:_InternalEnumerator_1_System_Collections_IEnumerator_get_Current_m1277470738_gshared
R0i:__ZN6il2cpp2vm10Reflection15GetParamObjectsEPK10MethodInfoP11Il2CppClass
Eea:__ZN8Playable16ProcessPlayStateERK19DirectorVisitorInfo
Ajd:_X501_ToString_m2278029064
Pm:FUNCTION_TABLE_fif
tVh:__ZL80Graphic_t1660335611_CustomAttributesCacheGenerator_Graphic_OnFillVBO_m1026749972P21CustomAttributesCache
ocb:__ZN14SafeBinaryRead21TransferSTLStyleArrayI13dynamic_arrayI9InputAxisLj4EEEEvRT_17TransferMetaFlags
r9i:__ZN6il2cpp2vm13LivenessState14TraverseObjectEP12Il2CppObjectPS1_
Eb:invoke_viifiii
DZa:__ZNK13RenderTexture12IsMemorylessEv
wna:__ZN9ShaderLab20SerializedSubProgram15AddTextureParamEPKciib16TextureDimension
Dfb:__ZN14SafeBinaryRead21TransferSTLStyleArrayINSt3__26vectorIN30RuntimeInitializeOnLoadManager15ClassMethodInfoE13stl_allocatorIS4_L18MemLabelIdentifier13ELi16EEEEEEvRT_17TransferMetaFlags
Iqi:_Parser_NewParseException_m686511029
$Ji:_HumanBone_t2465339518_marshal_pinvoke
zWh:__ZL96Mask_t1803652131_CustomAttributesCacheGenerator_Mask_OnSiblingGraphicEnabledDisabled_m2583294479P21CustomAttributesCache
Wci:_Comparison_1_Invoke_m941130260_gshared
odg:_Type_GetType_m3605423543
O7h:_ReadOnlyCollection_1_System_Collections_Generic_IListU3CTU3E_set_Item_m375376101_gshared
HPd:_MonoEnumInfo__ctor_m3350651181_AdjustorThunk
Kxa:__ZN4crnd12crn_unpacker22decode_alpha_selectorsEv
woj:_GC_print_heap_sects
FQg:__Z74RuntimeInvoker_Vector2_t2156229523_Vector2_t2156229523_Vector2_t2156229523PFvvEPK10MethodInfoPvPS4_
FJb:__ZN16GeometryJobTasksC2E10MemLabelId
xdc:__ZN9Scripting30CreateScriptableObjectWithTypeE28ScriptingSystemTypeObjectPtrb
gLg:__Z131RuntimeInvoker_Int32_t2950945753_RuntimeObject_Int32_t2950945753_RuntimeObject_RuntimeObject_SByte_t1669577662_Int32U26_t1369213839PFvvEPK10MethodInfoPvPS4_
Xoa:__ZN13GfxDeviceGLES19SetUserBackfaceModeEb
eSb:__ZN30ForwardShaderRenderLoopScratchD2Ev
zeg:_UInt16_System_IConvertible_ToInt64_m3635199533_AdjustorThunk
Pfi:_InvokableCall_1_Invoke_m4150391468_gshared
amj:__ZN6il2cpp6icalls8mscorlib6System7Runtime16CompilerServices14RuntimeHelpers22get_OffsetToStringDataEv
QVc:__ZN20UnityConnectSettingsD0Ev
y_c:_ExecuteEvents_get_pointerExitHandler_m659239743
BUa:__Z15GetLightManagerv
jcc:__ZN18UnityPropertySheet21AddNewSerializedPropsERKS_
WWe:_Scrollbar_OnEnable_m665096645
aWa:__ZN9GfxDevice24GetMaxStaticBatchIndicesEv
zHi:_InputBuffer_UpdateCurrentInputLine_m2113149539
Hpg:_Mathf_Floor_m1195858412
tli:_ExtendedKeyUsageExtension_Decode_m2326833343
THa:__ZN9GfxDevice13SetViewMatrixERK10Matrix4x4f
Nza:__ZN6prcoreL12RemapGenericI17TexFormatRGBA888817TexFormatARGB1555EEvPKNS_9InnerInfoE
